TN:
SF:/home/monika/Documents/problems/13628번： Triangles/Triangles.cpp
FNL:0,8,54
FNA:0,1,main
FNF:1
FNH:1
DA:8,1
DA:10,1
DA:11,1
DA:13,1
DA:14,1
DA:16,1
DA:17,9
DA:19,8
DA:22,1
DA:23,1
DA:25,0
DA:29,1
DA:31,1
DA:32,1
DA:33,8
DA:35,7
DA:38,1
DA:40,1
DA:42,9
DA:44,8
DA:45,8
DA:46,8
DA:48,6
DA:52,1
DA:53,1
DA:54,2
LF:26
LH:25
end_of_record
TN:
SF:/usr/include/c++/14/bits/alloc_traits.h
FNF:0
FNH:0
DA:514,11
DA:515,10
DA:549,11
DA:550,11
DA:566,8
DA:577,8
DA:990,2
LF:7
LH:7
end_of_record
TN:
SF:/usr/include/c++/14/bits/allocator.h
FNF:0
FNH:0
DA:161,3
DA:176,3
DA:182,6
DA:187,8
DA:196,11
DA:201,11
DA:208,11
LF:7
LH:7
end_of_record
TN:
SF:/usr/include/c++/14/bits/basic_ios.h
FNF:0
FNH:0
DA:311,1
DA:313,1
DA:314,1
LF:3
LH:3
end_of_record
TN:
SF:/usr/include/c++/14/bits/functional_hash.h
FNF:0
FNH:0
DA:160,29
LF:1
LH:1
end_of_record
TN:
SF:/usr/include/c++/14/bits/hashtable.h
FNL:0,1252,1264
FNA:0,1,_ZNSt10_HashtableIxxSaIxENSt8__detail9_IdentityESt8equal_toIxESt4hashIxENS1_18_Mod_range_hashingENS1_20_Default_ranged_hashENS1_20_Prime_rehash_policyENS1_17_Hashtable_traitsILb0ELb1ELb1EEEEC2EmRKS6_RKS4_RKS0_
FNL:1,1271,1278
FNA:1,1,_ZNSt10_HashtableIxxSaIxENSt8__detail9_IdentityESt8equal_toIxESt4hashIxENS1_18_Mod_range_hashingENS1_20_Default_ranged_hashENS1_20_Prime_rehash_policyENS1_17_Hashtable_traitsILb0ELb1ELb1EEEEC2IN9__gnu_cxx17__normal_iteratorIPxSt6vectorIxS0_EEEEET_SK_mRKS6_RKS4_RKS0_St17integral_constantIbLb1EE
FNL:2,1750,1766
FNA:2,14,_ZNKSt10_HashtableIxxSaIxENSt8__detail9_IdentityESt8equal_toIxESt4hashIxENS1_18_Mod_range_hashingENS1_20_Default_ranged_hashENS1_20_Prime_rehash_policyENS1_17_Hashtable_traitsILb0ELb1ELb1EEEE4findERKx
FNL:3,2065,2087
FNA:3,14,_ZNKSt10_HashtableIxxSaIxENSt8__detail9_IdentityESt8equal_toIxESt4hashIxENS1_18_Mod_range_hashingENS1_20_Default_ranged_hashENS1_20_Prime_rehash_policyENS1_17_Hashtable_traitsILb0ELb1ELb1EEEE19_M_find_before_nodeEmRKxm
FNL:4,2095,2117
FNA:4,7,_ZNKSt10_HashtableIxxSaIxENSt8__detail9_IdentityESt8equal_toIxESt4hashIxENS1_18_Mod_range_hashingENS1_20_Default_ranged_hashENS1_20_Prime_rehash_policyENS1_17_Hashtable_traitsILb0ELb1ELb1EEEE22_M_find_before_node_trIxEEPNS1_15_Hash_node_baseEmRKT_m
FNL:5,2228,2252
FNA:5,8,_ZNSt10_HashtableIxxSaIxENSt8__detail9_IdentityESt8equal_toIxESt4hashIxENS1_18_Mod_range_hashingENS1_20_Default_ranged_hashENS1_20_Prime_rehash_policyENS1_17_Hashtable_traitsILb0ELb1ELb1EEEE21_M_insert_unique_nodeEmmPNS1_10_Hash_nodeIxLb0EEEm
FNL:6,2317,2346
FNA:6,8,_ZNSt10_HashtableIxxSaIxENSt8__detail9_IdentityESt8equal_toIxESt4hashIxENS1_18_Mod_range_hashingENS1_20_Default_ranged_hashENS1_20_Prime_rehash_policyENS1_17_Hashtable_traitsILb0ELb1ELb1EEEE16_M_insert_uniqueIRxSE_NS1_10_AllocNodeISaINS1_10_Hash_nodeIxLb0EEEEEEEESt4pairINS1_14_Node_iteratorIxLb1ELb0EEEbEOT_OT0_RKT1_
FNL:7,2584,2593
FNA:7,1,_ZNSt10_HashtableIxxSaIxENSt8__detail9_IdentityESt8equal_toIxESt4hashIxENS1_18_Mod_range_hashingENS1_20_Default_ranged_hashENS1_20_Prime_rehash_policyENS1_17_Hashtable_traitsILb0ELb1ELb1EEEE5clearEv
FNL:8,2623,2657
FNA:8,1,_ZNSt10_HashtableIxxSaIxENSt8__detail9_IdentityESt8equal_toIxESt4hashIxENS1_18_Mod_range_hashingENS1_20_Default_ranged_hashENS1_20_Prime_rehash_policyENS1_17_Hashtable_traitsILb0ELb1ELb1EEEE9_M_rehashEmSt17integral_constantIbLb1EE
FNL:9,316,316
FNA:9,8,_ZNSt10_HashtableIxxSaIxENSt8__detail9_IdentityESt8equal_toIxESt4hashIxENS1_18_Mod_range_hashingENS1_20_Default_ranged_hashENS1_20_Prime_rehash_policyENS1_17_Hashtable_traitsILb0ELb1ELb1EEEE12_Scoped_nodeD2Ev
FNL:10,460,461
FNA:10,2,_ZNSt10_HashtableIxxSaIxENSt8__detail9_IdentityESt8equal_toIxESt4hashIxENS1_18_Mod_range_hashingENS1_20_Default_ranged_hashENS1_20_Prime_rehash_policyENS1_17_Hashtable_traitsILb0ELb1ELb1EEEE21_M_deallocate_bucketsEv
FNL:11,841,865
FNA:11,8,_ZNSt10_HashtableIxxSaIxENSt8__detail9_IdentityESt8equal_toIxESt4hashIxENS1_18_Mod_range_hashingENS1_20_Default_ranged_hashENS1_20_Prime_rehash_policyENS1_17_Hashtable_traitsILb0ELb1ELb1EEEE22_M_insert_bucket_beginEmPNS1_10_Hash_nodeIxLb0EEE
FNF:12
FNH:12
DA:305,8
DA:306,8
DA:316,8
DA:421,2
DA:422,2
DA:439,1
DA:441,0
DA:443,0
DA:444,0
DA:447,1
DA:451,2
DA:453,2
DA:456,1
DA:460,2
DA:461,2
DA:473,3
DA:474,3
DA:495,1
DA:498,1
DA:499,1
DA:571,1
DA:577,1
DA:644,0
DA:645,0
DA:656,22
DA:657,22
DA:799,7
DA:800,7
DA:803,23
DA:804,1
DA:819,14
DA:822,14
DA:823,14
DA:824,12
DA:830,7
DA:833,7
DA:834,7
DA:835,0
DA:841,8
DA:843,8
DA:847,0
DA:848,0
DA:855,8
DA:856,8
DA:858,8
DA:861,7
DA:863,8
DA:865,8
DA:945,8
DA:947,8
DA:954,8
DA:959,8
DA:1252,1
DA:1256,1
DA:1258,1
DA:1259,1
DA:1261,0
DA:1262,0
DA:1264,1
DA:1271,1
DA:1277,1
DA:1278,1
DA:1658,1
DA:1671,1
DA:1672,1
DA:1673,1
DA:1750,14
DA:1755,14
DA:1757,0
DA:1758,0
DA:1759,0
DA:1760,0
DA:1763,14
DA:1764,14
DA:1765,14
DA:1823,14
DA:1828,14
DA:1829,8
DA:2065,14
DA:2071,14
DA:2072,14
DA:2075,12
DA:2078,12
DA:2081,0
DA:2095,7
DA:2101,7
DA:2102,7
DA:2105,0
DA:2108,0
DA:2111,0
DA:2228,8
DA:2234,8
DA:2236,8
DA:2239,8
DA:2241,1
DA:2242,1
DA:2245,8
DA:2249,8
DA:2250,8
DA:2251,8
DA:2252,8
DA:2317,8
DA:2323,8
DA:2324,8
DA:2325,1
DA:2326,0
DA:2327,0
DA:2329,8
DA:2330,8
DA:2332,8
DA:2333,8
DA:2334,0
DA:2336,8
DA:2343,8
DA:2344,8
DA:2345,8
DA:2346,8
DA:2584,1
DA:2588,1
DA:2589,1
DA:2590,1
DA:2591,1
DA:2592,1
DA:2593,1
DA:2623,1
DA:2627,1
DA:2628,1
DA:2629,1
DA:2630,1
DA:2631,1
DA:2633,0
DA:2635,0
DA:2636,0
DA:2638,0
DA:2639,0
DA:2640,0
DA:2641,0
DA:2642,0
DA:2647,0
DA:2648,0
DA:2654,1
DA:2655,1
DA:2656,1
DA:2657,1
LF:144
LH:113
end_of_record
TN:
SF:/usr/include/c++/14/bits/hashtable_policy.h
FNL:0,2070,2079
FNA:0,1,_ZNSt8__detail16_Hashtable_allocISaINS_10_Hash_nodeIxLb0EEEEE19_M_allocate_bucketsEm
FNL:1,999,1004
FNA:1,1,_ZNSt8__detail12_Insert_baseIxxSaIxENS_9_IdentityESt8equal_toIxESt4hashIxENS_18_Mod_range_hashingENS_20_Default_ranged_hashENS_20_Prime_rehash_policyENS_17_Hashtable_traitsILb0ELb1ELb1EEEE6insertIN9__gnu_cxx17__normal_iteratorIPxSt6vectorIxS1_EEEEEvT_SK_
FNF:2
FNH:2
DA:171,8
DA:173,8
DA:248,1
DA:249,1
DA:253,8
DA:254,8
DA:319,9
DA:339,16
DA:344,19
DA:381,8
DA:386,8
DA:387,0
DA:399,22
DA:442,8
DA:443,8
DA:489,14
DA:490,14
DA:532,30
DA:534,7
DA:550,1
DA:551,1
DA:577,8
DA:578,8
DA:585,0
DA:586,0
DA:730,8
DA:731,8
DA:732,8
DA:736,8
DA:739,0
DA:999,1
DA:1001,1
DA:1002,1
DA:1003,1
DA:1013,1
DA:1019,1
DA:1020,9
DA:1021,8
DA:1242,1
DA:1248,1
DA:1330,1
DA:1333,21
DA:1337,21
DA:1342,8
DA:1346,8
DA:1358,23
DA:1359,23
DA:1362,7
DA:1368,7
DA:1730,1
DA:1731,1
DA:1735,12
DA:1742,0
DA:1747,0
DA:1755,0
DA:1759,12
DA:1761,12
DA:1765,0
DA:1768,0
DA:1942,1
DA:1975,1
DA:1976,1
DA:2017,8
DA:2020,8
DA:2021,8
DA:2022,8
DA:2025,8
DA:2026,8
DA:2040,8
DA:2042,0
DA:2043,0
DA:2044,8
DA:2048,8
DA:2051,8
DA:2052,8
DA:2053,8
DA:2058,1
DA:2060,9
DA:2062,8
DA:2063,8
DA:2064,8
DA:2070,1
DA:2073,1
DA:2075,1
DA:2076,1
DA:2077,1
DA:2078,1
DA:2083,1
DA:2088,1
DA:2089,1
DA:2090,1
DA:2091,1
LF:92
LH:81
end_of_record
TN:
SF:/usr/include/c++/14/bits/new_allocator.h
FNL:0,126,152
FNA:0,1,_ZNSt15__new_allocatorIPNSt8__detail15_Hash_node_baseEE8allocateEmPKv
FNA:0,1,_ZNSt15__new_allocatorIiE8allocateEmPKv
FNA:0,1,_ZNSt15__new_allocatorIxE8allocateEmPKv
FNF:1
FNH:1
DA:126,11
DA:134,3
DA:138,0
DA:139,0
DA:140,0
DA:151,11
DA:156,11
DA:172,11
LF:8
LH:5
end_of_record
TN:
SF:/usr/include/c++/14/bits/stl_algobase.h
FNF:0
FNH:0
DA:947,2
DA:950,2
DA:951,16
DA:952,14
DA:997,2
DA:998,2
DA:1140,2
DA:1146,2
DA:1151,2
DA:1175,2
DA:1180,2
LF:11
LH:11
end_of_record
TN:
SF:/usr/include/c++/14/bits/stl_construct.h
FNF:0
FNH:0
DA:94,8
DA:97,8
DA:109,2
DA:119,2
LF:4
LH:4
end_of_record
TN:
SF:/usr/include/c++/14/bits/stl_function.h
FNF:0
FNH:0
DA:374,12
DA:375,12
LF:2
LH:2
end_of_record
TN:
SF:/usr/include/c++/14/bits/stl_iterator.h
FNF:0
FNH:0
DA:1067,1
DA:1068,2
DA:1100,24
DA:1102,24
DA:1103,24
LF:5
LH:5
end_of_record
TN:
SF:/usr/include/c++/14/bits/stl_numeric.h
FNF:0
FNH:0
DA:134,1
DA:140,9
DA:141,8
LF:3
LH:3
end_of_record
TN:
SF:/usr/include/c++/14/bits/stl_pair.h
FNF:0
FNH:0
DA:442,0
DA:444,8
LF:2
LH:1
end_of_record
TN:
SF:/usr/include/c++/14/bits/stl_uninitialized.h
FNL:0,660,671
FNA:0,1,_ZNSt27__uninitialized_default_n_1ILb1EE18__uninit_default_nIPimEET_S3_T0_
FNA:0,1,_ZNSt27__uninitialized_default_n_1ILb1EE18__uninit_default_nIPxmEET_S3_T0_
FNF:1
FNH:1
DA:660,2
DA:662,2
DA:664,2
DA:666,2
DA:667,2
DA:668,2
DA:670,2
DA:696,2
DA:707,2
DA:712,2
DA:777,2
DA:779,2
LF:12
LH:12
end_of_record
TN:
SF:/usr/include/c++/14/bits/stl_vector.h
FNL:0,366,370
FNA:0,1,_ZNSt12_Vector_baseIiSaIiEED2Ev
FNA:0,1,_ZNSt12_Vector_baseIxSaIxEED2Ev
FNL:1,396,401
FNA:1,1,_ZNSt12_Vector_baseIiSaIiEE17_M_create_storageEm
FNA:1,1,_ZNSt12_Vector_baseIxSaIxEE17_M_create_storageEm
FNL:2,556,558
FNA:2,1,_ZNSt6vectorIiSaIiEEC2EmRKS0_
FNA:2,1,_ZNSt6vectorIxSaIxEEC2EmRKS0_
FNF:3
FNH:3
DA:98,2
DA:99,2
DA:132,2
DA:145,2
DA:146,2
DA:300,2
DA:332,2
DA:333,2
DA:334,2
DA:366,2
DA:368,4
DA:369,2
DA:370,2
DA:377,2
DA:380,2
DA:385,2
DA:388,2
DA:389,2
DA:396,2
DA:398,2
DA:399,2
DA:400,2
DA:401,2
DA:556,2
DA:557,2
DA:558,2
DA:733,2
DA:735,2
DA:736,2
DA:738,1
DA:873,3
DA:874,2
DA:893,3
DA:894,2
DA:1128,16
DA:1131,16
DA:1717,2
DA:1719,2
DA:1720,4
DA:1721,2
DA:1917,2
DA:1919,2
DA:1920,0
LF:43
LH:42
end_of_record
TN:
SF:/usr/include/c++/14/bits/unordered_set.h
FNL:0,173,179
FNA:0,1,_ZNSt13unordered_setIxSt4hashIxESt8equal_toIxESaIxEEC2IN9__gnu_cxx17__normal_iteratorIPxSt6vectorIxS4_EEEEET_SD_mRKS1_RKS3_RKS4_
FNF:1
FNH:1
DA:104,2
DA:173,1
DA:178,1
DA:179,1
DA:692,6
DA:693,8
LF:6
LH:6
end_of_record
TN:
SF:/usr/include/c++/14/ext/aligned_buffer.h
FNF:0
FNH:0
DA:106,16
DA:112,19
LF:2
LH:2
end_of_record
