TN:
SF:/home/monika/Documents/problems/18442번： 우체국 1/main.cpp
FNL:0,5,87
FNA:0,1,main
FNF:1
FNH:1
DA:5,1
DA:7,1
DA:8,1
DA:11,1
DA:12,1
DA:13,11
DA:15,10
DA:17,1
DA:18,1
DA:19,11
DA:21,10
DA:22,110
DA:24,100
DA:25,100
DA:26,100
DA:27,45
DA:29,10
DA:30,10
DA:31,110
DA:33,650
DA:35,550
DA:36,550
DA:37,2750
DA:39,2200
DA:41,550
DA:42,550
DA:45,20
DA:46,10
DA:47,10
DA:48,120
DA:50,660
DA:52,3300
DA:54,2750
DA:55,1350
DA:56,1400
DA:57,1400
DA:59,697
DA:60,697
DA:65,10
DA:67,2
DA:68,2
DA:69,2
DA:70,12
DA:72,10
DA:73,10
DA:74,10
DA:75,10
DA:76,10
DA:78,2
DA:79,2
DA:80,2
DA:81,10
DA:82,1
DA:83,6
DA:84,5
DA:85,1
DA:86,1
DA:87,1
LF:58
LH:58
end_of_record
TN:
SF:/usr/include/c++/14/bit
FNL:0,201,243
FNA:0,2,_ZSt13__countl_zeroImEiT_
FNL:1,371,375
FNA:1,2,_ZSt11__bit_widthImEiT_
FNF:2
FNH:2
DA:201,2
DA:204,2
DA:206,2
DA:207,0
DA:209,2
DA:210,2
DA:211,2
DA:220,2
DA:221,2
DA:371,2
DA:373,2
DA:374,2
LF:12
LH:11
end_of_record
TN:
SF:/usr/include/c++/14/bits/alloc_traits.h
FNF:0
FNH:0
DA:515,520
DA:550,520
DA:577,10
DA:581,10
DA:599,0
DA:601,0
DA:627,420
DA:767,0
DA:993,516
DA:994,516
LF:10
LH:7
end_of_record
TN:
SF:/usr/include/c++/14/bits/allocator.h
FNF:0
FNH:0
DA:161,91
DA:166,1022
DA:182,562
DA:189,520
DA:191,0
DA:192,0
DA:193,0
DA:196,520
DA:203,520
DA:205,0
DA:206,0
DA:208,520
DA:215,0
LF:13
LH:7
end_of_record
TN:
SF:/usr/include/c++/14/bits/cpp_type_traits.h
FNL:0,608,609
FNA:0,420,_ZSt12__miter_baseIN9__gnu_cxx17__normal_iteratorIPKiSt6vectorIiSaIiEEEEET_S8_
FNA:0,424,_ZSt12__miter_baseIN9__gnu_cxx17__normal_iteratorIPKxSt6vectorIxSaIxEEEEET_S8_
FNA:0,2,_ZSt12__miter_baseIN9__gnu_cxx17__normal_iteratorIPxSt6vectorIxSaIxEEEEET_S7_
FNA:0,0,_ZSt12__miter_baseIPxET_S1_
FNF:1
FNH:1
DA:608,846
DA:609,846
LF:2
LH:2
end_of_record
TN:
SF:/usr/include/c++/14/bits/move.h
FNL:0,137,138
FNA:0,26,_ZSt4moveIRxEONSt16remove_referenceIT_E4typeEOS2_
FNL:1,226,237
FNA:1,0,_ZSt4swapIxENSt9enable_ifIXsrSt6__and_IJSt6__not_ISt15__is_tuple_likeIT_EESt21is_move_constructibleIS4_ESt18is_move_assignableIS4_EEE5valueEvE4typeERS4_SE_
FNL:2,51,52
FNA:2,2,_ZSt11__addressofIKSt6vectorIxSaIxEEEPT_RS4_
FNA:2,420,_ZSt11__addressofISt6vectorIiSaIiEEEPT_RS3_
FNA:2,420,_ZSt11__addressofISt6vectorIxSaIxEEEPT_RS3_
FNA:2,0,_ZSt11__addressofIiEPT_RS0_
FNA:2,11,_ZSt11__addressofIxEPT_RS0_
FNL:3,71,72
FNA:3,210,_ZSt7forwardIRKSt6vectorIiSaIiEEEOT_RNSt16remove_referenceIS5_E4typeE
FNA:3,210,_ZSt7forwardIRKSt6vectorIxSaIxEEEOT_RNSt16remove_referenceIS5_E4typeE
FNA:3,0,_ZSt7forwardIRKiEOT_RNSt16remove_referenceIS2_E4typeE
FNA:3,0,_ZSt7forwardIRKxEOT_RNSt16remove_referenceIS2_E4typeE
FNA:3,0,_ZSt7forwardIRxEOT_RNSt16remove_referenceIS1_E4typeE
FNA:3,38,_ZSt7forwardIxEOT_RNSt16remove_referenceIS0_E4typeE
FNF:4
FNH:3
DA:51,853
DA:52,853
DA:71,458
DA:72,458
DA:137,26
DA:138,26
DA:226,0
DA:234,0
DA:235,0
DA:236,0
DA:237,0
LF:11
LH:6
end_of_record
TN:
SF:/usr/include/c++/14/bits/new_allocator.h
FNL:0,126,152
FNA:0,20,_ZNSt15__new_allocatorISt6vectorIiSaIiEEE8allocateEmPKv
FNA:0,20,_ZNSt15__new_allocatorISt6vectorIxSaIxEEE8allocateEmPKv
FNA:0,230,_ZNSt15__new_allocatorIiE8allocateEmPKv
FNA:0,250,_ZNSt15__new_allocatorIxE8allocateEmPKv
FNL:1,156,173
FNA:1,20,_ZNSt15__new_allocatorISt6vectorIiSaIiEEE10deallocateEPS2_m
FNA:1,20,_ZNSt15__new_allocatorISt6vectorIxSaIxEEE10deallocateEPS2_m
FNA:1,230,_ZNSt15__new_allocatorIiE10deallocateEPim
FNA:1,250,_ZNSt15__new_allocatorIxE10deallocateEPxm
FNF:2
FNH:2
DA:88,91
DA:92,1022
DA:126,520
DA:134,520
DA:138,0
DA:139,0
DA:140,0
DA:151,520
DA:156,520
DA:172,520
DA:233,520
LF:11
LH:8
end_of_record
TN:
SF:/usr/include/c++/14/bits/predefined_ops.h
FNL:0,108,109
FNA:0,7,_ZN9__gnu_cxx5__ops15__val_comp_iterENS0_15_Iter_less_iterE
FNL:1,44,45
FNA:1,8,_ZNK9__gnu_cxx5__ops15_Iter_less_iterclINS_17__normal_iteratorIPxSt6vectorIxSaIxEEEES8_EEbT_T0_
FNL:2,50,51
FNA:2,2,_ZN9__gnu_cxx5__ops16__iter_less_iterEv
FNL:3,68,69
FNA:3,0,_ZNK9__gnu_cxx5__ops14_Iter_less_valclINS_17__normal_iteratorIPxSt6vectorIxSaIxEEEExEEbT_RT0_
FNL:4,97,98
FNA:4,7,_ZNK9__gnu_cxx5__ops14_Val_less_iterclIxNS_17__normal_iteratorIPxSt6vectorIxSaIxEEEEEEbRT_T0_
FNF:5
FNH:4
DA:44,8
DA:45,8
DA:50,2
DA:51,2
DA:68,0
DA:69,0
DA:97,7
DA:98,7
DA:108,7
DA:109,7
LF:10
LH:8
end_of_record
TN:
SF:/usr/include/c++/14/bits/ptr_traits.h
FNL:0,205,209
FNA:0,8,_ZSt12__to_addressIxEPT_S1_
FNF:1
FNH:1
DA:205,8
DA:208,8
LF:2
LH:2
end_of_record
TN:
SF:/usr/include/c++/14/bits/std_abs.h
FNL:0,61,61
FNA:0,2200,_ZSt3absx
FNF:1
FNH:1
DA:61,2200
LF:1
LH:1
end_of_record
TN:
SF:/usr/include/c++/14/bits/stl_algo.h
FNL:0,1589,1597
FNA:0,0,_ZSt13__heap_selectIN9__gnu_cxx17__normal_iteratorIPxSt6vectorIxSaIxEEEENS0_5__ops15_Iter_less_iterEEvT_S9_S9_T0_
FNL:1,1750,1764
FNA:1,7,_ZSt25__unguarded_linear_insertIN9__gnu_cxx17__normal_iteratorIPxSt6vectorIxSaIxEEEENS0_5__ops14_Val_less_iterEEvT_T0_
FNL:2,1770,1788
FNA:2,2,_ZSt16__insertion_sortIN9__gnu_cxx17__normal_iteratorIPxSt6vectorIxSaIxEEEENS0_5__ops15_Iter_less_iterEEvT_S9_T0_
FNL:3,1794,1800
FNA:3,0,_ZSt26__unguarded_insertion_sortIN9__gnu_cxx17__normal_iteratorIPxSt6vectorIxSaIxEEEENS0_5__ops15_Iter_less_iterEEvT_S9_T0_
FNL:4,1812,1823
FNA:4,2,_ZSt22__final_insertion_sortIN9__gnu_cxx17__normal_iteratorIPxSt6vectorIxSaIxEEEENS0_5__ops15_Iter_less_iterEEvT_S9_T0_
FNL:5,1829,1845
FNA:5,0,_ZSt21__unguarded_partitionIN9__gnu_cxx17__normal_iteratorIPxSt6vectorIxSaIxEEEENS0_5__ops15_Iter_less_iterEET_S9_S9_S9_T0_
FNL:6,1851,1858
FNA:6,0,_ZSt27__unguarded_partition_pivotIN9__gnu_cxx17__normal_iteratorIPxSt6vectorIxSaIxEEEENS0_5__ops15_Iter_less_iterEET_S9_S9_T0_
FNL:7,1863,1870
FNA:7,0,_ZSt14__partial_sortIN9__gnu_cxx17__normal_iteratorIPxSt6vectorIxSaIxEEEENS0_5__ops15_Iter_less_iterEEvT_S9_S9_T0_
FNL:8,1876,1893
FNA:8,2,_ZSt16__introsort_loopIN9__gnu_cxx17__normal_iteratorIPxSt6vectorIxSaIxEEEElNS0_5__ops15_Iter_less_iterEEvT_S9_T0_T1_
FNL:9,1900,1910
FNA:9,2,_ZSt6__sortIN9__gnu_cxx17__normal_iteratorIPxSt6vectorIxSaIxEEEENS0_5__ops15_Iter_less_iterEEvT_S9_T0_
FNL:10,4762,4773
FNA:10,2,_ZSt4sortIN9__gnu_cxx17__normal_iteratorIPxSt6vectorIxSaIxEEEEEvT_S7_
FNL:11,85,103
FNA:11,0,_ZSt22__move_median_to_firstIN9__gnu_cxx17__normal_iteratorIPxSt6vectorIxSaIxEEEENS0_5__ops15_Iter_less_iterEEvT_S9_S9_S9_T0_
FNF:12
FNH:6
DA:85,0
DA:88,0
DA:90,0
DA:91,0
DA:92,0
DA:93,0
DA:95,0
DA:97,0
DA:98,0
DA:99,0
DA:100,0
DA:102,0
DA:103,0
DA:1589,0
DA:1593,0
DA:1594,0
DA:1595,0
DA:1596,0
DA:1597,0
DA:1750,7
DA:1754,7
DA:1755,7
DA:1756,7
DA:1757,7
DA:1759,0
DA:1760,0
DA:1761,0
DA:1763,7
DA:1764,7
DA:1770,2
DA:1773,2
DA:1775,10
DA:1777,8
DA:1780,1
DA:1781,1
DA:1782,1
DA:1785,7
DA:1786,7
DA:1794,0
DA:1797,0
DA:1798,0
DA:1799,0
DA:1800,0
DA:1812,2
DA:1815,2
DA:1817,0
DA:1818,0
DA:1822,2
DA:1823,2
DA:1829,0
DA:1835,0
DA:1836,0
DA:1837,0
DA:1838,0
DA:1839,0
DA:1840,0
DA:1841,0
DA:1842,0
DA:1843,0
DA:1851,0
DA:1854,0
DA:1855,0
DA:1857,0
DA:1863,0
DA:1868,0
DA:1869,0
DA:1870,0
DA:1876,2
DA:1880,2
DA:1882,0
DA:1884,0
DA:1885,0
DA:1887,0
DA:1889,0
DA:1890,0
DA:1891,0
DA:1900,2
DA:1903,2
DA:1905,2
DA:1906,2
DA:1908,2
DA:1910,2
DA:4762,2
DA:4772,2
DA:4773,2
LF:85
LH:31
end_of_record
TN:
SF:/usr/include/c++/14/bits/stl_algobase.h
FNL:0,1040,1040
FNA:0,51,_ZSt17__size_to_integerm
FNL:1,1140,1153
FNA:1,20,_ZSt10__fill_n_aIPimiET_S1_T0_RKT1_St26random_access_iterator_tag
FNA:1,31,_ZSt10__fill_n_aIPxmxET_S1_T0_RKT1_St26random_access_iterator_tag
FNL:2,1175,1182
FNA:2,20,_ZSt6fill_nIPimiET_S1_T0_RKT1_
FNA:2,31,_ZSt6fill_nIPxmxET_S1_T0_RKT1_
FNL:3,1544,1557
FNA:3,2,_ZSt4__lgIlET_S0_
FNL:4,155,187
FNA:4,0,_ZSt9iter_swapIN9__gnu_cxx17__normal_iteratorIPxSt6vectorIxSaIxEEEES6_EvT_T0_
FNL:5,233,241
FNA:5,107,_ZSt3minImERKT_S2_S2_
FNL:6,257,265
FNA:6,8,_ZSt3maxImERKT_S2_S2_
FNL:7,316,318
FNA:7,210,_ZSt12__niter_baseIPiET_S1_
FNA:7,237,_ZSt12__niter_baseIPxET_S1_
FNL:8,346,347
FNA:8,2,_ZSt12__niter_wrapIN9__gnu_cxx17__normal_iteratorIPxSt6vectorIxSaIxEEEES2_ET_S7_T0_
FNL:9,353,354
FNA:9,210,_ZSt12__niter_wrapIPiET_RKS1_S1_
FNA:9,211,_ZSt12__niter_wrapIPxET_RKS1_S1_
FNL:10,398,408
FNA:10,0,_ZNSt11__copy_moveILb0ELb0ESt26random_access_iterator_tagE8__copy_mIPKiPiEET0_T_S7_S6_
FNA:10,0,_ZNSt11__copy_moveILb0ELb0ESt26random_access_iterator_tagE8__copy_mIPKxPxEET0_T_S7_S6_
FNA:10,0,_ZNSt11__copy_moveILb0ELb0ESt26random_access_iterator_tagE8__copy_mIPxS3_EET0_T_S5_S4_
FNL:11,412,413
FNA:11,0,_ZNSt11__copy_moveILb0ELb0ESt26random_access_iterator_tagE12__assign_oneIiKiEEvPT_PT0_
FNA:11,0,_ZNSt11__copy_moveILb0ELb0ESt26random_access_iterator_tagE12__assign_oneIxKxEEvPT_PT0_
FNA:11,0,_ZNSt11__copy_moveILb0ELb0ESt26random_access_iterator_tagE12__assign_oneIxxEEvPT_PT0_
FNL:12,437,438
FNA:12,0,_ZNSt11__copy_moveILb1ELb0ESt26random_access_iterator_tagE12__assign_oneIxxEEvPT_PT0_
FNL:13,448,457
FNA:13,210,_ZNSt11__copy_moveILb0ELb1ESt26random_access_iterator_tagE8__copy_mIKiiEEPT0_PT_S7_S5_
FNA:13,212,_ZNSt11__copy_moveILb0ELb1ESt26random_access_iterator_tagE8__copy_mIKxxEEPT0_PT_S7_S5_
FNA:13,0,_ZNSt11__copy_moveILb0ELb1ESt26random_access_iterator_tagE8__copy_mIxxEEPT0_PT_S6_S4_
FNL:14,512,522
FNA:14,210,_ZSt14__copy_move_a2ILb0EPKiPiET1_T0_S4_S3_
FNA:14,212,_ZSt14__copy_move_a2ILb0EPKxPxET1_T0_S4_S3_
FNA:14,0,_ZSt14__copy_move_a2ILb0EPxS0_ET1_T0_S2_S1_
FNL:15,547,548
FNA:15,210,_ZSt14__copy_move_a1ILb0EPKiPiET1_T0_S4_S3_
FNA:15,212,_ZSt14__copy_move_a1ILb0EPKxPxET1_T0_S4_S3_
FNA:15,0,_ZSt14__copy_move_a1ILb0EPxS0_ET1_T0_S2_S1_
FNL:16,553,559
FNA:16,210,_ZSt13__copy_move_aILb0EN9__gnu_cxx17__normal_iteratorIPKiSt6vectorIiSaIiEEEEPiET1_T0_SA_S9_
FNA:16,1,_ZSt13__copy_move_aILb0EN9__gnu_cxx17__normal_iteratorIPKxSt6vectorIxSaIxEEEENS1_IPxS6_EEET1_T0_SB_SA_
FNA:16,211,_ZSt13__copy_move_aILb0EN9__gnu_cxx17__normal_iteratorIPKxSt6vectorIxSaIxEEEEPxET1_T0_SA_S9_
FNA:16,0,_ZSt13__copy_move_aILb0EPxS0_ET1_T0_S2_S1_
FNL:17,642,652
FNA:17,210,_ZSt4copyIN9__gnu_cxx17__normal_iteratorIPKiSt6vectorIiSaIiEEEEPiET0_T_SA_S9_
FNA:17,1,_ZSt4copyIN9__gnu_cxx17__normal_iteratorIPKxSt6vectorIxSaIxEEEENS1_IPxS6_EEET0_T_SB_SA_
FNA:17,211,_ZSt4copyIN9__gnu_cxx17__normal_iteratorIPKxSt6vectorIxSaIxEEEEPxET0_T_SA_S9_
FNA:17,0,_ZSt4copyIPxS0_ET0_T_S2_S1_
FNL:18,745,752
FNA:18,0,_ZNSt20__copy_move_backwardILb1ELb0ESt26random_access_iterator_tagE13__copy_move_bIPxS3_EET0_T_S5_S4_
FNL:19,762,771
FNA:19,1,_ZNSt20__copy_move_backwardILb1ELb1ESt26random_access_iterator_tagE13__copy_move_bIxxEEPT0_PT_S6_S4_
FNL:20,777,790
FNA:20,1,_ZSt23__copy_move_backward_a2ILb1EPxS0_ET1_T0_S2_S1_
FNL:21,795,796
FNA:21,1,_ZSt23__copy_move_backward_a1ILb1EPxS0_ET1_T0_S2_S1_
FNL:22,823,829
FNA:22,1,_ZSt22__copy_move_backward_aILb1EN9__gnu_cxx17__normal_iteratorIPxSt6vectorIxSaIxEEEES6_ET1_T0_S8_S7_
FNL:23,913,925
FNA:23,1,_ZSt13move_backwardIN9__gnu_cxx17__normal_iteratorIPxSt6vectorIxSaIxEEEES6_ET0_T_S8_S7_
FNL:24,947,953
FNA:24,20,_ZSt9__fill_a1IPiiEN9__gnu_cxx11__enable_ifIXsrSt11__is_scalarIT0_E7__valueEvE6__typeET_S8_RKS4_
FNA:24,31,_ZSt9__fill_a1IPxxEN9__gnu_cxx11__enable_ifIXsrSt11__is_scalarIT0_E7__valueEvE6__typeET_S8_RKS4_
FNL:25,997,998
FNA:25,20,_ZSt8__fill_aIPiiEvT_S1_RKT0_
FNA:25,31,_ZSt8__fill_aIPxxEvT_S1_RKT0_
FNF:26
FNH:21
DA:155,0
DA:185,0
DA:187,0
DA:233,107
DA:238,107
DA:239,0
DA:240,107
DA:257,8
DA:262,8
DA:263,2
DA:264,6
DA:316,447
DA:318,447
DA:346,2
DA:347,2
DA:353,421
DA:354,421
DA:398,0
DA:401,0
DA:403,0
DA:404,0
DA:405,0
DA:407,0
DA:412,0
DA:413,0
DA:437,0
DA:438,0
DA:448,422
DA:450,422
DA:451,422
DA:452,422
DA:453,0
DA:455,0
DA:456,422
DA:512,422
DA:516,422
DA:518,0
DA:521,422
DA:547,422
DA:548,422
DA:553,422
DA:555,422
DA:558,422
DA:642,422
DA:651,422
DA:745,0
DA:748,0
DA:749,0
DA:750,0
DA:751,0
DA:762,1
DA:764,1
DA:765,1
DA:766,1
DA:767,0
DA:769,0
DA:770,1
DA:777,1
DA:781,1
DA:783,0
DA:787,1
DA:789,1
DA:795,1
DA:796,1
DA:823,1
DA:825,1
DA:828,1
DA:913,1
DA:922,1
DA:924,1
DA:947,51
DA:950,51
DA:951,470
DA:952,419
DA:953,51
DA:997,51
DA:998,51
DA:1040,51
DA:1140,51
DA:1146,51
DA:1147,0
DA:1151,51
DA:1152,51
DA:1175,51
DA:1180,51
DA:1181,102
DA:1544,2
DA:1547,2
LF:88
LH:62
end_of_record
TN:
SF:/usr/include/c++/14/bits/stl_construct.h
FNL:0,109,120
FNA:0,210,_ZSt10_ConstructISt6vectorIiSaIiEEJRKS2_EEvPT_DpOT0_
FNA:0,210,_ZSt10_ConstructISt6vectorIxSaIxEEJRKS2_EEvPT_DpOT0_
FNA:0,0,_ZSt10_ConstructIiJRKiEEvPT_DpOT0_
FNA:0,11,_ZSt10_ConstructIxJEEvPT_DpOT0_
FNA:0,0,_ZSt10_ConstructIxJRKxEEvPT_DpOT0_
FNA:0,0,_ZSt10_ConstructIxJRxEEvPT_DpOT0_
FNL:1,146,153
FNA:1,210,_ZSt8_DestroyISt6vectorIiSaIiEEEvPT_
FNA:1,210,_ZSt8_DestroyISt6vectorIxSaIxEEEvPT_
FNA:1,0,_ZSt8_DestroyIiEvPT_
FNA:1,0,_ZSt8_DestroyIxEvPT_
FNL:2,160,164
FNA:2,0,_ZNSt12_Destroy_auxILb0EE9__destroyIN9__gnu_cxx17__normal_iteratorIPxSt6vectorIxSaIxEEEEEEvT_S9_
FNA:2,20,_ZNSt12_Destroy_auxILb0EE9__destroyIPSt6vectorIiSaIiEEEEvT_S6_
FNA:2,20,_ZNSt12_Destroy_auxILb0EE9__destroyIPSt6vectorIxSaIxEEEEvT_S6_
FNA:2,0,_ZNSt12_Destroy_auxILb0EE9__destroyIPiEEvT_S3_
FNA:2,0,_ZNSt12_Destroy_auxILb0EE9__destroyIPxEEvT_S3_
FNL:3,172,172
FNA:3,1,_ZNSt12_Destroy_auxILb1EE9__destroyIN9__gnu_cxx17__normal_iteratorIPxSt6vectorIxSaIxEEEEEEvT_S9_
FNA:3,230,_ZNSt12_Destroy_auxILb1EE9__destroyIPiEEvT_S3_
FNA:3,245,_ZNSt12_Destroy_auxILb1EE9__destroyIPxEEvT_S3_
FNL:4,182,197
FNA:4,1,_ZSt8_DestroyIN9__gnu_cxx17__normal_iteratorIPxSt6vectorIxSaIxEEEEEvT_S7_
FNA:4,20,_ZSt8_DestroyIPSt6vectorIiSaIiEEEvT_S4_
FNA:4,20,_ZSt8_DestroyIPSt6vectorIxSaIxEEEvT_S4_
FNA:4,230,_ZSt8_DestroyIPiEvT_S1_
FNA:4,245,_ZSt8_DestroyIPxEvT_S1_
FNL:5,80,89
FNA:5,210,_ZSt10destroy_atISt6vectorIiSaIiEEEvPT_
FNA:5,210,_ZSt10destroy_atISt6vectorIxSaIxEEEvPT_
FNA:5,0,_ZSt10destroy_atIiEvPT_
FNA:5,0,_ZSt10destroy_atIxEvPT_
FNL:6,94,97
FNA:6,0,_ZSt12construct_atISt6vectorIiSaIiEEJRKS2_EEDTgsnwcvPvLi0E_T_pispcl7declvalIT0_EEEEPS6_DpOS7_
FNA:6,0,_ZSt12construct_atISt6vectorIxSaIxEEJRKS2_EEDTgsnwcvPvLi0E_T_pispcl7declvalIT0_EEEEPS6_DpOS7_
FNA:6,0,_ZSt12construct_atIiJRKiEEDTgsnwcvPvLi0E_T_pispcl7declvalIT0_EEEEPS3_DpOS4_
FNA:6,0,_ZSt12construct_atIxJEEDTgsnwcvPvLi0E_T_pispcl7declvalIT0_EEEEPS1_DpOS2_
FNA:6,0,_ZSt12construct_atIxJRKxEEDTgsnwcvPvLi0E_T_pispcl7declvalIT0_EEEEPS3_DpOS4_
FNA:6,0,_ZSt12construct_atIxJRxEEDTgsnwcvPvLi0E_T_pispcl7declvalIT0_EEEEPS2_DpOS3_
FNA:6,10,_ZSt12construct_atIxJxEEDTgsnwcvPvLi0E_T_pispcl7declvalIT0_EEEEPS1_DpOS2_
FNF:7
FNH:7
DA:80,420
DA:88,420
DA:89,420
DA:94,10
DA:97,10
DA:109,431
DA:112,431
DA:115,0
DA:116,0
DA:119,431
DA:146,420
DA:149,420
DA:153,420
DA:160,40
DA:162,460
DA:163,420
DA:164,40
DA:172,476
DA:182,516
DA:192,516
DA:193,0
DA:196,516
LF:22
LH:19
end_of_record
TN:
SF:/usr/include/c++/14/bits/stl_heap.h
FNL:0,135,147
FNA:0,0,_ZSt11__push_heapIN9__gnu_cxx17__normal_iteratorIPxSt6vectorIxSaIxEEEElxNS0_5__ops14_Iter_less_valEEvT_T0_SA_T1_RT2_
FNL:1,224,249
FNA:1,0,_ZSt13__adjust_heapIN9__gnu_cxx17__normal_iteratorIPxSt6vectorIxSaIxEEEElxNS0_5__ops15_Iter_less_iterEEvT_T0_SA_T1_T2_
FNL:2,254,267
FNA:2,0,_ZSt10__pop_heapIN9__gnu_cxx17__normal_iteratorIPxSt6vectorIxSaIxEEEENS0_5__ops15_Iter_less_iterEEvT_S9_S9_RT0_
FNL:3,340,362
FNA:3,0,_ZSt11__make_heapIN9__gnu_cxx17__normal_iteratorIPxSt6vectorIxSaIxEEEENS0_5__ops15_Iter_less_iterEEvT_S9_RT0_
FNL:4,419,427
FNA:4,0,_ZSt11__sort_heapIN9__gnu_cxx17__normal_iteratorIPxSt6vectorIxSaIxEEEENS0_5__ops15_Iter_less_iterEEvT_S9_RT0_
FNF:5
FNH:0
DA:135,0
DA:139,0
DA:140,0
DA:142,0
DA:143,0
DA:144,0
DA:146,0
DA:147,0
DA:224,0
DA:227,0
DA:228,0
DA:229,0
DA:231,0
DA:232,0
DA:234,0
DA:235,0
DA:236,0
DA:238,0
DA:240,0
DA:241,0
DA:243,0
DA:247,0
DA:248,0
DA:249,0
DA:254,0
DA:262,0
DA:263,0
DA:264,0
DA:265,0
DA:266,0
DA:267,0
DA:340,0
DA:348,0
DA:349,0
DA:351,0
DA:352,0
DA:353,0
DA:355,0
DA:356,0
DA:358,0
DA:359,0
DA:360,0
DA:419,0
DA:422,0
DA:424,0
DA:425,0
DA:427,0
LF:47
LH:0
end_of_record
TN:
SF:/usr/include/c++/14/bits/stl_iterator.h
FNL:0,1067,1068
FNA:0,420,_ZN9__gnu_cxx17__normal_iteratorIPKiSt6vectorIiSaIiEEEC2ERKS2_
FNA:0,424,_ZN9__gnu_cxx17__normal_iteratorIPKxSt6vectorIxSaIxEEEC2ERKS2_
FNA:0,49,_ZN9__gnu_cxx17__normal_iteratorIPxSt6vectorIxSaIxEEEC2ERKS1_
FNA:0,0,_ZN9__gnu_cxx17__normal_iteratorIPxvEC2ERKS1_
FNL:1,1090,1091
FNA:1,0,_ZNK9__gnu_cxx17__normal_iteratorIPKiSt6vectorIiSaIiEEEdeEv
FNA:1,0,_ZNK9__gnu_cxx17__normal_iteratorIPKxSt6vectorIxSaIxEEEdeEv
FNA:1,54,_ZNK9__gnu_cxx17__normal_iteratorIPxSt6vectorIxSaIxEEEdeEv
FNA:1,0,_ZNK9__gnu_cxx17__normal_iteratorIPxvEdeEv
FNL:2,1100,1104
FNA:2,0,_ZN9__gnu_cxx17__normal_iteratorIPKiSt6vectorIiSaIiEEEppEv
FNA:2,0,_ZN9__gnu_cxx17__normal_iteratorIPKxSt6vectorIxSaIxEEEppEv
FNA:2,13,_ZN9__gnu_cxx17__normal_iteratorIPxSt6vectorIxSaIxEEEppEv
FNA:2,0,_ZN9__gnu_cxx17__normal_iteratorIPxvEppEv
FNL:3,1114,1118
FNA:3,7,_ZN9__gnu_cxx17__normal_iteratorIPxSt6vectorIxSaIxEEEmmEv
FNL:4,1138,1139
FNA:4,5,_ZNK9__gnu_cxx17__normal_iteratorIPxSt6vectorIxSaIxEEEplEl
FNL:5,1148,1149
FNA:5,10,_ZNK9__gnu_cxx17__normal_iteratorIPxSt6vectorIxSaIxEEEmiEl
FNL:6,1153,1154
FNA:6,420,_ZNK9__gnu_cxx17__normal_iteratorIPKiSt6vectorIiSaIiEEE4baseEv
FNA:6,424,_ZNK9__gnu_cxx17__normal_iteratorIPKxSt6vectorIxSaIxEEE4baseEv
FNA:6,74,_ZNK9__gnu_cxx17__normal_iteratorIPxSt6vectorIxSaIxEEE4baseEv
FNA:6,0,_ZNK9__gnu_cxx17__normal_iteratorIPxvE4baseEv
FNL:7,1188,1194
FNA:7,0,_ZN9__gnu_cxxeqIPKiSt6vectorIiSaIiEEEEbRKNS_17__normal_iteratorIT_T0_EESB_QrqXeqcldtfL0p_4baseEcldtfL0p0_4baseERSt14convertible_toIbEE
FNA:7,0,_ZN9__gnu_cxxeqIPKxSt6vectorIxSaIxEEEEbRKNS_17__normal_iteratorIT_T0_EESB_QrqXeqcldtfL0p_4baseEcldtfL0p0_4baseERSt14convertible_toIbEE
FNA:7,20,_ZN9__gnu_cxxeqIPxSt6vectorIxSaIxEEEEbRKNS_17__normal_iteratorIT_T0_EESA_QrqXeqcldtfL0p_4baseEcldtfL0p0_4baseERSt14convertible_toIbEE
FNL:8,1199,1202
FNA:8,0,_ZN9__gnu_cxxssIPxSt6vectorIxSaIxEEEEDTclL_ZNSt8__detail11__synth3wayEEcl7declvalIRT_EEcl7declvalIS7_EEEERKNS_17__normal_iteratorIS6_T0_EESD_
FNL:9,1325,1328
FNA:9,14,_ZN9__gnu_cxxmiIPxSt6vectorIxSaIxEEEENS_17__normal_iteratorIT_T0_E15difference_typeERKS8_SB_
FNL:10,1348,1350
FNA:10,420,_ZSt12__niter_baseIPKiSt6vectorIiSaIiEEET_N9__gnu_cxx17__normal_iteratorIS5_T0_EE
FNA:10,424,_ZSt12__niter_baseIPKxSt6vectorIxSaIxEEET_N9__gnu_cxx17__normal_iteratorIS5_T0_EE
FNA:10,6,_ZSt12__niter_baseIPxSt6vectorIxSaIxEEET_N9__gnu_cxx17__normal_iteratorIS4_T0_EE
FNF:11
FNH:10
DA:1067,893
DA:1068,893
DA:1090,54
DA:1091,54
DA:1100,13
DA:1102,13
DA:1103,13
DA:1114,7
DA:1116,7
DA:1117,7
DA:1138,5
DA:1139,5
DA:1148,10
DA:1149,10
DA:1153,918
DA:1154,918
DA:1188,20
DA:1194,20
DA:1199,0
DA:1202,0
DA:1325,14
DA:1328,14
DA:1348,850
DA:1350,850
LF:24
LH:22
end_of_record
TN:
SF:/usr/include/c++/14/bits/stl_iterator_base_types.h
FNF:0
FNH:0
DA:240,51
LF:1
LH:1
end_of_record
TN:
SF:/usr/include/c++/14/bits/stl_uninitialized.h
FNL:0,1067,1077
FNA:0,0,_ZSt19__relocate_object_aIxxSaIxEEvPT_PT0_RT1_
FNL:1,1089,1106
FNA:1,0,_ZSt14__relocate_a_1IPxN9__gnu_cxx17__normal_iteratorIS0_vEESaIxEET0_T_S6_S5_RT1_
FNL:2,1112,1132
FNA:2,8,_ZSt14__relocate_a_1IxxENSt9enable_ifIXsrSt24__is_bitwise_relocatableIT_vE5valueEPS2_E4typeES4_S4_S4_RSaIT0_E
FNL:3,113,128
FNA:3,0,_ZSt16__do_uninit_copyIN9__gnu_cxx17__normal_iteratorIPKiSt6vectorIiSaIiEEEEPiET0_T_SA_S9_
FNA:3,0,_ZSt16__do_uninit_copyIN9__gnu_cxx17__normal_iteratorIPKxSt6vectorIxSaIxEEEEPxET0_T_SA_S9_
FNA:3,0,_ZSt16__do_uninit_copyIPxS0_ET0_T_S2_S1_
FNL:4,1139,1148
FNA:4,8,_ZSt12__relocate_aIPxS0_SaIxEET0_T_S3_S2_RT1_
FNL:5,145,147
FNA:5,210,_ZNSt20__uninitialized_copyILb1EE13__uninit_copyIN9__gnu_cxx17__normal_iteratorIPKiSt6vectorIiSaIiEEEEPiEET0_T_SC_SB_
FNA:5,211,_ZNSt20__uninitialized_copyILb1EE13__uninit_copyIN9__gnu_cxx17__normal_iteratorIPKxSt6vectorIxSaIxEEEEPxEET0_T_SC_SB_
FNA:5,0,_ZNSt20__uninitialized_copyILb1EE13__uninit_copyIPxS2_EET0_T_S4_S3_
FNL:6,163,186
FNA:6,210,_ZSt18uninitialized_copyIN9__gnu_cxx17__normal_iteratorIPKiSt6vectorIiSaIiEEEEPiET0_T_SA_S9_
FNA:6,211,_ZSt18uninitialized_copyIN9__gnu_cxx17__normal_iteratorIPKxSt6vectorIxSaIxEEEEPxET0_T_SA_S9_
FNA:6,0,_ZSt18uninitialized_copyIPxS0_ET0_T_S2_S1_
FNL:7,261,275
FNA:7,20,_ZSt18__do_uninit_fill_nIPSt6vectorIiSaIiEEmS2_ET_S4_T0_RKT1_
FNA:7,20,_ZSt18__do_uninit_fill_nIPSt6vectorIxSaIxEEmS2_ET_S4_T0_RKT1_
FNA:7,0,_ZSt18__do_uninit_fill_nIPimiET_S1_T0_RKT1_
FNA:7,0,_ZSt18__do_uninit_fill_nIPxmxET_S1_T0_RKT1_
FNL:8,282,284
FNA:8,20,_ZNSt22__uninitialized_fill_nILb0EE15__uninit_fill_nIPSt6vectorIiSaIiEEmS4_EET_S6_T0_RKT1_
FNA:8,20,_ZNSt22__uninitialized_fill_nILb0EE15__uninit_fill_nIPSt6vectorIxSaIxEEmS4_EET_S6_T0_RKT1_
FNL:9,292,294
FNA:9,20,_ZNSt22__uninitialized_fill_nILb1EE15__uninit_fill_nIPimiEET_S3_T0_RKT1_
FNA:9,20,_ZNSt22__uninitialized_fill_nILb1EE15__uninit_fill_nIPxmxEET_S3_T0_RKT1_
FNL:10,312,328
FNA:10,20,_ZSt20uninitialized_fill_nIPSt6vectorIiSaIiEEmS2_ET_S4_T0_RKT1_
FNA:10,20,_ZSt20uninitialized_fill_nIPSt6vectorIxSaIxEEmS2_ET_S4_T0_RKT1_
FNA:10,20,_ZSt20uninitialized_fill_nIPimiET_S1_T0_RKT1_
FNA:10,20,_ZSt20uninitialized_fill_nIPxmxET_S1_T0_RKT1_
FNL:11,366,374
FNA:11,210,_ZSt22__uninitialized_copy_aIN9__gnu_cxx17__normal_iteratorIPKiSt6vectorIiSaIiEEEEPiiET0_T_SA_S9_RSaIT1_E
FNA:11,211,_ZSt22__uninitialized_copy_aIN9__gnu_cxx17__normal_iteratorIPKxSt6vectorIxSaIxEEEEPxxET0_T_SA_S9_RSaIT1_E
FNA:11,0,_ZSt22__uninitialized_copy_aIPxS0_xET0_T_S2_S1_RSaIT1_E
FNL:12,465,473
FNA:12,20,_ZSt24__uninitialized_fill_n_aIPSt6vectorIiSaIiEEmS2_S2_ET_S4_T0_RKT1_RSaIT2_E
FNA:12,20,_ZSt24__uninitialized_fill_n_aIPSt6vectorIxSaIxEEmS2_S2_ET_S4_T0_RKT1_RSaIT2_E
FNA:12,20,_ZSt24__uninitialized_fill_n_aIPimiiET_S1_T0_RKT1_RSaIT2_E
FNA:12,20,_ZSt24__uninitialized_fill_n_aIPxmxxET_S1_T0_RKT1_RSaIT2_E
FNL:13,637,651
FNA:13,0,_ZNSt27__uninitialized_default_n_1ILb0EE18__uninit_default_nIPxmEET_S3_T0_
FNL:14,660,671
FNA:14,11,_ZNSt27__uninitialized_default_n_1ILb1EE18__uninit_default_nIPxmEET_S3_T0_
FNL:15,696,713
FNA:15,11,_ZSt25__uninitialized_default_nIPxmET_S1_T0_
FNL:16,777,779
FNA:16,11,_ZSt27__uninitialized_default_n_aIPxmxET_S1_T0_RSaIT1_E
FNF:17
FNH:13
DA:113,0
DA:116,0
DA:119,0
DA:120,0
DA:121,0
DA:145,421
DA:147,421
DA:163,421
DA:174,421
DA:181,421
DA:185,421
DA:261,40
DA:263,40
DA:266,460
DA:267,420
DA:268,40
DA:270,0
DA:272,0
DA:273,0
DA:282,40
DA:284,40
DA:292,40
DA:294,40
DA:312,80
DA:319,80
DA:327,80
DA:366,421
DA:370,421
DA:371,0
DA:373,421
DA:465,80
DA:469,80
DA:470,0
DA:472,80
DA:637,0
DA:639,0
DA:642,0
DA:643,0
DA:644,0
DA:660,11
DA:662,11
DA:665,11
DA:666,11
DA:667,11
DA:668,11
DA:670,11
DA:696,11
DA:699,11
DA:701,0
DA:707,11
DA:712,11
DA:777,11
DA:779,11
DA:1067,0
DA:1075,0
DA:1076,0
DA:1077,0
DA:1089,0
DA:1101,0
DA:1102,0
DA:1103,0
DA:1105,0
DA:1112,8
DA:1116,8
DA:1117,8
DA:1120,6
DA:1124,0
DA:1125,0
DA:1126,0
DA:1129,6
DA:1131,8
DA:1139,8
DA:1145,8
DA:1147,8
LF:74
LH:46
end_of_record
TN:
SF:/usr/include/c++/14/bits/stl_vector.h
FNL:0,1078,1082
FNA:0,2,_ZNKSt6vectorIxSaIxEE8capacityEv
FNL:1,1128,1132
FNA:1,1267,_ZNSt6vectorIS_IiSaIiEESaIS1_EEixEm
FNA:1,8219,_ZNSt6vectorIS_IxSaIxEESaIS1_EEixEm
FNA:1,1267,_ZNSt6vectorIiSaIiEEixEm
FNA:1,12884,_ZNSt6vectorIxSaIxEEixEm
FNL:2,1235,1239
FNA:2,10,_ZNSt6vectorIxSaIxEE4backEv
FNL:3,1300,1301
FNA:3,10,_ZNSt6vectorIxSaIxEE9push_backEOx
FNL:4,145,147
FNA:4,20,_ZNSt12_Vector_baseISt6vectorIiSaIiEESaIS2_EE12_Vector_implC2ERKS3_
FNA:4,20,_ZNSt12_Vector_baseISt6vectorIxSaIxEESaIS2_EE12_Vector_implC2ERKS3_
FNA:4,230,_ZNSt12_Vector_baseIiSaIiEE12_Vector_implC2ERKS0_
FNA:4,241,_ZNSt12_Vector_baseIxSaIxEE12_Vector_implC2ERKS0_
FNL:5,1607,1608
FNA:5,0,_ZNSt6vectorIxSaIxEE5clearEv
FNL:6,1618,1633
FNA:6,1,_ZNSt6vectorIxSaIxEE20_M_allocate_and_copyIN9__gnu_cxx17__normal_iteratorIPKxS1_EEEEPxmT_S9_
FNL:7,1706,1711
FNA:7,20,_ZNSt6vectorIS_IiSaIiEESaIS1_EE18_M_fill_initializeEmRKS1_
FNA:7,20,_ZNSt6vectorIS_IxSaIxEESaIS1_EE18_M_fill_initializeEmRKS1_
FNA:7,20,_ZNSt6vectorIiSaIiEE18_M_fill_initializeEmRKi
FNA:7,20,_ZNSt6vectorIxSaIxEE18_M_fill_initializeEmRKx
FNL:8,1717,1722
FNA:8,11,_ZNSt6vectorIxSaIxEE21_M_default_initializeEm
FNL:9,1906,1913
FNA:9,8,_ZNKSt6vectorIxSaIxEE12_M_check_lenEmPKc
FNL:10,1917,1923
FNA:10,20,_ZNSt6vectorIS_IiSaIiEESaIS1_EE17_S_check_init_lenEmRKS2_
FNA:10,20,_ZNSt6vectorIS_IxSaIxEESaIS1_EE17_S_check_init_lenEmRKS2_
FNA:10,20,_ZNSt6vectorIiSaIiEE17_S_check_init_lenEmRKS0_
FNA:10,31,_ZNSt6vectorIxSaIxEE17_S_check_init_lenEmRKS0_
FNL:11,1926,1935
FNA:11,20,_ZNSt6vectorIS_IiSaIiEESaIS1_EE11_S_max_sizeERKS2_
FNA:11,20,_ZNSt6vectorIS_IxSaIxEESaIS1_EE11_S_max_sizeERKS2_
FNA:11,20,_ZNSt6vectorIiSaIiEE11_S_max_sizeERKS0_
FNA:11,47,_ZNSt6vectorIxSaIxEE11_S_max_sizeERKS0_
FNL:12,1943,1952
FNA:12,0,_ZNSt6vectorIxSaIxEE15_M_erase_at_endEPx
FNL:13,300,301
FNA:13,40,_ZNSt12_Vector_baseISt6vectorIiSaIiEESaIS2_EE19_M_get_Tp_allocatorEv
FNA:13,40,_ZNSt12_Vector_baseISt6vectorIxSaIxEESaIS2_EE19_M_get_Tp_allocatorEv
FNA:13,460,_ZNSt12_Vector_baseIiSaIiEE19_M_get_Tp_allocatorEv
FNA:13,496,_ZNSt12_Vector_baseIxSaIxEE19_M_get_Tp_allocatorEv
FNL:14,305,306
FNA:14,210,_ZNKSt12_Vector_baseIiSaIiEE19_M_get_Tp_allocatorEv
FNA:14,226,_ZNKSt12_Vector_baseIxSaIxEE19_M_get_Tp_allocatorEv
FNL:15,332,334
FNA:15,20,_ZNSt12_Vector_baseISt6vectorIiSaIiEESaIS2_EEC2EmRKS3_
FNA:15,20,_ZNSt12_Vector_baseISt6vectorIxSaIxEESaIS2_EEC2EmRKS3_
FNA:15,230,_ZNSt12_Vector_baseIiSaIiEEC2EmRKS0_
FNA:15,241,_ZNSt12_Vector_baseIxSaIxEEC2EmRKS0_
FNL:16,366,370
FNA:16,20,_ZNSt12_Vector_baseISt6vectorIiSaIiEESaIS2_EED2Ev
FNA:16,20,_ZNSt12_Vector_baseISt6vectorIxSaIxEESaIS2_EED2Ev
FNA:16,230,_ZNSt12_Vector_baseIiSaIiEED2Ev
FNA:16,244,_ZNSt12_Vector_baseIxSaIxEED2Ev
FNL:17,377,381
FNA:17,20,_ZNSt12_Vector_baseISt6vectorIiSaIiEESaIS2_EE11_M_allocateEm
FNA:17,20,_ZNSt12_Vector_baseISt6vectorIxSaIxEESaIS2_EE11_M_allocateEm
FNA:17,230,_ZNSt12_Vector_baseIiSaIiEE11_M_allocateEm
FNA:17,250,_ZNSt12_Vector_baseIxSaIxEE11_M_allocateEm
FNL:18,385,390
FNA:18,20,_ZNSt12_Vector_baseISt6vectorIiSaIiEESaIS2_EE13_M_deallocateEPS2_m
FNA:18,20,_ZNSt12_Vector_baseISt6vectorIxSaIxEESaIS2_EE13_M_deallocateEPS2_m
FNA:18,230,_ZNSt12_Vector_baseIiSaIiEE13_M_deallocateEPim
FNA:18,245,_ZNSt12_Vector_baseIxSaIxEE13_M_deallocateEPxm
FNL:19,396,401
FNA:19,20,_ZNSt12_Vector_baseISt6vectorIiSaIiEESaIS2_EE17_M_create_storageEm
FNA:19,20,_ZNSt12_Vector_baseISt6vectorIxSaIxEESaIS2_EE17_M_create_storageEm
FNA:19,230,_ZNSt12_Vector_baseIiSaIiEE17_M_create_storageEm
FNA:19,241,_ZNSt12_Vector_baseIxSaIxEE17_M_create_storageEm
FNL:20,504,514
FNA:20,8,_ZNSt6vectorIxSaIxEE11_S_relocateEPxS2_S2_RS0_
FNL:21,556,558
FNA:21,11,_ZNSt6vectorIxSaIxEEC2EmRKS0_
FNL:22,569,572
FNA:22,20,_ZNSt6vectorIS_IiSaIiEESaIS1_EEC2EmRKS1_RKS2_
FNA:22,20,_ZNSt6vectorIS_IxSaIxEESaIS1_EEC2EmRKS1_RKS2_
FNA:22,20,_ZNSt6vectorIiSaIiEEC2EmRKiRKS0_
FNA:22,20,_ZNSt6vectorIxSaIxEEC2EmRKxRKS0_
FNL:23,601,609
FNA:23,210,_ZNSt6vectorIiSaIiEEC2ERKS1_
FNA:23,210,_ZNSt6vectorIxSaIxEEC2ERKS1_
FNL:24,733,738
FNA:24,20,_ZNSt6vectorIS_IiSaIiEESaIS1_EED2Ev
FNA:24,20,_ZNSt6vectorIS_IxSaIxEESaIS1_EED2Ev
FNA:24,230,_ZNSt6vectorIiSaIiEED2Ev
FNA:24,244,_ZNSt6vectorIxSaIxEED2Ev
FNL:25,873,874
FNA:25,12,_ZNSt6vectorIxSaIxEE5beginEv
FNL:26,883,884
FNA:26,210,_ZNKSt6vectorIiSaIiEE5beginEv
FNA:26,212,_ZNKSt6vectorIxSaIxEE5beginEv
FNL:27,893,894
FNA:27,22,_ZNSt6vectorIxSaIxEE3endEv
FNL:28,903,904
FNA:28,210,_ZNKSt6vectorIiSaIiEE3endEv
FNA:28,212,_ZNKSt6vectorIxSaIxEE3endEv
FNL:29,98,100
FNA:29,20,_ZNSt12_Vector_baseISt6vectorIiSaIiEESaIS2_EE17_Vector_impl_dataC2Ev
FNA:29,20,_ZNSt12_Vector_baseISt6vectorIxSaIxEESaIS2_EE17_Vector_impl_dataC2Ev
FNA:29,230,_ZNSt12_Vector_baseIiSaIiEE17_Vector_impl_dataC2Ev
FNA:29,241,_ZNSt12_Vector_baseIxSaIxEE17_Vector_impl_dataC2Ev
FNL:30,992,993
FNA:30,210,_ZNKSt6vectorIiSaIiEE4sizeEv
FNA:30,245,_ZNKSt6vectorIxSaIxEE4sizeEv
FNL:31,998,999
FNA:31,16,_ZNKSt6vectorIxSaIxEE8max_sizeEv
FNF:32
FNH:30
DA:98,511
DA:99,511
DA:100,511
DA:145,511
DA:146,511
DA:147,511
DA:300,1036
DA:301,1036
DA:305,436
DA:306,436
DA:332,511
DA:333,511
DA:334,511
DA:366,514
DA:368,514
DA:369,514
DA:370,514
DA:377,520
DA:380,1040
DA:385,515
DA:388,515
DA:389,514
DA:390,515
DA:396,511
DA:398,511
DA:399,511
DA:400,511
DA:401,511
DA:504,8
DA:509,8
DA:556,11
DA:557,11
DA:558,11
DA:569,80
DA:571,80
DA:572,80
DA:601,420
DA:603,840
DA:605,420
DA:606,420
DA:608,420
DA:609,420
DA:733,514
DA:735,514
DA:736,514
DA:738,514
DA:873,12
DA:874,12
DA:883,422
DA:884,422
DA:893,22
DA:894,22
DA:903,422
DA:904,422
DA:992,455
DA:993,455
DA:998,16
DA:999,16
DA:1078,2
DA:1080,2
DA:1081,2
DA:1128,23637
DA:1131,23637
DA:1235,10
DA:1238,10
DA:1300,10
DA:1301,10
DA:1607,0
DA:1608,0
DA:1618,1
DA:1621,1
DA:1624,1
DA:1625,1
DA:1626,1
DA:1628,0
DA:1630,0
DA:1631,0
DA:1706,80
DA:1708,80
DA:1709,80
DA:1710,80
DA:1711,80
DA:1717,11
DA:1719,11
DA:1720,11
DA:1721,11
DA:1722,11
DA:1906,8
DA:1908,8
DA:1909,0
DA:1911,8
DA:1912,8
DA:1917,91
DA:1919,91
DA:1920,0
DA:1922,91
DA:1926,107
DA:1931,107
DA:1933,107
DA:1934,107
DA:1943,0
DA:1945,0
DA:1947,0
DA:1948,0
DA:1949,0
DA:1952,0
LF:106
LH:93
end_of_record
TN:
SF:/usr/include/c++/14/bits/vector.tcc
FNL:0,111,127
FNA:0,10,_ZNSt6vectorIxSaIxEE12emplace_backIJxEEERxDpOT_
FNL:1,210,265
FNA:1,2,_ZNSt6vectorIxSaIxEEaSERKS1_
FNL:2,581,695
FNA:2,8,_ZNSt6vectorIxSaIxEE17_M_realloc_appendIJxEEEvDpOT_
FNL:3,607,609
FNA:3,8,_ZZNSt6vectorIxSaIxEE17_M_realloc_appendIJxEEEvDpOT_EN6_GuardC2EPxmRS0_
FNL:4,612,617
FNA:4,8,_ZZNSt6vectorIxSaIxEE17_M_realloc_appendIJxEEEvDpOT_EN6_GuardD2Ev
FNF:5
FNH:5
DA:111,10
DA:114,10
DA:117,2
DA:119,2
DA:123,8
DA:125,10
DA:210,2
DA:213,2
DA:217,2
DA:219,0
DA:220,0
DA:223,0
DA:224,0
DA:225,0
DA:226,0
DA:227,0
DA:228,0
DA:229,0
DA:231,0
DA:232,0
DA:235,2
DA:236,2
DA:238,1
DA:240,1
DA:241,1
DA:242,1
DA:243,1
DA:244,1
DA:245,1
DA:246,1
DA:248,1
DA:250,2
DA:251,1
DA:255,0
DA:257,0
DA:258,0
DA:260,0
DA:262,2
DA:264,2
DA:581,8
DA:590,8
DA:591,8
DA:592,0
DA:593,8
DA:594,8
DA:595,8
DA:596,8
DA:597,8
DA:607,8
DA:608,8
DA:609,8
DA:612,8
DA:614,8
DA:616,6
DA:617,8
DA:624,8
DA:634,16
DA:635,8
DA:647,8
DA:648,8
DA:649,8
DA:686,8
DA:687,8
DA:688,8
DA:692,8
DA:693,8
DA:694,8
DA:695,8
LF:68
LH:52
end_of_record
TN:
SF:/usr/include/c++/14/compare
FNL:0,1224,1243
FNA:0,0,_ZNKSt8__detail10_Synth3wayclIPxS2_EEDaRKT_RKT0_QrqXltfL0p_fL0p0_RNS_18__boolean_testableEXltfL0p0_fL0p_RNS_18__boolean_testableEE
FNL:1,291,292
FNA:1,0,_ZStltSt15strong_orderingNSt9__cmp_cat8__unspecE
FNF:2
FNH:0
DA:291,0
DA:292,0
DA:1224,0
DA:1233,0
LF:4
LH:0
end_of_record
TN:
SF:/usr/include/c++/14/ext/alloc_traits.h
FNF:0
FNH:0
DA:98,420
DA:106,2
DA:118,0
LF:3
LH:2
end_of_record
TN:
SF:/usr/include/c++/14/new
FNL:0,179,180
FNA:0,441,_ZnwmPv
FNL:1,185,185
FNA:1,0,_ZdlPvS_
FNF:2
FNH:1
DA:179,441
DA:180,441
DA:185,0
LF:3
LH:2
end_of_record
TN:
SF:/usr/include/c++/14/type_traits
FNL:0,3832,3839
FNA:0,941,_ZSt21is_constant_evaluatedv
FNF:1
FNH:1
DA:3832,941
DA:3835,941
LF:2
LH:2
end_of_record
TN:
SF:/usr/include/c++/14/x86_64-redhat-linux/bits/c++config.h
FNF:0
FNH:0
DA:2394,1987
LF:1
LH:1
end_of_record
