TN:
SF:/home/monika/Documents/problems/15399번： Robots/main.cpp
FNL:0,13,23
FNA:0,2,_Z17calculateDistanceRKSt6vectorI12EnergySourceSaIS0_EE
FNL:1,25,46
FNA:1,1,main
FNF:2
FNH:2
DA:13,2
DA:15,2
DA:16,6
DA:18,4
DA:19,4
DA:22,2
DA:25,1
DA:27,1
DA:28,1
DA:30,1
DA:32,3
DA:34,2
DA:37,1
DA:38,1
DA:39,1
DA:41,1
DA:43,1
DA:45,1
DA:46,1
LF:19
LH:19
end_of_record
TN:
SF:/usr/include/c++/14/bit
FNF:0
FNH:0
DA:201,1
DA:204,1
DA:206,1
DA:209,1
DA:210,1
DA:211,1
DA:220,1
DA:221,1
DA:371,1
DA:373,1
DA:374,1
LF:11
LH:11
end_of_record
TN:
SF:/usr/include/c++/14/bits/alloc_traits.h
FNF:0
FNH:0
DA:514,1
DA:515,1
DA:549,1
DA:550,1
DA:990,1
LF:5
LH:5
end_of_record
TN:
SF:/usr/include/c++/14/bits/allocator.h
FNF:0
FNH:0
DA:161,1
DA:182,1
DA:187,1
DA:196,1
DA:201,1
DA:208,1
LF:6
LH:6
end_of_record
TN:
SF:/usr/include/c++/14/bits/ios_base.h
FNL:0,1104,1108
FNA:0,1,_ZSt5fixedRSt8ios_base
FNF:1
FNH:1
DA:84,1
DA:85,1
DA:89,1
DA:90,1
DA:104,1
DA:105,1
DA:109,1
DA:110,1
DA:726,1
DA:728,1
DA:729,1
DA:730,1
DA:731,1
DA:761,1
DA:763,1
DA:764,1
DA:765,1
DA:1104,1
DA:1106,1
DA:1107,1
LF:20
LH:20
end_of_record
TN:
SF:/usr/include/c++/14/bits/move.h
FNF:0
FNH:0
DA:226,0
DA:234,0
DA:235,0
DA:236,0
LF:4
LH:0
end_of_record
TN:
SF:/usr/include/c++/14/bits/new_allocator.h
FNL:0,126,152
FNA:0,1,_ZNSt15__new_allocatorI12EnergySourceE8allocateEmPKv
FNF:1
FNH:1
DA:126,1
DA:134,1
DA:138,0
DA:139,0
DA:140,0
DA:151,1
DA:156,1
DA:172,1
LF:8
LH:5
end_of_record
TN:
SF:/usr/include/c++/14/bits/predefined_ops.h
FNF:0
FNH:0
DA:157,1
DA:158,1
DA:195,0
DA:196,0
DA:239,0
DA:240,0
LF:6
LH:2
end_of_record
TN:
SF:/usr/include/c++/14/bits/stl_algo.h
FNL:0,1589,1597
FNA:0,0,_ZSt13__heap_selectIN9__gnu_cxx17__normal_iteratorIP12EnergySourceSt6vectorIS2_SaIS2_EEEENS0_5__ops15_Iter_comp_iterIZ4mainEUlRKS2_SB_E_EEEvT_SE_SE_T0_
FNL:1,1750,1764
FNA:1,0,_ZSt25__unguarded_linear_insertIN9__gnu_cxx17__normal_iteratorIP12EnergySourceSt6vectorIS2_SaIS2_EEEENS0_5__ops14_Val_comp_iterIZ4mainEUlRKS2_SB_E_EEEvT_T0_
FNL:2,1770,1788
FNA:2,1,_ZSt16__insertion_sortIN9__gnu_cxx17__normal_iteratorIP12EnergySourceSt6vectorIS2_SaIS2_EEEENS0_5__ops15_Iter_comp_iterIZ4mainEUlRKS2_SB_E_EEEvT_SE_T0_
FNL:3,1812,1823
FNA:3,1,_ZSt22__final_insertion_sortIN9__gnu_cxx17__normal_iteratorIP12EnergySourceSt6vectorIS2_SaIS2_EEEENS0_5__ops15_Iter_comp_iterIZ4mainEUlRKS2_SB_E_EEEvT_SE_T0_
FNL:4,1829,1845
FNA:4,0,_ZSt21__unguarded_partitionIN9__gnu_cxx17__normal_iteratorIP12EnergySourceSt6vectorIS2_SaIS2_EEEENS0_5__ops15_Iter_comp_iterIZ4mainEUlRKS2_SB_E_EEET_SE_SE_SE_T0_
FNL:5,1851,1858
FNA:5,0,_ZSt27__unguarded_partition_pivotIN9__gnu_cxx17__normal_iteratorIP12EnergySourceSt6vectorIS2_SaIS2_EEEENS0_5__ops15_Iter_comp_iterIZ4mainEUlRKS2_SB_E_EEET_SE_SE_T0_
FNL:6,1863,1870
FNA:6,0,_ZSt14__partial_sortIN9__gnu_cxx17__normal_iteratorIP12EnergySourceSt6vectorIS2_SaIS2_EEEENS0_5__ops15_Iter_comp_iterIZ4mainEUlRKS2_SB_E_EEEvT_SE_SE_T0_
FNL:7,1876,1893
FNA:7,1,_ZSt16__introsort_loopIN9__gnu_cxx17__normal_iteratorIP12EnergySourceSt6vectorIS2_SaIS2_EEEElNS0_5__ops15_Iter_comp_iterIZ4mainEUlRKS2_SB_E_EEEvT_SE_T0_T1_
FNL:8,1900,1910
FNA:8,1,_ZSt6__sortIN9__gnu_cxx17__normal_iteratorIP12EnergySourceSt6vectorIS2_SaIS2_EEEENS0_5__ops15_Iter_comp_iterIZ4mainEUlRKS2_SB_E_EEEvT_SE_T0_
FNL:9,85,103
FNA:9,0,_ZSt22__move_median_to_firstIN9__gnu_cxx17__normal_iteratorIP12EnergySourceSt6vectorIS2_SaIS2_EEEENS0_5__ops15_Iter_comp_iterIZ4mainEUlRKS2_SB_E_EEEvT_SE_SE_SE_T0_
FNF:10
FNH:4
DA:85,0
DA:88,0
DA:90,0
DA:91,0
DA:92,0
DA:93,0
DA:95,0
DA:97,0
DA:98,0
DA:99,0
DA:100,0
DA:102,0
DA:103,0
DA:1589,0
DA:1593,0
DA:1594,0
DA:1595,0
DA:1596,0
DA:1597,0
DA:1750,0
DA:1754,0
DA:1755,0
DA:1756,0
DA:1757,0
DA:1759,0
DA:1760,0
DA:1761,0
DA:1763,0
DA:1764,0
DA:1770,1
DA:1773,1
DA:1775,2
DA:1777,1
DA:1780,1
DA:1781,1
DA:1782,1
DA:1785,0
DA:1794,0
DA:1797,0
DA:1798,0
DA:1812,1
DA:1815,1
DA:1817,0
DA:1818,0
DA:1822,1
DA:1823,1
DA:1829,0
DA:1833,0
DA:1835,0
DA:1836,0
DA:1837,0
DA:1838,0
DA:1839,0
DA:1840,0
DA:1841,0
DA:1842,0
DA:1843,0
DA:1851,0
DA:1854,0
DA:1855,0
DA:1857,0
DA:1863,0
DA:1868,0
DA:1869,0
DA:1870,0
DA:1876,1
DA:1880,1
DA:1882,0
DA:1884,0
DA:1885,0
DA:1887,0
DA:1889,0
DA:1890,0
DA:1891,0
DA:1900,1
DA:1903,1
DA:1905,1
DA:1906,2
DA:1908,1
DA:1910,1
DA:4793,1
DA:4805,1
LF:82
LH:21
end_of_record
TN:
SF:/usr/include/c++/14/bits/stl_algobase.h
FNL:0,762,771
FNA:0,1,_ZNSt20__copy_move_backwardILb1ELb1ESt26random_access_iterator_tagE13__copy_move_bI12EnergySourceS3_EEPT0_PT_S7_S5_
FNF:1
FNH:1
DA:155,0
DA:185,0
DA:346,1
DA:347,1
DA:437,1
DA:438,1
DA:762,1
DA:764,1
DA:765,1
DA:766,0
DA:767,1
DA:769,1
DA:770,1
DA:777,1
DA:787,1
DA:795,1
DA:796,1
DA:823,1
DA:825,1
DA:913,1
DA:922,1
DA:936,1
DA:939,2
DA:940,1
DA:997,1
DA:998,1
DA:1140,1
DA:1146,1
DA:1151,1
DA:1175,1
DA:1180,1
DA:1544,1
DA:1547,2
LF:33
LH:30
end_of_record
TN:
SF:/usr/include/c++/14/bits/stl_construct.h
FNF:0
FNH:0
DA:109,1
DA:119,1
LF:2
LH:2
end_of_record
TN:
SF:/usr/include/c++/14/bits/stl_heap.h
FNL:0,135,147
FNA:0,0,_ZSt11__push_heapIN9__gnu_cxx17__normal_iteratorIP12EnergySourceSt6vectorIS2_SaIS2_EEEElS2_NS0_5__ops14_Iter_comp_valIZ4mainEUlRKS2_SB_E_EEEvT_T0_SF_T1_RT2_
FNL:1,224,249
FNA:1,0,_ZSt13__adjust_heapIN9__gnu_cxx17__normal_iteratorIP12EnergySourceSt6vectorIS2_SaIS2_EEEElS2_NS0_5__ops15_Iter_comp_iterIZ4mainEUlRKS2_SB_E_EEEvT_T0_SF_T1_T2_
FNL:2,254,267
FNA:2,0,_ZSt10__pop_heapIN9__gnu_cxx17__normal_iteratorIP12EnergySourceSt6vectorIS2_SaIS2_EEEENS0_5__ops15_Iter_comp_iterIZ4mainEUlRKS2_SB_E_EEEvT_SE_SE_RT0_
FNL:3,340,362
FNA:3,0,_ZSt11__make_heapIN9__gnu_cxx17__normal_iteratorIP12EnergySourceSt6vectorIS2_SaIS2_EEEENS0_5__ops15_Iter_comp_iterIZ4mainEUlRKS2_SB_E_EEEvT_SE_RT0_
FNL:4,419,427
FNA:4,0,_ZSt11__sort_heapIN9__gnu_cxx17__normal_iteratorIP12EnergySourceSt6vectorIS2_SaIS2_EEEENS0_5__ops15_Iter_comp_iterIZ4mainEUlRKS2_SB_E_EEEvT_SE_RT0_
FNF:5
FNH:0
DA:135,0
DA:139,0
DA:140,0
DA:142,0
DA:143,0
DA:144,0
DA:146,0
DA:147,0
DA:224,0
DA:227,0
DA:228,0
DA:229,0
DA:231,0
DA:232,0
DA:234,0
DA:235,0
DA:236,0
DA:238,0
DA:240,0
DA:241,0
DA:243,0
DA:247,0
DA:249,0
DA:254,0
DA:262,0
DA:263,0
DA:264,0
DA:265,0
DA:266,0
DA:267,0
DA:340,0
DA:348,0
DA:351,0
DA:352,0
DA:353,0
DA:355,0
DA:356,0
DA:358,0
DA:359,0
DA:360,0
DA:419,0
DA:422,0
DA:424,0
DA:425,0
DA:427,0
LF:45
LH:0
end_of_record
TN:
SF:/usr/include/c++/14/bits/stl_iterator.h
FNF:0
FNH:0
DA:1067,6
DA:1068,3
DA:1090,0
DA:1100,5
DA:1102,0
DA:1103,5
DA:1114,0
DA:1116,0
DA:1117,0
DA:1138,1
DA:1139,2
DA:1148,0
DA:1149,0
DA:1199,0
DA:1202,0
DA:1325,3
DA:1328,3
LF:17
LH:8
end_of_record
TN:
SF:/usr/include/c++/14/bits/stl_uninitialized.h
FNL:0,660,671
FNA:0,1,_ZNSt27__uninitialized_default_n_1ILb1EE18__uninit_default_nIP12EnergySourcemEET_S4_T0_
FNF:1
FNH:1
DA:660,1
DA:662,1
DA:664,1
DA:666,1
DA:667,1
DA:668,1
DA:670,1
DA:696,1
DA:707,1
DA:712,1
DA:777,1
DA:779,1
LF:12
LH:12
end_of_record
TN:
SF:/usr/include/c++/14/bits/stl_vector.h
FNL:0,366,370
FNA:0,1,_ZNSt12_Vector_baseI12EnergySourceSaIS0_EED2Ev
FNL:1,396,401
FNA:1,1,_ZNSt12_Vector_baseI12EnergySourceSaIS0_EE17_M_create_storageEm
FNL:2,556,558
FNA:2,1,_ZNSt6vectorI12EnergySourceSaIS0_EEC2EmRKS1_
FNF:3
FNH:3
DA:98,1
DA:99,1
DA:132,1
DA:145,1
DA:146,1
DA:300,1
DA:332,1
DA:333,1
DA:334,1
DA:366,1
DA:368,2
DA:369,1
DA:370,1
DA:377,1
DA:380,1
DA:385,1
DA:388,1
DA:389,1
DA:396,1
DA:398,1
DA:399,1
DA:400,1
DA:401,1
DA:556,1
DA:557,1
DA:558,1
DA:733,1
DA:735,1
DA:736,1
DA:738,1
DA:873,1
DA:874,1
DA:883,2
DA:884,2
DA:893,1
DA:894,1
DA:903,2
DA:904,2
DA:1128,2
DA:1131,2
DA:1717,1
DA:1719,1
DA:1720,2
DA:1721,1
DA:1917,1
DA:1919,1
DA:1920,0
LF:47
LH:46
end_of_record
TN:
SF:/usr/include/c++/14/compare
FNF:0
FNH:0
DA:1224,0
DA:1233,0
LF:2
LH:0
end_of_record
TN:
SF:/usr/include/c++/14/iomanip
FNF:0
FNH:0
DA:215,1
DA:217,1
LF:2
LH:2
end_of_record
TN:
SF:/usr/include/c++/14/ostream
FNF:0
FNH:0
DA:135,1
DA:140,1
DA:228,1
DA:229,1
LF:4
LH:4
end_of_record
