TN:
SF:/home/monika/Documents/problems/17543번： Bracket Sequence/main.cpp
FNL:0,22,78
FNA:0,1,main
FNF:1
FNH:1
DA:22,1
DA:24,1
DA:25,1
DA:28,1
DA:30,1
DA:32,1
DA:34,7
DA:36,6
DA:37,6
DA:39,6
DA:41,2
DA:42,2
DA:44,2
DA:45,2
DA:47,4
DA:49,2
DA:50,2
DA:51,2
DA:53,2
DA:55,2
DA:59,0
DA:64,2
DA:65,2
DA:67,0
DA:71,2
DA:74,6
DA:76,1
DA:77,1
DA:78,1
LF:29
LH:27
end_of_record
TN:
SF:/usr/include/c++/14/bits/alloc_traits.h
FNF:0
FNH:0
DA:515,2
DA:550,2
DA:577,2
DA:581,2
DA:599,2
DA:601,2
LF:6
LH:6
end_of_record
TN:
SF:/usr/include/c++/14/bits/allocator.h
FNF:0
FNH:0
DA:161,7
DA:166,6
DA:176,2
DA:182,8
DA:189,2
DA:191,0
DA:192,0
DA:193,0
DA:196,2
DA:203,2
DA:205,0
DA:206,0
DA:208,2
LF:13
LH:8
end_of_record
TN:
SF:/usr/include/c++/14/bits/basic_string.h
FNL:0,1076,1077
FNA:0,20,_ZNKSt7__cxx1112basic_stringIcSt11char_traitsIcESaIcEE4sizeEv
FNL:1,197,198
FNA:1,6,_ZNSt7__cxx1112basic_stringIcSt11char_traitsIcESaIcEE12_Alloc_hiderC2EPcOS3_
FNL:2,222,223
FNA:2,6,_ZNSt7__cxx1112basic_stringIcSt11char_traitsIcESaIcEE9_M_lengthEm
FNL:3,227,228
FNA:3,24,_ZNKSt7__cxx1112basic_stringIcSt11char_traitsIcESaIcEE7_M_dataEv
FNL:4,232,239
FNA:4,6,_ZNSt7__cxx1112basic_stringIcSt11char_traitsIcESaIcEE13_M_local_dataEv
FNL:5,243,250
FNA:5,6,_ZNKSt7__cxx1112basic_stringIcSt11char_traitsIcESaIcEE13_M_local_dataEv
FNL:6,259,263
FNA:6,6,_ZNSt7__cxx1112basic_stringIcSt11char_traitsIcESaIcEE13_M_set_lengthEm
FNL:7,2640,2641
FNA:7,2,_ZNKSt7__cxx1112basic_stringIcSt11char_traitsIcESaIcEE5c_strEv
FNL:8,2653,2654
FNA:8,10,_ZNKSt7__cxx1112basic_stringIcSt11char_traitsIcESaIcEE4dataEv
FNL:9,267,276
FNA:9,6,_ZNKSt7__cxx1112basic_stringIcSt11char_traitsIcESaIcEE11_M_is_localEv
FNL:10,285,289
FNA:10,6,_ZNSt7__cxx1112basic_stringIcSt11char_traitsIcESaIcEE10_M_disposeEv
FNL:11,293,294
FNA:11,0,_ZNSt7__cxx1112basic_stringIcSt11char_traitsIcESaIcEE10_M_destroyEm
FNL:12,341,342
FNA:12,0,_ZNSt7__cxx1112basic_stringIcSt11char_traitsIcESaIcEE16_M_get_allocatorEv
FNL:13,3772,3777
FNA:13,10,_ZSteqIcSt11char_traitsIcESaIcEEbRKNSt7__cxx1112basic_stringIT_T0_T1_EEPKS5_
FNL:14,4180,4182
FNA:14,2,_ZNSt7__cxx115stollERKNS_12basic_stringIcSt11char_traitsIcESaIcEEEPmi
FNL:15,527,533
FNA:15,6,_ZNSt7__cxx1112basic_stringIcSt11char_traitsIcESaIcEEC2Ev
FNL:16,808,809
FNA:16,6,_ZNSt7__cxx1112basic_stringIcSt11char_traitsIcESaIcEED2Ev
FNF:17
FNH:15
DA:197,6
DA:198,6
DA:222,6
DA:223,6
DA:227,24
DA:228,24
DA:232,6
DA:235,6
DA:243,6
DA:246,6
DA:259,6
DA:261,6
DA:262,6
DA:263,6
DA:267,6
DA:269,6
DA:271,6
DA:272,0
DA:273,6
DA:275,0
DA:285,6
DA:287,6
DA:288,0
DA:289,6
DA:293,0
DA:294,0
DA:341,0
DA:342,0
DA:356,6
DA:357,0
DA:358,0
DA:360,6
DA:527,6
DA:529,18
DA:532,6
DA:533,6
DA:808,6
DA:809,6
DA:1076,20
DA:1077,20
DA:2640,2
DA:2641,2
DA:2653,10
DA:2654,10
DA:3772,10
DA:3775,10
DA:3776,10
DA:4180,2
DA:4181,2
DA:4182,2
LF:50
LH:41
end_of_record
TN:
SF:/usr/include/c++/14/bits/char_traits.h
FNL:0,136,137
FNA:0,0,_ZN9__gnu_cxx11char_traitsIcE2eqERKcS3_
FNL:1,199,206
FNA:1,0,_ZN9__gnu_cxx11char_traitsIcE6lengthEPKc
FNL:2,343,351
FNA:2,6,_ZNSt11char_traitsIcE6assignERcRKc
FNL:3,358,363
FNA:3,0,_ZNSt11char_traitsIcE2ltERKcS2_
FNL:4,366,382
FNA:4,10,_ZNSt11char_traitsIcE7compareEPKcS2_m
FNL:5,385,392
FNA:5,10,_ZNSt11char_traitsIcE6lengthEPKc
FNF:6
FNH:3
DA:136,0
DA:137,0
DA:199,0
DA:202,0
DA:203,0
DA:204,0
DA:205,0
DA:343,6
DA:346,6
DA:347,0
DA:350,6
DA:351,6
DA:358,0
DA:361,0
DA:362,0
DA:366,10
DA:368,10
DA:369,0
DA:371,10
DA:373,0
DA:374,0
DA:375,0
DA:376,0
DA:377,0
DA:378,0
DA:381,10
DA:385,10
DA:388,10
DA:389,0
DA:391,10
LF:30
LH:11
end_of_record
TN:
SF:/usr/include/c++/14/bits/cpp_type_traits.h
FNL:0,608,609
FNA:0,0,_ZSt12__miter_baseIPP5FrameET_S3_
FNF:1
FNH:0
DA:608,0
DA:609,0
LF:2
LH:0
end_of_record
TN:
SF:/usr/include/c++/14/bits/deque.tcc
FNL:0,484,516
FNA:0,0,_ZNSt5dequeI5FrameSaIS0_EE16_M_push_back_auxIJRKS0_EEEvDpOT_
FNL:1,560,568
FNA:1,0,_ZNSt5dequeI5FrameSaIS0_EE15_M_pop_back_auxEv
FNL:2,934,976
FNA:2,0,_ZNSt5dequeI5FrameSaIS0_EE17_M_reallocate_mapEmb
FNF:3
FNH:0
DA:484,0
DA:492,0
DA:493,0
DA:496,0
DA:497,0
DA:501,0
DA:507,0
DA:509,0
DA:516,0
DA:560,0
DA:563,0
DA:564,0
DA:565,0
DA:566,0
DA:568,0
DA:934,0
DA:937,0
DA:938,0
DA:939,0
DA:942,0
DA:944,0
DA:945,0
DA:946,0
DA:947,0
DA:948,0
DA:949,0
DA:952,0
DA:953,0
DA:954,0
DA:958,0
DA:959,0
DA:962,0
DA:963,0
DA:964,0
DA:965,0
DA:966,0
DA:968,0
DA:970,0
DA:971,0
DA:974,0
DA:975,0
DA:976,0
LF:42
LH:0
end_of_record
TN:
SF:/usr/include/c++/14/bits/move.h
FNL:0,137,138
FNA:0,6,_ZSt4moveIRSaIcEEONSt16remove_referenceIT_E4typeEOS3_
FNL:1,175,176
FNA:1,6,_ZSt9addressofIKcEPT_RS1_
FNA:1,6,_ZSt9addressofIcEPT_RS0_
FNL:2,51,52
FNA:2,6,_ZSt11__addressofIKcEPT_RS1_
FNA:2,6,_ZSt11__addressofIcEPT_RS0_
FNL:3,71,72
FNA:3,4,_ZSt7forwardIRK5FrameEOT_RNSt16remove_referenceIS3_E4typeE
FNA:3,0,_ZSt7forwardIRKcEOT_RNSt16remove_referenceIS2_E4typeE
FNF:4
FNH:4
DA:51,12
DA:52,12
DA:71,4
DA:72,4
DA:137,6
DA:138,6
DA:175,12
DA:176,12
LF:8
LH:8
end_of_record
TN:
SF:/usr/include/c++/14/bits/new_allocator.h
FNL:0,126,152
FNA:0,1,_ZNSt15__new_allocatorI5FrameE8allocateEmPKv
FNA:0,1,_ZNSt15__new_allocatorIP5FrameE8allocateEmPKv
FNL:1,156,173
FNA:1,1,_ZNSt15__new_allocatorI5FrameE10deallocateEPS0_m
FNA:1,1,_ZNSt15__new_allocatorIP5FrameE10deallocateEPS1_m
FNA:1,0,_ZNSt15__new_allocatorIcE10deallocateEPcm
FNF:2
FNH:2
DA:88,9
DA:92,6
DA:126,2
DA:134,2
DA:138,0
DA:139,0
DA:140,0
DA:151,2
DA:156,2
DA:172,2
DA:233,2
LF:11
LH:8
end_of_record
TN:
SF:/usr/include/c++/14/bits/ptr_traits.h
FNL:0,134,135
FNA:0,6,_ZNSt19__ptr_traits_ptr_toIPKcS0_Lb0EE10pointer_toERS0_
FNA:0,6,_ZNSt19__ptr_traits_ptr_toIPccLb0EE10pointer_toERc
FNF:1
FNH:1
DA:134,12
DA:135,12
LF:2
LH:2
end_of_record
TN:
SF:/usr/include/c++/14/bits/stl_algobase.h
FNL:0,233,241
FNA:0,0,_ZSt3minImERKT_S2_S2_
FNL:1,257,265
FNA:1,1,_ZSt3maxImERKT_S2_S2_
FNL:2,316,318
FNA:2,0,_ZSt12__niter_baseIPP5FrameET_S3_
FNL:3,353,354
FNA:3,0,_ZSt12__niter_wrapIPP5FrameET_RKS3_S3_
FNL:4,398,408
FNA:4,0,_ZNSt11__copy_moveILb0ELb0ESt26random_access_iterator_tagE8__copy_mIPP5FrameS5_EET0_T_S7_S6_
FNL:5,412,413
FNA:5,0,_ZNSt11__copy_moveILb0ELb0ESt26random_access_iterator_tagE12__assign_oneIP5FrameS4_EEvPT_PT0_
FNL:6,448,457
FNA:6,0,_ZNSt11__copy_moveILb0ELb1ESt26random_access_iterator_tagE8__copy_mIP5FrameS4_EEPT0_PT_S8_S6_
FNL:7,512,522
FNA:7,0,_ZSt14__copy_move_a2ILb0EPP5FrameS2_ET1_T0_S4_S3_
FNL:8,547,548
FNA:8,0,_ZSt14__copy_move_a1ILb0EPP5FrameS2_ET1_T0_S4_S3_
FNL:9,553,559
FNA:9,0,_ZSt13__copy_move_aILb0EPP5FrameS2_ET1_T0_S4_S3_
FNL:10,642,652
FNA:10,0,_ZSt4copyIPP5FrameS2_ET0_T_S4_S3_
FNL:11,728,735
FNA:11,0,_ZNSt20__copy_move_backwardILb0ELb0ESt26random_access_iterator_tagE13__copy_move_bIPP5FrameS5_EET0_T_S7_S6_
FNL:12,762,771
FNA:12,0,_ZNSt20__copy_move_backwardILb0ELb1ESt26random_access_iterator_tagE13__copy_move_bIP5FrameS4_EEPT0_PT_S8_S6_
FNL:13,777,790
FNA:13,0,_ZSt23__copy_move_backward_a2ILb0EPP5FrameS2_ET1_T0_S4_S3_
FNL:14,795,796
FNA:14,0,_ZSt23__copy_move_backward_a1ILb0EPP5FrameS2_ET1_T0_S4_S3_
FNL:15,823,829
FNA:15,0,_ZSt22__copy_move_backward_aILb0EPP5FrameS2_ET1_T0_S4_S3_
FNL:16,878,889
FNA:16,0,_ZSt13copy_backwardIPP5FrameS2_ET0_T_S4_S3_
FNF:17
FNH:1
DA:233,0
DA:238,0
DA:239,0
DA:240,0
DA:257,1
DA:262,1
DA:263,0
DA:264,1
DA:316,0
DA:318,0
DA:353,0
DA:354,0
DA:398,0
DA:401,0
DA:403,0
DA:404,0
DA:405,0
DA:407,0
DA:412,0
DA:413,0
DA:448,0
DA:450,0
DA:451,0
DA:452,0
DA:453,0
DA:455,0
DA:456,0
DA:512,0
DA:516,0
DA:518,0
DA:521,0
DA:547,0
DA:548,0
DA:553,0
DA:555,0
DA:558,0
DA:642,0
DA:651,0
DA:728,0
DA:731,0
DA:732,0
DA:733,0
DA:734,0
DA:762,0
DA:764,0
DA:765,0
DA:766,0
DA:767,0
DA:769,0
DA:770,0
DA:777,0
DA:781,0
DA:783,0
DA:787,0
DA:789,0
DA:795,0
DA:796,0
DA:823,0
DA:825,0
DA:828,0
DA:878,0
DA:888,0
LF:62
LH:3
end_of_record
TN:
SF:/usr/include/c++/14/bits/stl_construct.h
FNL:0,80,89
FNA:0,2,_ZSt10destroy_atI5FrameEvPT_
FNL:1,94,97
FNA:1,2,_ZSt12construct_atI5FrameJRKS0_EEDTgsnwcvPvLi0E_T_pispcl7declvalIT0_EEEEPS4_DpOS5_
FNA:1,0,_ZSt12construct_atIcJRKcEEDTgsnwcvPvLi0E_T_pispcl7declvalIT0_EEEEPS3_DpOS4_
FNF:2
FNH:2
DA:80,2
DA:88,2
DA:89,2
DA:94,2
DA:97,2
LF:5
LH:5
end_of_record
TN:
SF:/usr/include/c++/14/bits/stl_deque.h
FNL:0,1027,1028
FNA:0,1,_ZNSt5dequeI5FrameSaIS0_EED2Ev
FNL:1,1151,1152
FNA:1,1,_ZNSt5dequeI5FrameSaIS0_EE5beginEv
FNL:2,1170,1171
FNA:2,3,_ZNSt5dequeI5FrameSaIS0_EE3endEv
FNL:3,1268,1269
FNA:3,0,_ZNKSt5dequeI5FrameSaIS0_EE4sizeEv
FNL:4,1274,1275
FNA:4,0,_ZNKSt5dequeI5FrameSaIS0_EE8max_sizeEv
FNL:5,131,132
FNA:5,2,_ZNSt15_Deque_iteratorI5FrameRS0_PS0_E14_S_buffer_sizeEv
FNL:6,1468,1474
FNA:6,2,_ZNSt5dequeI5FrameSaIS0_EE4backEv
FNL:7,151,152
FNA:7,2,_ZNSt15_Deque_iteratorI5FrameRS0_PS0_EC2Ev
FNL:8,1538,1549
FNA:8,2,_ZNSt5dequeI5FrameSaIS0_EE9push_backERKS0_
FNL:9,1597,1609
FNA:9,2,_ZNSt5dequeI5FrameSaIS0_EE8pop_backEv
FNL:10,168,170
FNA:10,4,_ZNSt15_Deque_iteratorI5FrameRS0_PS0_EC2ERKS3_
FNL:11,181,182
FNA:11,2,_ZNKSt15_Deque_iteratorI5FrameRS0_PS0_EdeEv
FNL:12,1876,1881
FNA:12,0,_ZNSt5dequeI5FrameSaIS0_EE11_S_max_sizeERKS1_
FNL:13,2087,2092
FNA:13,1,_ZNSt5dequeI5FrameSaIS0_EE15_M_destroy_dataESt15_Deque_iteratorIS0_RS0_PS0_ES6_RKS1_
FNL:14,210,219
FNA:14,2,_ZNSt15_Deque_iteratorI5FrameRS0_PS0_EmmEv
FNL:15,2168,2173
FNA:15,0,_ZNSt5dequeI5FrameSaIS0_EE22_M_reserve_map_at_backEm
FNL:16,263,268
FNA:16,2,_ZNSt15_Deque_iteratorI5FrameRS0_PS0_E11_M_set_nodeEPS2_
FNL:17,370,376
FNA:17,0,_ZStmiRKSt15_Deque_iteratorI5FrameRS0_PS0_ES5_
FNL:18,458,460
FNA:18,1,_ZNSt11_Deque_baseI5FrameSaIS0_EEC2Ev
FNL:19,516,518
FNA:19,1,_ZNSt11_Deque_baseI5FrameSaIS0_EE16_Deque_impl_dataC2Ev
FNL:20,545,548
FNA:20,1,_ZNSt11_Deque_baseI5FrameSaIS0_EE11_Deque_implC2Ev
FNL:21,568,569
FNA:21,3,_ZNSt11_Deque_baseI5FrameSaIS0_EE19_M_get_Tp_allocatorEv
FNL:22,572,573
FNA:22,2,_ZNKSt11_Deque_baseI5FrameSaIS0_EE19_M_get_Tp_allocatorEv
FNL:23,576,577
FNA:23,2,_ZNKSt11_Deque_baseI5FrameSaIS0_EE20_M_get_map_allocatorEv
FNL:24,580,584
FNA:24,1,_ZNSt11_Deque_baseI5FrameSaIS0_EE16_M_allocate_nodeEv
FNL:25,587,591
FNA:25,1,_ZNSt11_Deque_baseI5FrameSaIS0_EE18_M_deallocate_nodeEPS0_
FNL:26,594,598
FNA:26,1,_ZNSt11_Deque_baseI5FrameSaIS0_EE15_M_allocate_mapEm
FNL:27,601,605
FNA:27,1,_ZNSt11_Deque_baseI5FrameSaIS0_EE17_M_deallocate_mapEPPS0_m
FNL:28,617,626
FNA:28,1,_ZNSt11_Deque_baseI5FrameSaIS0_EED2Ev
FNL:29,638,673
FNA:29,1,_ZNSt11_Deque_baseI5FrameSaIS0_EE17_M_initialize_mapEm
FNL:30,677,691
FNA:30,1,_ZNSt11_Deque_baseI5FrameSaIS0_EE15_M_create_nodesEPPS0_S4_
FNL:31,695,701
FNA:31,1,_ZNSt11_Deque_baseI5FrameSaIS0_EE16_M_destroy_nodesEPPS0_S4_
FNL:32,855,855
FNA:32,1,_ZNSt5dequeI5FrameSaIS0_EEC2Ev
FNL:33,96,98
FNA:33,6,_ZSt16__deque_buf_sizem
FNF:34
FNH:29
DA:96,6
DA:98,6
DA:131,2
DA:132,2
DA:151,2
DA:152,2
DA:168,4
DA:169,4
DA:170,4
DA:181,2
DA:182,2
DA:210,2
DA:212,2
DA:214,0
DA:215,0
DA:217,2
DA:218,2
DA:263,2
DA:265,2
DA:266,2
DA:267,2
DA:268,2
DA:370,0
DA:372,0
DA:373,0
DA:374,0
DA:375,0
DA:458,1
DA:459,1
DA:460,1
DA:516,1
DA:517,1
DA:518,1
DA:545,1
DA:547,1
DA:548,1
DA:568,3
DA:569,3
DA:572,2
DA:573,2
DA:576,2
DA:577,4
DA:580,1
DA:583,2
DA:587,1
DA:590,1
DA:591,1
DA:594,1
DA:596,1
DA:597,2
DA:601,1
DA:603,1
DA:605,1
DA:617,1
DA:620,1
DA:622,1
DA:623,1
DA:624,1
DA:626,1
DA:638,1
DA:641,1
DA:644,2
DA:645,1
DA:646,1
DA:653,1
DA:654,1
DA:655,1
DA:658,1
DA:659,0
DA:661,0
DA:662,0
DA:663,0
DA:664,0
DA:667,1
DA:668,1
DA:669,1
DA:670,2
DA:671,1
DA:672,1
DA:673,1
DA:677,1
DA:683,2
DA:684,1
DA:686,0
DA:688,0
DA:689,0
DA:691,1
DA:695,1
DA:699,2
DA:700,1
DA:701,1
DA:855,1
DA:1027,1
DA:1028,1
DA:1151,1
DA:1152,1
DA:1170,3
DA:1171,3
DA:1268,0
DA:1269,0
DA:1274,0
DA:1275,0
DA:1468,2
DA:1471,2
DA:1472,2
DA:1473,2
DA:1538,2
DA:1540,2
DA:1541,2
DA:1543,2
DA:1545,2
DA:1548,0
DA:1549,2
DA:1597,2
DA:1600,2
DA:1601,2
DA:1603,2
DA:1604,2
DA:1608,0
DA:1609,2
DA:1876,0
DA:1878,0
DA:1879,0
DA:1880,0
DA:2087,1
DA:2092,1
DA:2168,0
DA:2170,0
DA:2171,0
DA:2172,0
DA:2173,0
LF:131
LH:101
end_of_record
TN:
SF:/usr/include/c++/14/bits/stl_stack.h
FNL:0,162,163
FNA:0,1,_ZNSt5stackI5FrameSt5dequeIS0_SaIS0_EEEC2IS3_vEEv
FNL:1,230,234
FNA:1,2,_ZNSt5stackI5FrameSt5dequeIS0_SaIS0_EEE3topEv
FNL:2,258,259
FNA:2,2,_ZNSt5stackI5FrameSt5dequeIS0_SaIS0_EEE4pushERKS0_
FNL:3,291,295
FNA:3,2,_ZNSt5stackI5FrameSt5dequeIS0_SaIS0_EEE3popEv
FNF:4
FNH:4
DA:162,1
DA:163,1
DA:230,2
DA:233,2
DA:258,2
DA:259,2
DA:291,2
DA:294,2
DA:295,2
LF:9
LH:9
end_of_record
TN:
SF:/usr/include/c++/14/ext/string_conversions.h
FNL:0,56,96
FNA:0,2,_ZN9__gnu_cxx6__stoaIxxcJiEEET0_PFT_PKT1_PPS3_DpT2_EPKcS5_PmS9_
FNL:1,65,65
FNA:1,2,_ZZN9__gnu_cxx6__stoaIxxcJiEEET0_PFT_PKT1_PPS3_DpT2_EPKcS5_PmS9_EN11_Save_errnoC2Ev
FNL:2,66,66
FNA:2,2,_ZZN9__gnu_cxx6__stoaIxxcJiEEET0_PFT_PKT1_PPS3_DpT2_EPKcS5_PmS9_EN11_Save_errnoD2Ev
FNL:3,72,72
FNA:3,2,_ZZN9__gnu_cxx6__stoaIxxcJiEEET0_PFT_PKT1_PPS3_DpT2_EPKcS5_PmS9_EN10_Range_chk6_S_chkExSt17integral_constantIbLb0EE
FNF:4
FNH:4
DA:56,2
DA:65,2
DA:66,2
DA:68,2
DA:72,2
DA:82,2
DA:84,2
DA:85,0
DA:86,4
DA:87,2
DA:88,0
DA:90,2
DA:92,2
DA:93,0
DA:95,2
DA:96,2
LF:16
LH:13
end_of_record
TN:
SF:/usr/include/c++/14/new
FNL:0,179,180
FNA:0,2,_ZnwmPv
FNF:1
FNH:1
DA:179,2
DA:180,2
LF:2
LH:2
end_of_record
TN:
SF:/usr/include/c++/14/type_traits
FNL:0,3832,3839
FNA:0,6,_ZSt21is_constant_evaluatedv
FNF:1
FNH:1
DA:3832,6
DA:3835,6
LF:2
LH:2
end_of_record
TN:
SF:/usr/include/c++/14/x86_64-redhat-linux/bits/c++config.h
FNF:0
FNH:0
DA:2394,30
LF:1
LH:1
end_of_record
