TN:
SF:/home/monika/Documents/problems/19972번： Москва 2042/main.cpp
FNL:0,22,25
FNA:0,0,_Z9toRadiansd
FNL:1,27,58
FNA:1,0,_Z16circularDistancedddi
FNL:2,60,72
FNA:2,0,_Z18computeMinDistanceRKSt6vectorI4RingSaIS0_EEdddd
FNL:3,75,110
FNA:3,0,main
FNF:4
FNH:0
DA:22,0
DA:24,0
DA:27,0
DA:29,0
DA:30,0
DA:32,0
DA:34,0
DA:36,0
DA:38,0
DA:42,0
DA:45,0
DA:47,0
DA:49,0
DA:53,0
DA:57,0
DA:60,0
DA:62,0
DA:63,0
DA:65,0
DA:66,0
DA:67,0
DA:68,0
DA:71,0
DA:75,0
DA:77,0
DA:78,0
DA:81,0
DA:82,0
DA:84,0
DA:86,0
DA:89,0
DA:90,0
DA:93,0
DA:94,0
DA:95,0
DA:99,0
DA:101,0
DA:102,0
DA:103,0
DA:104,0
DA:106,0
DA:107,0
DA:109,0
DA:110,0
LF:44
LH:0
end_of_record
TN:
SF:/usr/include/c++/14/bits/alloc_traits.h
FNF:0
FNH:0
DA:515,0
DA:550,0
DA:993,0
DA:994,0
LF:4
LH:0
end_of_record
TN:
SF:/usr/include/c++/14/bits/allocator.h
FNF:0
FNH:0
DA:161,0
DA:166,0
DA:182,0
DA:189,0
DA:191,0
DA:192,0
DA:193,0
DA:196,0
DA:203,0
DA:205,0
DA:206,0
DA:208,0
LF:12
LH:0
end_of_record
TN:
SF:/usr/include/c++/14/bits/ios_base.h
FNL:0,104,105
FNA:0,0,_ZStoRRSt13_Ios_FmtflagsS_
FNL:1,109,110
FNA:1,0,_ZStaNRSt13_Ios_FmtflagsS_
FNL:2,1104,1108
FNA:2,0,_ZSt5fixedRSt8ios_base
FNL:3,726,732
FNA:3,0,_ZNSt8ios_base4setfESt13_Ios_FmtflagsS0_
FNL:4,84,85
FNA:4,0,_ZStanSt13_Ios_FmtflagsS_
FNL:5,89,90
FNA:5,0,_ZStorSt13_Ios_FmtflagsS_
FNL:6,99,100
FNA:6,0,_ZStcoSt13_Ios_Fmtflags
FNF:7
FNH:0
DA:84,0
DA:85,0
DA:89,0
DA:90,0
DA:99,0
DA:100,0
DA:104,0
DA:105,0
DA:109,0
DA:110,0
DA:726,0
DA:728,0
DA:729,0
DA:730,0
DA:731,0
DA:1104,0
DA:1106,0
DA:1107,0
LF:18
LH:0
end_of_record
TN:
SF:/usr/include/c++/14/bits/move.h
FNL:0,51,52
FNA:0,0,_ZSt11__addressofI4RingEPT_RS1_
FNA:0,0,_ZSt11__addressofIdEPT_RS0_
FNF:1
FNH:0
DA:51,0
DA:52,0
LF:2
LH:0
end_of_record
TN:
SF:/usr/include/c++/14/bits/new_allocator.h
FNL:0,126,152
FNA:0,0,_ZNSt15__new_allocatorI4RingE8allocateEmPKv
FNA:0,0,_ZNSt15__new_allocatorIdE8allocateEmPKv
FNL:1,156,173
FNA:1,0,_ZNSt15__new_allocatorI4RingE10deallocateEPS0_m
FNA:1,0,_ZNSt15__new_allocatorIdE10deallocateEPdm
FNF:2
FNH:0
DA:88,0
DA:92,0
DA:126,0
DA:134,0
DA:138,0
DA:139,0
DA:140,0
DA:151,0
DA:156,0
DA:172,0
DA:233,0
LF:11
LH:0
end_of_record
TN:
SF:/usr/include/c++/14/bits/stl_algobase.h
FNL:0,1040,1040
FNA:0,0,_ZSt17__size_to_integerm
FNL:1,1140,1153
FNA:1,0,_ZSt10__fill_n_aIP4RingmS0_ET_S2_T0_RKT1_St26random_access_iterator_tag
FNA:1,0,_ZSt10__fill_n_aIPdmdET_S1_T0_RKT1_St26random_access_iterator_tag
FNL:2,1175,1182
FNA:2,0,_ZSt6fill_nIP4RingmS0_ET_S2_T0_RKT1_
FNA:2,0,_ZSt6fill_nIPdmdET_S1_T0_RKT1_
FNL:3,233,241
FNA:3,0,_ZSt3minIdERKT_S2_S2_
FNA:3,0,_ZSt3minImERKT_S2_S2_
FNL:4,936,941
FNA:4,0,_ZSt9__fill_a1IP4RingS0_EN9__gnu_cxx11__enable_ifIXntsrSt11__is_scalarIT0_E7__valueEvE6__typeET_S9_RKS5_
FNL:5,947,953
FNA:5,0,_ZSt9__fill_a1IPddEN9__gnu_cxx11__enable_ifIXsrSt11__is_scalarIT0_E7__valueEvE6__typeET_S8_RKS4_
FNL:6,997,998
FNA:6,0,_ZSt8__fill_aIP4RingS0_EvT_S2_RKT0_
FNA:6,0,_ZSt8__fill_aIPddEvT_S1_RKT0_
FNF:7
FNH:0
DA:233,0
DA:238,0
DA:239,0
DA:240,0
DA:936,0
DA:939,0
DA:940,0
DA:941,0
DA:947,0
DA:950,0
DA:951,0
DA:952,0
DA:953,0
DA:997,0
DA:998,0
DA:1040,0
DA:1140,0
DA:1146,0
DA:1147,0
DA:1151,0
DA:1152,0
DA:1175,0
DA:1180,0
DA:1181,0
LF:24
LH:0
end_of_record
TN:
SF:/usr/include/c++/14/bits/stl_construct.h
FNL:0,109,120
FNA:0,0,_ZSt10_ConstructI4RingJEEvPT_DpOT0_
FNA:0,0,_ZSt10_ConstructIdJEEvPT_DpOT0_
FNL:1,146,153
FNA:1,0,_ZSt8_DestroyI4RingEvPT_
FNA:1,0,_ZSt8_DestroyIdEvPT_
FNL:2,160,164
FNA:2,0,_ZNSt12_Destroy_auxILb0EE9__destroyIP4RingEEvT_S4_
FNA:2,0,_ZNSt12_Destroy_auxILb0EE9__destroyIPdEEvT_S3_
FNL:3,172,172
FNA:3,0,_ZNSt12_Destroy_auxILb1EE9__destroyIP4RingEEvT_S4_
FNA:3,0,_ZNSt12_Destroy_auxILb1EE9__destroyIPdEEvT_S3_
FNL:4,182,197
FNA:4,0,_ZSt8_DestroyIP4RingEvT_S2_
FNA:4,0,_ZSt8_DestroyIPdEvT_S1_
FNL:5,80,89
FNA:5,0,_ZSt10destroy_atI4RingEvPT_
FNA:5,0,_ZSt10destroy_atIdEvPT_
FNL:6,94,97
FNA:6,0,_ZSt12construct_atI4RingJEEDTgsnwcvPvLi0E_T_pispcl7declvalIT0_EEEEPS2_DpOS3_
FNA:6,0,_ZSt12construct_atIdJEEDTgsnwcvPvLi0E_T_pispcl7declvalIT0_EEEEPS1_DpOS2_
FNF:7
FNH:0
DA:80,0
DA:88,0
DA:89,0
DA:94,0
DA:97,0
DA:109,0
DA:112,0
DA:115,0
DA:116,0
DA:119,0
DA:146,0
DA:149,0
DA:153,0
DA:160,0
DA:162,0
DA:163,0
DA:164,0
DA:172,0
DA:182,0
DA:192,0
DA:193,0
DA:196,0
LF:22
LH:0
end_of_record
TN:
SF:/usr/include/c++/14/bits/stl_iterator.h
FNL:0,1067,1068
FNA:0,0,_ZN9__gnu_cxx17__normal_iteratorIPK4RingSt6vectorIS1_SaIS1_EEEC2ERKS3_
FNL:1,1090,1091
FNA:1,0,_ZNK9__gnu_cxx17__normal_iteratorIPK4RingSt6vectorIS1_SaIS1_EEEdeEv
FNL:2,1100,1104
FNA:2,0,_ZN9__gnu_cxx17__normal_iteratorIPK4RingSt6vectorIS1_SaIS1_EEEppEv
FNL:3,1153,1154
FNA:3,0,_ZNK9__gnu_cxx17__normal_iteratorIPK4RingSt6vectorIS1_SaIS1_EEE4baseEv
FNL:4,1188,1194
FNA:4,0,_ZN9__gnu_cxxeqIPK4RingSt6vectorIS1_SaIS1_EEEEbRKNS_17__normal_iteratorIT_T0_EESC_QrqXeqcldtfL0p_4baseEcldtfL0p0_4baseERSt14convertible_toIbEE
FNF:5
FNH:0
DA:1067,0
DA:1068,0
DA:1090,0
DA:1091,0
DA:1100,0
DA:1102,0
DA:1103,0
DA:1153,0
DA:1154,0
DA:1188,0
DA:1194,0
LF:11
LH:0
end_of_record
TN:
SF:/usr/include/c++/14/bits/stl_iterator_base_types.h
FNF:0
FNH:0
DA:240,0
LF:1
LH:0
end_of_record
TN:
SF:/usr/include/c++/14/bits/stl_uninitialized.h
FNL:0,637,651
FNA:0,0,_ZNSt27__uninitialized_default_n_1ILb0EE18__uninit_default_nIP4RingmEET_S4_T0_
FNA:0,0,_ZNSt27__uninitialized_default_n_1ILb0EE18__uninit_default_nIPdmEET_S3_T0_
FNL:1,660,671
FNA:1,0,_ZNSt27__uninitialized_default_n_1ILb1EE18__uninit_default_nIP4RingmEET_S4_T0_
FNA:1,0,_ZNSt27__uninitialized_default_n_1ILb1EE18__uninit_default_nIPdmEET_S3_T0_
FNL:2,696,713
FNA:2,0,_ZSt25__uninitialized_default_nIP4RingmET_S2_T0_
FNA:2,0,_ZSt25__uninitialized_default_nIPdmET_S1_T0_
FNL:3,777,779
FNA:3,0,_ZSt27__uninitialized_default_n_aIP4RingmS0_ET_S2_T0_RSaIT1_E
FNA:3,0,_ZSt27__uninitialized_default_n_aIPdmdET_S1_T0_RSaIT1_E
FNF:4
FNH:0
DA:637,0
DA:639,0
DA:642,0
DA:643,0
DA:644,0
DA:660,0
DA:662,0
DA:665,0
DA:666,0
DA:667,0
DA:668,0
DA:670,0
DA:696,0
DA:699,0
DA:701,0
DA:707,0
DA:712,0
DA:777,0
DA:779,0
LF:19
LH:0
end_of_record
TN:
SF:/usr/include/c++/14/bits/stl_vector.h
FNL:0,1128,1132
FNA:0,0,_ZNSt6vectorI4RingSaIS0_EEixEm
FNA:0,0,_ZNSt6vectorIdSaIdEEixEm
FNL:1,145,147
FNA:1,0,_ZNSt12_Vector_baseI4RingSaIS0_EE12_Vector_implC2ERKS1_
FNA:1,0,_ZNSt12_Vector_baseIdSaIdEE12_Vector_implC2ERKS0_
FNL:2,1717,1722
FNA:2,0,_ZNSt6vectorI4RingSaIS0_EE21_M_default_initializeEm
FNA:2,0,_ZNSt6vectorIdSaIdEE21_M_default_initializeEm
FNL:3,1917,1923
FNA:3,0,_ZNSt6vectorI4RingSaIS0_EE17_S_check_init_lenEmRKS1_
FNA:3,0,_ZNSt6vectorIdSaIdEE17_S_check_init_lenEmRKS0_
FNL:4,1926,1935
FNA:4,0,_ZNSt6vectorI4RingSaIS0_EE11_S_max_sizeERKS1_
FNA:4,0,_ZNSt6vectorIdSaIdEE11_S_max_sizeERKS0_
FNL:5,300,301
FNA:5,0,_ZNSt12_Vector_baseI4RingSaIS0_EE19_M_get_Tp_allocatorEv
FNA:5,0,_ZNSt12_Vector_baseIdSaIdEE19_M_get_Tp_allocatorEv
FNL:6,332,334
FNA:6,0,_ZNSt12_Vector_baseI4RingSaIS0_EEC2EmRKS1_
FNA:6,0,_ZNSt12_Vector_baseIdSaIdEEC2EmRKS0_
FNL:7,366,370
FNA:7,0,_ZNSt12_Vector_baseI4RingSaIS0_EED2Ev
FNA:7,0,_ZNSt12_Vector_baseIdSaIdEED2Ev
FNL:8,377,381
FNA:8,0,_ZNSt12_Vector_baseI4RingSaIS0_EE11_M_allocateEm
FNA:8,0,_ZNSt12_Vector_baseIdSaIdEE11_M_allocateEm
FNL:9,385,390
FNA:9,0,_ZNSt12_Vector_baseI4RingSaIS0_EE13_M_deallocateEPS0_m
FNA:9,0,_ZNSt12_Vector_baseIdSaIdEE13_M_deallocateEPdm
FNL:10,396,401
FNA:10,0,_ZNSt12_Vector_baseI4RingSaIS0_EE17_M_create_storageEm
FNA:10,0,_ZNSt12_Vector_baseIdSaIdEE17_M_create_storageEm
FNL:11,556,558
FNA:11,0,_ZNSt6vectorI4RingSaIS0_EEC2EmRKS1_
FNA:11,0,_ZNSt6vectorIdSaIdEEC2EmRKS0_
FNL:12,733,738
FNA:12,0,_ZNSt6vectorI4RingSaIS0_EED2Ev
FNA:12,0,_ZNSt6vectorIdSaIdEED2Ev
FNL:13,883,884
FNA:13,0,_ZNKSt6vectorI4RingSaIS0_EE5beginEv
FNL:14,903,904
FNA:14,0,_ZNKSt6vectorI4RingSaIS0_EE3endEv
FNL:15,98,100
FNA:15,0,_ZNSt12_Vector_baseI4RingSaIS0_EE17_Vector_impl_dataC2Ev
FNA:15,0,_ZNSt12_Vector_baseIdSaIdEE17_Vector_impl_dataC2Ev
FNF:16
FNH:0
DA:98,0
DA:99,0
DA:100,0
DA:145,0
DA:146,0
DA:147,0
DA:300,0
DA:301,0
DA:332,0
DA:333,0
DA:334,0
DA:366,0
DA:368,0
DA:369,0
DA:370,0
DA:377,0
DA:380,0
DA:385,0
DA:388,0
DA:389,0
DA:390,0
DA:396,0
DA:398,0
DA:399,0
DA:400,0
DA:401,0
DA:556,0
DA:557,0
DA:558,0
DA:733,0
DA:735,0
DA:736,0
DA:738,0
DA:883,0
DA:884,0
DA:903,0
DA:904,0
DA:1128,0
DA:1131,0
DA:1717,0
DA:1719,0
DA:1720,0
DA:1721,0
DA:1722,0
DA:1917,0
DA:1919,0
DA:1920,0
DA:1922,0
DA:1926,0
DA:1931,0
DA:1933,0
DA:1934,0
LF:52
LH:0
end_of_record
TN:
SF:/usr/include/c++/14/iomanip
FNL:0,202,203
FNA:0,0,_ZSt12setprecisioni
FNF:1
FNH:0
DA:202,0
DA:203,0
LF:2
LH:0
end_of_record
TN:
SF:/usr/include/c++/14/new
FNL:0,179,180
FNA:0,0,_ZnwmPv
FNF:1
FNH:0
DA:179,0
DA:180,0
LF:2
LH:0
end_of_record
TN:
SF:/usr/include/c++/14/type_traits
FNL:0,3832,3839
FNA:0,0,_ZSt21is_constant_evaluatedv
FNF:1
FNH:0
DA:3832,0
DA:3835,0
LF:2
LH:0
end_of_record
TN:
SF:/usr/include/c++/14/x86_64-redhat-linux/bits/c++config.h
FNF:0
FNH:0
DA:2394,0
LF:1
LH:0
end_of_record
