TN:
SF:/home/monika/Documents/problems/12705번： Triangle Areas (Small)/Triangle Areas (Small).cpp
FNL:0,8,43
FNA:0,2,main
FNF:1
FNH:1
DA:8,2
DA:10,2
DA:11,2
DA:14,2
DA:16,8
DA:19,6
DA:20,6
DA:22,6
DA:24,2
DA:25,6
DA:28,4
DA:29,4
DA:31,4
DA:32,4
DA:35,0
DA:36,0
DA:38,0
DA:39,0
DA:42,2
LF:19
LH:15
end_of_record
TN:
SF:/home/monika/Documents/problems/12713번： Ugly Numbers (Small)/Ugly Numbers (Small).cpp
FNL:0,13,51
FNA:0,136,_Z5solveii
FNL:1,53,77
FNA:1,1,main
FNF:2
FNH:2
DA:13,136
DA:15,136
DA:16,136
DA:17,17
DA:18,119
DA:20,73
DA:21,73
DA:22,73
DA:28,117
DA:30,71
DA:31,71
DA:32,71
DA:33,71
DA:35,10
DA:39,61
DA:40,61
DA:41,0
DA:42,61
DA:43,61
DA:44,61
DA:45,21
DA:46,61
DA:50,46
DA:53,1
DA:55,1
DA:56,1
DA:58,1
DA:59,1
DA:61,5
DA:63,4
DA:64,4
DA:66,18
DA:68,14
DA:71,4
DA:73,4
DA:76,1
LF:36
LH:35
end_of_record
TN:
SF:/home/monika/Documents/problems/12729번： Saving the Universe (Small)/Saving the Universe (Small).cpp
FNL:0,44,55
FNA:0,12,_ZZ4mainENKUliiE_clEii
FNL:1,7,101
FNA:1,1,main
FNF:2
FNH:2
DA:7,1
DA:9,1
DA:10,1
DA:12,1
DA:13,1
DA:15,3
DA:17,2
DA:18,2
DA:19,2
DA:20,2
DA:21,12
DA:23,10
DA:26,2
DA:27,2
DA:28,2
DA:29,2
DA:30,19
DA:32,17
DA:34,2
DA:36,0
DA:37,0
DA:38,0
DA:39,0
DA:42,2
DA:43,2
DA:44,14
DA:46,51
DA:48,47
DA:55,2
DA:57,2
DA:58,12
DA:60,10
DA:61,2
DA:63,8
DA:64,8
DA:66,10
DA:67,10
DA:71,19
DA:73,17
DA:77,6
DA:79,5
DA:80,1
DA:82,4
DA:83,4
DA:85,5
DA:86,5
DA:90,1
DA:91,1
DA:95,2
DA:96,2
DA:97,1
DA:98,2
DA:100,1
LF:53
LH:49
end_of_record
TN:
SF:/home/monika/Documents/problems/12809번： Train in a Tunnel/Train in a Tunnel.cpp
FNL:0,40,55
FNA:0,6,_ZZ4mainENKUliixxE_clEiixx
FNL:1,6,83
FNA:1,2,main
FNF:2
FNH:2
DA:6,2
DA:8,2
DA:9,2
DA:10,2
DA:11,2
DA:12,6
DA:14,4
DA:15,4
DA:16,4
DA:17,4
DA:18,28
DA:20,24
DA:22,4
DA:23,28
DA:25,24
DA:27,4
DA:28,28
DA:30,24
DA:32,4
DA:33,4
DA:34,28
DA:36,24
DA:37,12
DA:39,4
DA:40,10
DA:42,6
DA:43,6
DA:44,12
DA:46,6
DA:47,18
DA:49,12
DA:50,12
DA:52,6
DA:53,6
DA:55,10
DA:56,4
DA:58,0
DA:62,4
DA:64,0
DA:66,12
DA:68,8
DA:70,4
DA:71,4
DA:72,4
DA:75,4
DA:77,2
DA:80,4
DA:81,4
DA:82,2
LF:49
LH:47
end_of_record
TN:
SF:/home/monika/Documents/problems/12867번： N차원 여행/N-Dimension.cpp
FNL:0,20,70
FNA:0,8,main
FNL:1,9,18
FNA:1,16,_Z13stateToStringB5cxx11RKSt3mapIiiSt4lessIiESaISt4pairIKiiEEE
FNF:2
FNH:2
DA:9,16
DA:11,16
DA:12,24
DA:14,8
DA:17,32
DA:18,16
DA:20,8
DA:22,8
DA:23,8
DA:25,8
DA:26,8
DA:27,8
DA:28,8
DA:29,16
DA:31,8
DA:34,8
DA:35,8
DA:37,8
DA:38,8
DA:39,8
DA:41,8
DA:43,16
DA:44,16
DA:46,8
DA:47,8
DA:49,8
DA:53,0
DA:54,0
DA:55,0
DA:57,8
DA:58,8
DA:60,0
DA:61,0
DA:64,8
DA:67,8
DA:68,8
DA:69,8
DA:70,16
LF:38
LH:33
end_of_record
TN:
SF:/home/monika/Documents/problems/12891번： DNA 비밀번호/main.cpp
FNL:0,5,72
FNA:0,4,main
FNF:1
FNH:1
DA:5,4
DA:7,4
DA:8,4
DA:10,4
DA:11,4
DA:12,4
DA:13,4
DA:16,20
DA:18,16
DA:21,4
DA:22,36
DA:24,30
DA:26,24
DA:28,18
DA:29,10
DA:33,24
DA:35,36
DA:38,10
DA:39,10
DA:41,10
DA:43,10
DA:49,4
DA:50,0
DA:52,10
DA:54,6
DA:55,6
DA:56,6
DA:57,22
DA:59,18
DA:66,6
DA:67,4
DA:70,4
DA:71,4
DA:72,4
LF:34
LH:33
end_of_record
TN:
SF:/home/monika/Documents/problems/12897번： Candy/Candy.cpp
FNL:0,19,31
FNA:0,1,main
FNL:1,5,17
FNA:1,0,_Z6modExpxi
FNF:2
FNH:1
DA:5,1
DA:7,1
DA:8,3
DA:10,2
DA:11,1
DA:12,2
DA:13,2
DA:16,1
DA:19,1
DA:21,1
DA:22,1
DA:24,1
DA:25,1
DA:27,1
DA:28,1
DA:30,1
LF:16
LH:16
end_of_record
TN:
SF:/home/monika/Documents/problems/12993번： 이동3/main.cpp
FNL:0,4,33
FNA:0,1,main
FNF:1
FNH:1
DA:4,1
DA:6,1
DA:7,1
DA:9,1
DA:10,1
DA:12,4
DA:14,3
DA:15,3
DA:16,3
DA:19,2
DA:24,0
DA:25,0
DA:27,3
DA:28,3
DA:31,1
LF:15
LH:13
end_of_record
TN:
SF:/home/monika/Documents/problems/13022번： 늑대와 올바른 단어/main.cpp
FNL:0,6,46
FNA:0,6,main
FNF:1
FNH:1
DA:6,6
DA:8,6
DA:9,6
DA:11,6
DA:12,6
DA:14,6
DA:15,11
DA:17,6
DA:19,0
DA:24,13
DA:26,7
DA:27,7
DA:30,21
DA:32,32
DA:34,17
DA:36,1
DA:39,16
DA:44,5
DA:46,6
LF:19
LH:18
end_of_record
TN:
SF:/home/monika/Documents/problems/13583번： Divisores/Divisores.cpp
FNL:0,8,45
FNA:0,1,main
FNF:1
FNH:1
DA:8,1
DA:10,1
DA:11,1
DA:13,1
DA:14,1
DA:16,1
DA:18,3
DA:20,2
DA:22,2
DA:23,2
DA:25,2
DA:30,1
DA:32,3
DA:34,3
DA:36,1
DA:38,1
DA:42,0
DA:45,1
LF:18
LH:17
end_of_record
TN:
SF:/home/monika/Documents/problems/13628번： Triangles/Triangles.cpp
FNL:0,8,54
FNA:0,1,main
FNF:1
FNH:1
DA:8,1
DA:10,1
DA:11,1
DA:13,1
DA:14,1
DA:16,1
DA:17,9
DA:19,8
DA:22,1
DA:23,1
DA:25,0
DA:29,1
DA:31,1
DA:32,1
DA:33,8
DA:35,7
DA:38,1
DA:40,1
DA:42,9
DA:44,8
DA:45,8
DA:46,8
DA:48,6
DA:52,1
DA:53,1
DA:54,2
LF:26
LH:25
end_of_record
TN:
SF:/home/monika/Documents/problems/13702번： 이상한 술집/main.cpp
FNL:0,6,47
FNA:0,4,main
FNF:1
FNH:1
DA:6,4
DA:8,4
DA:9,4
DA:11,4
DA:12,4
DA:13,4
DA:15,14
DA:17,10
DA:20,4
DA:21,4
DA:23,40
DA:25,36
DA:26,36
DA:28,126
DA:30,90
DA:33,36
DA:35,4
DA:36,4
DA:40,32
DA:44,4
DA:46,4
DA:47,4
LF:22
LH:22
end_of_record
TN:
SF:/home/monika/Documents/problems/13761번： Banking II/Banking II.cpp
FNL:0,9,62
FNA:0,4,main
FNF:1
FNH:1
DA:9,4
DA:11,4
DA:12,4
DA:14,4
DA:15,4
DA:16,4
DA:17,4
DA:19,4
DA:20,4
DA:21,52
DA:23,48
DA:24,48
DA:27,4
DA:29,12
DA:31,8
DA:34,4
DA:35,8
DA:36,4
DA:38,12
DA:40,112
DA:42,104
DA:43,56
DA:45,245
DA:47,197
DA:48,333
DA:53,4
DA:54,56
DA:56,66
DA:59,4
DA:61,4
DA:62,4
LF:31
LH:31
end_of_record
TN:
SF:/home/monika/Documents/problems/13817번： Everlasting...？/main.cpp
FNL:0,47,62
FNA:0,1,main
FNL:1,8,45
FNA:1,4,_Z18compute_key_numberi
FNF:2
FNH:2
DA:8,4
DA:10,4
DA:11,4
DA:13,8
DA:15,4
DA:16,4
DA:19,6
DA:21,4
DA:23,2
DA:24,2
DA:28,4
DA:30,4
DA:33,4
DA:34,13
DA:36,9
DA:41,9
DA:44,4
DA:45,4
DA:47,1
DA:49,1
DA:50,1
DA:52,1
DA:53,3
DA:55,2
DA:56,2
DA:58,3
DA:61,1
LF:27
LH:27
end_of_record
TN:
SF:/home/monika/Documents/problems/13827번： Space Coconut Crab II/Space Coconut Crab II.cpp
FNL:0,24,72
FNA:0,1,main
FNL:1,6,22
FNA:1,1,_Z5sievei
FNF:2
FNH:2
DA:6,1
DA:8,1
DA:9,1
DA:10,173
DA:12,172
DA:14,54497
DA:16,54457
DA:21,1
DA:24,1
DA:26,1
DA:27,1
DA:29,1
DA:30,1
DA:32,1
DA:34,30000
DA:36,29999
DA:38,3245
DA:42,1
DA:44,7
DA:46,6
DA:47,6
DA:49,590
DA:51,590
DA:52,590
DA:54,101098
DA:56,101098
DA:57,101098
DA:59,100514
DA:61,100514
DA:63,2893
DA:68,6
DA:71,1
DA:72,1
LF:33
LH:33
end_of_record
TN:
SF:/home/monika/Documents/problems/13908번： 비밀번호/main.cpp
FNL:0,7,58
FNA:0,3,main
FNF:1
FNH:1
DA:7,3
DA:9,3
DA:10,3
DA:12,3
DA:14,8
DA:16,5
DA:17,5
DA:19,5
DA:22,9
DA:25,9
DA:27,6
DA:30,303
DA:32,300
DA:33,300
DA:35,30
DA:38,300
DA:40,361
DA:42,338
DA:49,300
DA:51,23
DA:53,300
DA:55,3
DA:57,3
DA:58,3
LF:24
LH:24
end_of_record
TN:
SF:/home/monika/Documents/problems/13935번： Hamiltonian Hypercube/Hamiltonian Hypercube.cpp
FNL:0,21,39
FNA:0,2,main
FNL:1,5,19
FNA:1,4,_Z12grayToBinaryRKNSt7__cxx1112basic_stringIcSt11char_traitsIcESaIcEEE
FNF:2
FNH:2
DA:5,4
DA:7,4
DA:8,4
DA:10,12
DA:12,8
DA:13,8
DA:14,8
DA:15,8
DA:18,4
DA:21,2
DA:23,2
DA:24,2
DA:26,2
DA:27,2
DA:29,2
DA:31,2
DA:32,2
DA:34,2
DA:36,2
DA:38,2
DA:39,2
LF:21
LH:21
end_of_record
TN:
SF:/home/monika/Documents/problems/13984번： Contest Score/Contest Score.cpp
FNL:0,7,43
FNA:0,1,main
FNF:1
FNH:1
DA:7,1
DA:9,1
DA:10,1
DA:11,1
DA:12,5
DA:14,4
DA:17,1
DA:19,1
DA:20,4
DA:22,3
DA:27,5
DA:29,4
DA:30,4
DA:31,4
DA:32,4
DA:34,4
DA:36,1
DA:37,1
DA:41,1
DA:42,1
DA:43,1
LF:21
LH:21
end_of_record
TN:
SF:/home/monika/Documents/problems/14012번： Large PhD Restaurant/Large PhD Restaurant.cpp
FNL:0,12,65
FNA:0,1,main
FNF:1
FNH:1
DA:12,1
DA:14,1
DA:15,1
DA:17,1
DA:18,1
DA:19,1
DA:20,1
DA:21,6
DA:23,5
DA:25,6
DA:27,5
DA:31,1
DA:32,10
DA:35,1
DA:36,1
DA:37,1
DA:39,4
DA:42,8
DA:44,4
DA:45,4
DA:46,4
DA:49,4
DA:53,4
DA:54,4
DA:57,4
DA:60,3
DA:63,1
DA:64,1
DA:65,1
LF:29
LH:29
end_of_record
TN:
SF:/home/monika/Documents/problems/14146번： Bomboni/Bomboni.cpp
FNL:0,5,48
FNA:0,1,main
FNF:1
FNH:1
DA:5,1
DA:7,1
DA:8,1
DA:10,1
DA:11,1
DA:13,1
DA:15,11
DA:17,37
DA:19,27
DA:23,1
DA:24,11
DA:26,10
DA:32,1
DA:33,11
DA:35,10
DA:37,3
DA:41,1
DA:42,4
DA:44,3
DA:47,1
DA:48,1
LF:21
LH:21
end_of_record
TN:
SF:/home/monika/Documents/problems/14228번： 물탱크/물탱크.cpp
FNL:0,17,54
FNA:0,1,main
FNL:1,5,15
FNA:1,100,_Z8simulateRKSt6vectorIxSaIxEES3_dd
FNF:2
FNH:2
DA:5,100
DA:7,100
DA:8,300
DA:10,200
DA:11,200
DA:14,100
DA:17,1
DA:19,1
DA:20,1
DA:22,1
DA:23,1
DA:25,1
DA:26,3
DA:28,2
DA:30,3
DA:32,2
DA:35,1
DA:37,101
DA:39,100
DA:40,100
DA:46,53
DA:49,1
DA:50,1
DA:51,1
DA:53,1
DA:54,1
LF:26
LH:26
end_of_record
TN:
SF:/home/monika/Documents/problems/14228번： 물탱크/main.cpp
FNL:0,17,54
FNA:0,2,main
FNL:1,5,15
FNA:1,200,_Z8simulateRKSt6vectorIxSaIxEES3_dd
FNF:2
FNH:2
DA:5,200
DA:7,200
DA:8,600
DA:10,400
DA:11,400
DA:14,200
DA:17,2
DA:19,2
DA:20,2
DA:22,2
DA:23,2
DA:25,2
DA:26,6
DA:28,4
DA:30,6
DA:32,4
DA:35,2
DA:37,202
DA:39,200
DA:40,200
DA:46,106
DA:49,2
DA:50,2
DA:51,2
DA:53,2
DA:54,2
LF:26
LH:26
end_of_record
TN:
SF:/usr/include/c++/14/array
FNF:0
FNH:0
DA:214,3
LF:1
LH:1
end_of_record
TN:
SF:/usr/include/c++/14/bit
FNF:0
FNH:0
DA:201,5
DA:204,5
DA:206,5
DA:209,5
DA:210,5
DA:211,5
DA:215,3
DA:216,3
DA:220,2
DA:221,2
DA:233,0
DA:234,0
DA:236,0
DA:237,0
DA:239,0
DA:240,0
DA:241,0
DA:371,5
DA:373,5
DA:374,5
DA:459,0
DA:460,0
LF:22
LH:13
end_of_record
TN:
SF:/usr/include/c++/14/bits/alloc_traits.h
FNF:0
FNH:0
DA:514,283
DA:515,264
DA:549,283
DA:550,283
DA:566,3437
DA:577,3437
DA:581,16
DA:593,24
DA:599,24
DA:626,28
DA:627,28
DA:990,46
DA:993,8
LF:13
LH:13
end_of_record
TN:
SF:/usr/include/c++/14/bits/allocator.h
FNF:0
FNH:0
DA:161,432
DA:165,28
DA:176,40
DA:182,883
DA:187,262
DA:196,283
DA:201,283
DA:208,283
LF:8
LH:8
end_of_record
TN:
SF:/usr/include/c++/14/bits/basic_ios.h
FNF:0
FNH:0
DA:121,10
DA:122,10
DA:141,10
DA:142,10
DA:205,10
DA:206,10
DA:311,43
DA:313,43
DA:314,43
DA:315,1
LF:10
LH:10
end_of_record
TN:
SF:/usr/include/c++/14/bits/basic_string.h
FNL:0,1466,1471
FNA:0,33,_ZNSt7__cxx1112basic_stringIcSt11char_traitsIcESaIcEE6appendEPKcm
FNL:1,1498,1499
FNA:1,0,_ZNSt7__cxx1112basic_stringIcSt11char_traitsIcESaIcEE6appendEmc
FNL:2,1572,1579
FNA:2,0,_ZNSt7__cxx1112basic_stringIcSt11char_traitsIcESaIcEE9push_backEc
FNL:3,1692,1697
FNA:3,0,_ZNSt7__cxx1112basic_stringIcSt11char_traitsIcESaIcEE6assignEPKc
FNL:4,1728,1744
FNA:4,8,_ZNSt7__cxx1112basic_stringIcSt11char_traitsIcESaIcEE6assignIPcvEERS4_T_S8_
FNL:5,1787,1791
FNA:5,0,_ZNSt7__cxx1112basic_stringIcSt11char_traitsIcESaIcEE6assignISt17basic_string_viewIcS2_EEENSt9enable_ifIXsrSt6__and_IJSt14is_convertibleIRKT_S7_ESt6__not_ISA_IPSC_PKS4_EESF_ISA_ISD_PKcEEEE5valueERS4_E4typeESD_
FNL:6,2032,2034
FNA:6,0,_ZNSt7__cxx1112basic_stringIcSt11char_traitsIcESaIcEE6insertEmmc
FNL:7,285,289
FNA:7,478,_ZNSt7__cxx1112basic_stringIcSt11char_traitsIcESaIcEE10_M_disposeEv
FNL:8,3682,3684
FNA:8,30,_ZStplIcSt11char_traitsIcESaIcEENSt7__cxx1112basic_stringIT_T0_T1_EEOS8_RKS8_
FNL:9,3755,3761
FNA:9,95,_ZSteqIcSt11char_traitsIcESaIcEEbRKNSt7__cxx1112basic_stringIT_T0_T1_EESA_
FNL:10,3772,3777
FNA:10,0,_ZSteqIcSt11char_traitsIcESaIcEEbRKNSt7__cxx1112basic_stringIT_T0_T1_EEPKS5_
FNL:11,430,436
FNA:11,95,_ZNSt7__cxx1112basic_stringIcSt11char_traitsIcESaIcEE7_S_copyEPcPKcm
FNL:12,4310,4323
FNA:12,300,_ZNSt7__cxx119to_stringEx
FNL:13,440,446
FNA:13,0,_ZNSt7__cxx1112basic_stringIcSt11char_traitsIcESaIcEE7_S_moveEPcPKcm
FNL:14,450,456
FNA:14,30,_ZNSt7__cxx1112basic_stringIcSt11char_traitsIcESaIcEE9_S_assignEPcmc
FNL:15,552,558
FNA:15,16,_ZNSt7__cxx1112basic_stringIcSt11char_traitsIcESaIcEEC2ERKS4_
FNL:16,682,703
FNA:16,33,_ZNSt7__cxx1112basic_stringIcSt11char_traitsIcESaIcEEC2EOS4_
FNL:17,808,809
FNA:17,1,_ZNSt7__cxx1112basic_stringIcSt11char_traitsIcESaIcEED2Ev
FNL:18,858,918
FNA:18,38,_ZNSt7__cxx1112basic_stringIcSt11char_traitsIcESaIcEEaSEOS4_
FNF:19
FNH:12
DA:129,0
DA:131,0
DA:186,462
DA:193,30
DA:194,30
DA:197,409
DA:198,409
DA:217,33
DA:218,0
DA:222,864
DA:223,864
DA:227,2346
DA:228,916
DA:232,439
DA:235,376
DA:243,936
DA:246,936
DA:254,0
DA:255,0
DA:259,864
DA:261,864
DA:262,801
DA:263,46
DA:267,936
DA:269,936
DA:271,936
DA:272,0
DA:285,478
DA:287,478
DA:288,0
DA:289,478
DA:293,0
DA:294,0
DA:341,33
DA:342,0
DA:346,16
DA:347,16
DA:353,381
DA:360,0
DA:365,33
DA:368,33
DA:370,33
DA:391,0
DA:393,0
DA:394,0
DA:402,41
DA:404,41
DA:405,0
DA:420,8
DA:422,8
DA:423,8
DA:430,95
DA:432,95
DA:433,30
DA:435,95
DA:436,95
DA:440,0
DA:442,0
DA:443,0
DA:445,0
DA:446,0
DA:450,30
DA:452,30
DA:453,30
DA:455,0
DA:456,30
DA:482,16
DA:483,16
DA:527,360
DA:529,360
DA:531,360
DA:532,360
DA:552,16
DA:553,16
DA:554,16
DA:556,16
DA:558,16
DA:669,30
DA:670,30
DA:671,30
DA:682,33
DA:683,33
DA:685,33
DA:687,33
DA:688,33
DA:689,33
DA:693,0
DA:694,0
DA:700,33
DA:701,33
DA:702,33
DA:703,33
DA:765,0
DA:767,0
DA:770,0
DA:808,117
DA:809,423
DA:828,0
DA:829,0
DA:858,38
DA:861,38
DA:863,38
DA:872,38
DA:874,38
DA:879,38
DA:881,38
DA:882,38
DA:883,38
DA:889,0
DA:891,0
DA:896,0
DA:897,0
DA:903,0
DA:904,0
DA:905,0
DA:906,0
DA:908,0
DA:909,0
DA:912,0
DA:916,38
DA:917,38
DA:941,0
DA:942,0
DA:949,0
DA:950,0
DA:1076,912
DA:1077,822
DA:1083,73
DA:1084,24
DA:1118,0
DA:1119,0
DA:1180,349
DA:1182,349
DA:1222,38
DA:1223,38
DA:1231,0
DA:1232,0
DA:1247,12
DA:1249,12
DA:1250,12
DA:1265,203
DA:1269,203
DA:1272,201
DA:1397,0
DA:1399,0
DA:1400,0
DA:1435,30
DA:1436,30
DA:1466,33
DA:1469,33
DA:1470,33
DA:1498,0
DA:1499,0
DA:1541,0
DA:1543,0
DA:1544,0
DA:1572,0
DA:1574,0
DA:1575,0
DA:1576,0
DA:1577,0
DA:1578,0
DA:1579,0
DA:1675,0
DA:1678,0
DA:1692,0
DA:1695,0
DA:1696,0
DA:1728,8
DA:1739,8
DA:1740,8
DA:1787,0
DA:1789,0
DA:1790,0
DA:2032,0
DA:2033,0
DA:2034,0
DA:2653,38
DA:2654,35
DA:2665,0
DA:2666,0
DA:3682,30
DA:3684,30
DA:3755,95
DA:3759,95
DA:3760,95
DA:3772,0
DA:3775,0
DA:3776,0
DA:4077,3
DA:4082,3
DA:4310,300
DA:4312,300
DA:4313,600
DA:4314,300
DA:4315,300
DA:4316,300
DA:4317,300
DA:4318,300
DA:4319,300
DA:4320,300
DA:4322,300
DA:4323,0
DA:4616,16
DA:4617,16
LF:205
LH:126
end_of_record
TN:
SF:/usr/include/c++/14/bits/basic_string.tcc
FNL:0,138,160
FNA:0,0,_ZNSt7__cxx1112basic_stringIcSt11char_traitsIcESaIcEE9_M_createERmm
FNL:1,170,215
FNA:1,0,_ZNSt7__cxx1112basic_stringIcSt11char_traitsIcESaIcEE12_M_constructINSt9__unicode13_Utf_iteratorIDicPKDiS9_NS6_5_ReplEEEEEvT_SC_St18input_iterator_tag
FNL:2,221,252
FNA:2,16,_ZNSt7__cxx1112basic_stringIcSt11char_traitsIcESaIcEE12_M_constructIPcEEvT_S7_St20forward_iterator_tag
FNL:3,257,272
FNA:3,30,_ZNSt7__cxx1112basic_stringIcSt11char_traitsIcESaIcEE12_M_constructEmc
FNL:4,277,299
FNA:4,8,_ZNSt7__cxx1112basic_stringIcSt11char_traitsIcESaIcEE9_M_assignERKS4_
FNL:5,304,320
FNA:5,300,_ZNSt7__cxx1112basic_stringIcSt11char_traitsIcESaIcEE7reserveEm
FNL:6,325,345
FNA:6,0,_ZNSt7__cxx1112basic_stringIcSt11char_traitsIcESaIcEE9_M_mutateEmmPKcm
FNL:7,400,408
FNA:7,0,_ZNSt7__cxx1112basic_stringIcSt11char_traitsIcESaIcEE6resizeEmc
FNL:8,413,428
FNA:8,33,_ZNSt7__cxx1112basic_stringIcSt11char_traitsIcESaIcEE9_M_appendEPKcm
FNL:9,450,475
FNA:9,0,_ZNSt7__cxx1112basic_stringIcSt11char_traitsIcESaIcEE14_M_replace_auxEmmmc
FNL:10,511,552
FNA:10,8,_ZNSt7__cxx1112basic_stringIcSt11char_traitsIcESaIcEE10_M_replaceEmmPKcm
FNL:11,583,613
FNA:11,0,_ZNSt7__cxx1112basic_stringIcSt11char_traitsIcESaIcEE20resize_and_overwriteIRZNKSt8__format14__formatter_fpIcE11_M_localizeESt17basic_string_viewIcS2_EcRKSt6localeEUlPcmE_EEvmT_
FNA:11,0,_ZNSt7__cxx1112basic_stringIcSt11char_traitsIcESaIcEE20resize_and_overwriteIRZNKSt8__format14__formatter_fpIcE6formatIDF128_NS6_10_Sink_iterIcEEEENSt20basic_format_contextIT0_cE8iteratorET_RSE_EUlPcmE_EEvmSG_
FNA:11,0,_ZNSt7__cxx1112basic_stringIcSt11char_traitsIcESaIcEE20resize_and_overwriteIRZNKSt8__format14__formatter_fpIcE6formatIdNS6_10_Sink_iterIcEEEENSt20basic_format_contextIT0_cE8iteratorET_RSE_EUlPcmE_EEvmSG_
FNA:11,0,_ZNSt7__cxx1112basic_stringIcSt11char_traitsIcESaIcEE20resize_and_overwriteIRZNKSt8__format14__formatter_fpIcE6formatIeNS6_10_Sink_iterIcEEEENSt20basic_format_contextIT0_cE8iteratorET_RSE_EUlPcmE_EEvmSG_
FNA:11,0,_ZNSt7__cxx1112basic_stringIcSt11char_traitsIcESaIcEE20resize_and_overwriteIRZNKSt8__format14__formatter_fpIcE6formatIfNS6_10_Sink_iterIcEEEENSt20basic_format_contextIT0_cE8iteratorET_RSE_EUlPcmE_EEvmSG_
FNA:11,300,_ZNSt7__cxx1112basic_stringIcSt11char_traitsIcESaIcEE20resize_and_overwriteIRZNS_9to_stringExEUlPcmE_EEvmT_
FNL:12,663,677
FNA:12,338,_ZNKSt7__cxx1112basic_stringIcSt11char_traitsIcESaIcEE4findEcm
FNF:13
FNH:8
DA:138,0
DA:143,0
DA:144,0
DA:149,0
DA:151,0
DA:153,0
DA:154,0
DA:159,0
DA:170,0
DA:174,0
DA:175,0
DA:177,0
DA:179,0
DA:181,0
DA:182,0
DA:188,0
DA:191,0
DA:194,0
DA:196,0
DA:198,0
DA:201,0
DA:202,0
DA:203,0
DA:204,0
DA:205,0
DA:206,0
DA:208,0
DA:209,0
DA:212,0
DA:214,0
DA:215,0
DA:221,16
DA:225,16
DA:227,16
DA:229,0
DA:230,0
DA:239,16
DA:242,16
DA:245,16
DA:247,16
DA:249,16
DA:251,16
DA:252,16
DA:257,30
DA:260,30
DA:262,0
DA:263,0
DA:268,30
DA:269,30
DA:271,30
DA:272,30
DA:277,8
DA:280,8
DA:282,8
DA:283,8
DA:285,8
DA:287,0
DA:288,0
DA:289,0
DA:290,0
DA:291,0
DA:294,8
DA:295,0
DA:297,8
DA:299,8
DA:304,300
DA:307,300
DA:312,300
DA:315,0
DA:316,0
DA:317,0
DA:318,0
DA:319,0
DA:325,0
DA:329,0
DA:331,0
DA:332,0
DA:334,0
DA:335,0
DA:336,0
DA:337,0
DA:338,0
DA:339,0
DA:340,0
DA:342,0
DA:343,0
DA:344,0
DA:345,0
DA:400,0
DA:403,0
DA:404,0
DA:405,0
DA:406,0
DA:407,0
DA:408,0
DA:413,33
DA:416,33
DA:418,33
DA:420,33
DA:421,33
DA:424,0
DA:426,33
DA:427,33
DA:450,0
DA:454,0
DA:456,0
DA:457,0
DA:459,0
DA:461,0
DA:463,0
DA:464,0
DA:465,0
DA:468,0
DA:470,0
DA:471,0
DA:473,0
DA:474,0
DA:511,8
DA:515,8
DA:517,8
DA:518,8
DA:520,8
DA:522,8
DA:524,8
DA:537,8
DA:539,8
DA:540,0
DA:541,8
DA:542,8
DA:545,0
DA:548,0
DA:550,8
DA:551,8
DA:574,300
DA:576,300
DA:583,300
DA:590,300
DA:591,300
DA:597,300
DA:601,300
DA:602,300
DA:610,300
DA:611,0
DA:612,0
DA:613,300
DA:663,338
DA:666,338
DA:667,338
DA:668,338
DA:670,338
DA:671,338
DA:672,338
DA:673,338
DA:674,61
DA:676,338
LF:155
LH:67
end_of_record
TN:
SF:/usr/include/c++/14/bits/char_traits.h
FNF:0
FNH:0
DA:343,924
DA:346,924
DA:350,466
DA:351,60
DA:354,0
DA:355,0
DA:366,19
DA:368,19
DA:371,19
DA:381,19
DA:385,0
DA:388,0
DA:391,0
DA:395,344
DA:397,344
DA:400,344
DA:403,344
DA:407,0
DA:409,0
DA:412,0
DA:415,0
DA:419,101
DA:421,68
DA:424,93
DA:427,93
DA:431,0
DA:433,0
DA:436,0
DA:439,0
LF:29
LH:16
end_of_record
TN:
SF:/usr/include/c++/14/bits/charconv.h
FNL:0,55,74
FNA:0,0,_ZNSt8__detail14__to_chars_lenIjEEjT_i
FNA:0,0,_ZNSt8__detail14__to_chars_lenImEEjT_i
FNA:0,0,_ZNSt8__detail14__to_chars_lenIoEEjT_i
FNA:0,300,_ZNSt8__detail14__to_chars_lenIyEEjT_i
FNL:1,81,110
FNA:1,0,_ZNSt8__detail18__to_chars_10_implIjEEvPcjT_
FNA:1,0,_ZNSt8__detail18__to_chars_10_implImEEvPcjT_
FNA:1,0,_ZNSt8__detail18__to_chars_10_implIoEEvPcjT_
FNA:1,300,_ZNSt8__detail18__to_chars_10_implIyEEvPcjT_
FNF:2
FNH:2
DA:55,300
DA:61,300
DA:62,300
DA:63,300
DA:64,300
DA:65,0
DA:67,300
DA:68,270
DA:69,0
DA:70,0
DA:71,0
DA:72,0
DA:81,300
DA:87,300
DA:93,300
DA:94,300
DA:96,0
DA:97,0
DA:98,0
DA:99,0
DA:100,0
DA:102,300
DA:104,270
DA:105,270
DA:106,270
DA:109,30
DA:110,300
LF:27
LH:17
end_of_record
TN:
SF:/usr/include/c++/14/bits/functional_hash.h
FNF:0
FNH:0
DA:160,570
DA:204,16
DA:206,16
LF:3
LH:3
end_of_record
TN:
SF:/usr/include/c++/14/bits/hashtable.h
FNL:0,1252,1264
FNA:0,1,_ZNSt10_HashtableIxxSaIxENSt8__detail9_IdentityESt8equal_toIxESt4hashIxENS1_18_Mod_range_hashingENS1_20_Default_ranged_hashENS1_20_Prime_rehash_policyENS1_17_Hashtable_traitsILb0ELb1ELb1EEEEC2EmRKS6_RKS4_RKS0_
FNL:1,1271,1278
FNA:1,1,_ZNSt10_HashtableIxxSaIxENSt8__detail9_IdentityESt8equal_toIxESt4hashIxENS1_18_Mod_range_hashingENS1_20_Default_ranged_hashENS1_20_Prime_rehash_policyENS1_17_Hashtable_traitsILb0ELb1ELb1EEEEC2IN9__gnu_cxx17__normal_iteratorIPxSt6vectorIxS0_EEEEET_SK_mRKS6_RKS4_RKS0_St17integral_constantIbLb1EE
FNL:2,1727,1743
FNA:2,8,_ZNSt10_HashtableINSt7__cxx1112basic_stringIcSt11char_traitsIcESaIcEEES5_SaIS5_ENSt8__detail9_IdentityESt8equal_toIS5_ESt4hashIS5_ENS7_18_Mod_range_hashingENS7_20_Default_ranged_hashENS7_20_Prime_rehash_policyENS7_17_Hashtable_traitsILb1ELb1ELb1EEEE4findERKS5_
FNL:3,1750,1766
FNA:3,136,_ZNKSt10_HashtableIxSt4pairIKxxESaIS2_ENSt8__detail10_Select1stESt8equal_toIxESt4hashIxENS4_18_Mod_range_hashingENS4_20_Default_ranged_hashENS4_20_Prime_rehash_policyENS4_17_Hashtable_traitsILb0ELb0ELb1EEEE4findERS1_
FNA:3,14,_ZNKSt10_HashtableIxxSaIxENSt8__detail9_IdentityESt8equal_toIxESt4hashIxENS1_18_Mod_range_hashingENS1_20_Default_ranged_hashENS1_20_Prime_rehash_policyENS1_17_Hashtable_traitsILb0ELb1ELb1EEEE4findERKx
FNL:4,2065,2087
FNA:4,0,_ZNKSt10_HashtableINSt7__cxx1112basic_stringIcSt11char_traitsIcESaIcEEES5_SaIS5_ENSt8__detail9_IdentityESt8equal_toIS5_ESt4hashIS5_ENS7_18_Mod_range_hashingENS7_20_Default_ranged_hashENS7_20_Prime_rehash_policyENS7_17_Hashtable_traitsILb1ELb1ELb1EEEE19_M_find_before_nodeEmRKS5_m
FNA:4,258,_ZNKSt10_HashtableIxSt4pairIKxxESaIS2_ENSt8__detail10_Select1stESt8equal_toIxESt4hashIxENS4_18_Mod_range_hashingENS4_20_Default_ranged_hashENS4_20_Prime_rehash_policyENS4_17_Hashtable_traitsILb0ELb0ELb1EEEE19_M_find_before_nodeEmRS1_m
FNA:4,14,_ZNKSt10_HashtableIxxSaIxENSt8__detail9_IdentityESt8equal_toIxESt4hashIxENS1_18_Mod_range_hashingENS1_20_Default_ranged_hashENS1_20_Prime_rehash_policyENS1_17_Hashtable_traitsILb0ELb1ELb1EEEE19_M_find_before_nodeEmRKxm
FNL:5,2095,2117
FNA:5,0,_ZNKSt10_HashtableINSt7__cxx1112basic_stringIcSt11char_traitsIcESaIcEEES5_SaIS5_ENSt8__detail9_IdentityESt8equal_toIS5_ESt4hashIS5_ENS7_18_Mod_range_hashingENS7_20_Default_ranged_hashENS7_20_Prime_rehash_policyENS7_17_Hashtable_traitsILb1ELb1ELb1EEEE22_M_find_before_node_trIS5_EEPNS7_15_Hash_node_baseEmRKT_m
FNA:5,7,_ZNKSt10_HashtableIxxSaIxENSt8__detail9_IdentityESt8equal_toIxESt4hashIxENS1_18_Mod_range_hashingENS1_20_Default_ranged_hashENS1_20_Prime_rehash_policyENS1_17_Hashtable_traitsILb0ELb1ELb1EEEE22_M_find_before_node_trIxEEPNS1_15_Hash_node_baseEmRKT_m
FNL:6,2228,2252
FNA:6,16,_ZNSt10_HashtableINSt7__cxx1112basic_stringIcSt11char_traitsIcESaIcEEES5_SaIS5_ENSt8__detail9_IdentityESt8equal_toIS5_ESt4hashIS5_ENS7_18_Mod_range_hashingENS7_20_Default_ranged_hashENS7_20_Prime_rehash_policyENS7_17_Hashtable_traitsILb1ELb1ELb1EEEE21_M_insert_unique_nodeEmmPNS7_10_Hash_nodeIS5_Lb1EEEm
FNA:6,119,_ZNSt10_HashtableIxSt4pairIKxxESaIS2_ENSt8__detail10_Select1stESt8equal_toIxESt4hashIxENS4_18_Mod_range_hashingENS4_20_Default_ranged_hashENS4_20_Prime_rehash_policyENS4_17_Hashtable_traitsILb0ELb0ELb1EEEE21_M_insert_unique_nodeEmmPNS4_10_Hash_nodeIS2_Lb0EEEm
FNA:6,8,_ZNSt10_HashtableIxxSaIxENSt8__detail9_IdentityESt8equal_toIxESt4hashIxENS1_18_Mod_range_hashingENS1_20_Default_ranged_hashENS1_20_Prime_rehash_policyENS1_17_Hashtable_traitsILb0ELb1ELb1EEEE21_M_insert_unique_nodeEmmPNS1_10_Hash_nodeIxLb0EEEm
FNL:7,2317,2346
FNA:7,16,_ZNSt10_HashtableINSt7__cxx1112basic_stringIcSt11char_traitsIcESaIcEEES5_SaIS5_ENSt8__detail9_IdentityESt8equal_toIS5_ESt4hashIS5_ENS7_18_Mod_range_hashingENS7_20_Default_ranged_hashENS7_20_Prime_rehash_policyENS7_17_Hashtable_traitsILb1ELb1ELb1EEEE16_M_insert_uniqueIRKS5_SL_NS7_10_AllocNodeISaINS7_10_Hash_nodeIS5_Lb1EEEEEEEESt4pairINS7_14_Node_iteratorIS5_Lb1ELb1EEEbEOT_OT0_RKT1_
FNA:7,8,_ZNSt10_HashtableIxxSaIxENSt8__detail9_IdentityESt8equal_toIxESt4hashIxENS1_18_Mod_range_hashingENS1_20_Default_ranged_hashENS1_20_Prime_rehash_policyENS1_17_Hashtable_traitsILb0ELb1ELb1EEEE16_M_insert_uniqueIRxSE_NS1_10_AllocNodeISaINS1_10_Hash_nodeIxLb0EEEEEEEESt4pairINS1_14_Node_iteratorIxLb1ELb0EEEbEOT_OT0_RKT1_
FNL:8,2584,2593
FNA:8,8,_ZNSt10_HashtableINSt7__cxx1112basic_stringIcSt11char_traitsIcESaIcEEES5_SaIS5_ENSt8__detail9_IdentityESt8equal_toIS5_ESt4hashIS5_ENS7_18_Mod_range_hashingENS7_20_Default_ranged_hashENS7_20_Prime_rehash_policyENS7_17_Hashtable_traitsILb1ELb1ELb1EEEE5clearEv
FNA:8,34,_ZNSt10_HashtableIxSt4pairIKxxESaIS2_ENSt8__detail10_Select1stESt8equal_toIxESt4hashIxENS4_18_Mod_range_hashingENS4_20_Default_ranged_hashENS4_20_Prime_rehash_policyENS4_17_Hashtable_traitsILb0ELb0ELb1EEEE5clearEv
FNA:8,1,_ZNSt10_HashtableIxxSaIxENSt8__detail9_IdentityESt8equal_toIxESt4hashIxENS1_18_Mod_range_hashingENS1_20_Default_ranged_hashENS1_20_Prime_rehash_policyENS1_17_Hashtable_traitsILb0ELb1ELb1EEEE5clearEv
FNL:9,2623,2657
FNA:9,8,_ZNSt10_HashtableINSt7__cxx1112basic_stringIcSt11char_traitsIcESaIcEEES5_SaIS5_ENSt8__detail9_IdentityESt8equal_toIS5_ESt4hashIS5_ENS7_18_Mod_range_hashingENS7_20_Default_ranged_hashENS7_20_Prime_rehash_policyENS7_17_Hashtable_traitsILb1ELb1ELb1EEEE9_M_rehashEmSt17integral_constantIbLb1EE
FNA:9,10,_ZNSt10_HashtableIxSt4pairIKxxESaIS2_ENSt8__detail10_Select1stESt8equal_toIxESt4hashIxENS4_18_Mod_range_hashingENS4_20_Default_ranged_hashENS4_20_Prime_rehash_policyENS4_17_Hashtable_traitsILb0ELb0ELb1EEEE9_M_rehashEmSt17integral_constantIbLb1EE
FNA:9,1,_ZNSt10_HashtableIxxSaIxENSt8__detail9_IdentityESt8equal_toIxESt4hashIxENS1_18_Mod_range_hashingENS1_20_Default_ranged_hashENS1_20_Prime_rehash_policyENS1_17_Hashtable_traitsILb0ELb1ELb1EEEE9_M_rehashEmSt17integral_constantIbLb1EE
FNL:10,316,316
FNA:10,16,_ZNSt10_HashtableINSt7__cxx1112basic_stringIcSt11char_traitsIcESaIcEEES5_SaIS5_ENSt8__detail9_IdentityESt8equal_toIS5_ESt4hashIS5_ENS7_18_Mod_range_hashingENS7_20_Default_ranged_hashENS7_20_Prime_rehash_policyENS7_17_Hashtable_traitsILb1ELb1ELb1EEEE12_Scoped_nodeD2Ev
FNA:10,119,_ZNSt10_HashtableIxSt4pairIKxxESaIS2_ENSt8__detail10_Select1stESt8equal_toIxESt4hashIxENS4_18_Mod_range_hashingENS4_20_Default_ranged_hashENS4_20_Prime_rehash_policyENS4_17_Hashtable_traitsILb0ELb0ELb1EEEE12_Scoped_nodeD2Ev
FNA:10,8,_ZNSt10_HashtableIxxSaIxENSt8__detail9_IdentityESt8equal_toIxESt4hashIxENS1_18_Mod_range_hashingENS1_20_Default_ranged_hashENS1_20_Prime_rehash_policyENS1_17_Hashtable_traitsILb0ELb1ELb1EEEE12_Scoped_nodeD2Ev
FNL:11,460,461
FNA:11,16,_ZNSt10_HashtableINSt7__cxx1112basic_stringIcSt11char_traitsIcESaIcEEES5_SaIS5_ENSt8__detail9_IdentityESt8equal_toIS5_ESt4hashIS5_ENS7_18_Mod_range_hashingENS7_20_Default_ranged_hashENS7_20_Prime_rehash_policyENS7_17_Hashtable_traitsILb1ELb1ELb1EEEE21_M_deallocate_bucketsEv
FNA:11,30,_ZNSt10_HashtableIxSt4pairIKxxESaIS2_ENSt8__detail10_Select1stESt8equal_toIxESt4hashIxENS4_18_Mod_range_hashingENS4_20_Default_ranged_hashENS4_20_Prime_rehash_policyENS4_17_Hashtable_traitsILb0ELb0ELb1EEEE21_M_deallocate_bucketsEv
FNA:11,2,_ZNSt10_HashtableIxxSaIxENSt8__detail9_IdentityESt8equal_toIxESt4hashIxENS1_18_Mod_range_hashingENS1_20_Default_ranged_hashENS1_20_Prime_rehash_policyENS1_17_Hashtable_traitsILb0ELb1ELb1EEEE21_M_deallocate_bucketsEv
FNL:12,841,865
FNA:12,16,_ZNSt10_HashtableINSt7__cxx1112basic_stringIcSt11char_traitsIcESaIcEEES5_SaIS5_ENSt8__detail9_IdentityESt8equal_toIS5_ESt4hashIS5_ENS7_18_Mod_range_hashingENS7_20_Default_ranged_hashENS7_20_Prime_rehash_policyENS7_17_Hashtable_traitsILb1ELb1ELb1EEEE22_M_insert_bucket_beginEmPNS7_10_Hash_nodeIS5_Lb1EEE
FNA:12,119,_ZNSt10_HashtableIxSt4pairIKxxESaIS2_ENSt8__detail10_Select1stESt8equal_toIxESt4hashIxENS4_18_Mod_range_hashingENS4_20_Default_ranged_hashENS4_20_Prime_rehash_policyENS4_17_Hashtable_traitsILb0ELb0ELb1EEEE22_M_insert_bucket_beginEmPNS4_10_Hash_nodeIS2_Lb0EEE
FNA:12,8,_ZNSt10_HashtableIxxSaIxENSt8__detail9_IdentityESt8equal_toIxESt4hashIxENS1_18_Mod_range_hashingENS1_20_Default_ranged_hashENS1_20_Prime_rehash_policyENS1_17_Hashtable_traitsILb0ELb1ELb1EEEE22_M_insert_bucket_beginEmPNS1_10_Hash_nodeIxLb0EEE
FNF:13
FNH:13
DA:305,24
DA:306,24
DA:310,119
DA:311,119
DA:312,119
DA:316,143
DA:421,48
DA:422,48
DA:439,19
DA:441,18
DA:443,0
DA:444,0
DA:447,19
DA:451,48
DA:453,48
DA:456,19
DA:460,48
DA:461,48
DA:473,101
DA:474,101
DA:495,1
DA:498,1
DA:499,1
DA:539,8
DA:571,1
DA:577,1
DA:640,16
DA:641,8
DA:644,14
DA:645,14
DA:656,182
DA:657,182
DA:799,176
DA:800,176
DA:803,315
DA:804,155
DA:819,272
DA:822,272
DA:823,150
DA:824,46
DA:830,7
DA:833,7
DA:834,7
DA:835,0
DA:841,143
DA:843,143
DA:847,54
DA:848,54
DA:855,89
DA:856,89
DA:858,89
DA:861,66
DA:863,89
DA:865,143
DA:945,24
DA:947,24
DA:954,24
DA:959,24
DA:1252,1
DA:1256,1
DA:1258,1
DA:1259,1
DA:1261,0
DA:1262,0
DA:1264,1
DA:1271,1
DA:1277,1
DA:1278,1
DA:1658,9
DA:1671,9
DA:1672,9
DA:1673,9
DA:1727,8
DA:1732,8
DA:1734,16
DA:1735,8
DA:1736,0
DA:1737,8
DA:1740,0
DA:1741,0
DA:1742,0
DA:1750,150
DA:1755,150
DA:1757,14
DA:1758,0
DA:1759,0
DA:1760,14
DA:1763,136
DA:1764,136
DA:1765,136
DA:1823,150
DA:1828,150
DA:1829,144
DA:2065,272
DA:2071,272
DA:2072,272
DA:2075,140
DA:2078,166
DA:2081,120
DA:2095,7
DA:2101,7
DA:2102,7
DA:2105,0
DA:2108,0
DA:2111,0
DA:2228,143
DA:2234,143
DA:2236,143
DA:2239,143
DA:2241,19
DA:2242,19
DA:2245,143
DA:2246,16
DA:2249,143
DA:2250,143
DA:2251,143
DA:2252,143
DA:2317,24
DA:2323,24
DA:2324,24
DA:2325,25
DA:2326,8
DA:2327,0
DA:2329,24
DA:2330,24
DA:2332,24
DA:2333,24
DA:2334,0
DA:2336,24
DA:2343,24
DA:2344,24
DA:2345,24
DA:2346,24
DA:2584,43
DA:2588,43
DA:2589,43
DA:2590,43
DA:2591,43
DA:2592,43
DA:2593,43
DA:2623,19
DA:2627,19
DA:2628,19
DA:2629,19
DA:2630,19
DA:2631,133
DA:2633,114
DA:2635,114
DA:2636,114
DA:2638,98
DA:2639,98
DA:2640,98
DA:2641,98
DA:2642,94
DA:2647,16
DA:2648,16
DA:2654,19
DA:2655,19
DA:2656,19
DA:2657,19
LF:160
LH:144
end_of_record
TN:
SF:/usr/include/c++/14/bits/hashtable_policy.h
FNL:0,2017,2036
FNA:0,16,_ZNSt8__detail16_Hashtable_allocISaINS_10_Hash_nodeINSt7__cxx1112basic_stringIcSt11char_traitsIcESaIcEEELb1EEEEE16_M_allocate_nodeIJRKS7_EEEPS8_DpOT_
FNL:1,2058,2066
FNA:1,8,_ZNSt8__detail16_Hashtable_allocISaINS_10_Hash_nodeINSt7__cxx1112basic_stringIcSt11char_traitsIcESaIcEEELb1EEEEE19_M_deallocate_nodesEPS8_
FNL:2,2070,2079
FNA:2,8,_ZNSt8__detail16_Hashtable_allocISaINS_10_Hash_nodeINSt7__cxx1112basic_stringIcSt11char_traitsIcESaIcEEELb1EEEEE19_M_allocate_bucketsEm
FNA:2,10,_ZNSt8__detail16_Hashtable_allocISaINS_10_Hash_nodeISt4pairIKxxELb0EEEEE19_M_allocate_bucketsEm
FNA:2,1,_ZNSt8__detail16_Hashtable_allocISaINS_10_Hash_nodeIxLb0EEEEE19_M_allocate_bucketsEm
FNL:3,832,853
FNA:3,136,_ZNSt8__detail9_Map_baseIxSt4pairIKxxESaIS3_ENS_10_Select1stESt8equal_toIxESt4hashIxENS_18_Mod_range_hashingENS_20_Default_ranged_hashENS_20_Prime_rehash_policyENS_17_Hashtable_traitsILb0ELb0ELb1EEELb1EEixERS2_
FNL:4,954,959
FNA:4,16,_ZNSt8__detail12_Insert_baseINSt7__cxx1112basic_stringIcSt11char_traitsIcESaIcEEES6_SaIS6_ENS_9_IdentityESt8equal_toIS6_ESt4hashIS6_ENS_18_Mod_range_hashingENS_20_Default_ranged_hashENS_20_Prime_rehash_policyENS_17_Hashtable_traitsILb1ELb1ELb1EEEE6insertERKS6_
FNL:5,999,1004
FNA:5,1,_ZNSt8__detail12_Insert_baseIxxSaIxENS_9_IdentityESt8equal_toIxESt4hashIxENS_18_Mod_range_hashingENS_20_Default_ranged_hashENS_20_Prime_rehash_policyENS_17_Hashtable_traitsILb0ELb1ELb1EEEE6insertIN9__gnu_cxx17__normal_iteratorIPxSt6vectorIxS1_EEEEEvT_SK_
FNF:6
FNH:6
DA:171,24
DA:173,24
DA:248,17
DA:249,17
DA:253,24
DA:254,24
DA:319,152
DA:338,32
DA:339,422
DA:343,16
DA:344,472
DA:349,17
DA:353,16
DA:354,16
DA:381,143
DA:386,273
DA:387,130
DA:399,309
DA:442,159
DA:443,159
DA:450,119
DA:451,119
DA:489,150
DA:490,150
DA:532,605
DA:534,314
DA:550,9
DA:551,9
DA:577,143
DA:578,143
DA:585,0
DA:586,0
DA:730,143
DA:731,143
DA:732,143
DA:736,143
DA:739,0
DA:832,136
DA:837,136
DA:838,136
DA:839,136
DA:840,17
DA:841,17
DA:843,119
DA:846,119
DA:850,119
DA:851,119
DA:852,119
DA:853,119
DA:954,16
DA:956,16
DA:957,16
DA:958,16
DA:999,1
DA:1001,1
DA:1002,1
DA:1003,1
DA:1013,1
DA:1019,1
DA:1020,9
DA:1021,8
DA:1242,9
DA:1245,8
DA:1248,1
DA:1328,8
DA:1330,1
DA:1333,562
DA:1337,279
DA:1342,24
DA:1346,24
DA:1358,315
DA:1359,315
DA:1362,290
DA:1368,290
DA:1373,0
DA:1377,0
DA:1389,16
DA:1390,16
DA:1719,0
DA:1720,0
DA:1728,8
DA:1730,1
DA:1731,1
DA:1735,166
DA:1742,8
DA:1747,8
DA:1755,8
DA:1759,166
DA:1761,166
DA:1765,0
DA:1768,0
DA:1942,9
DA:1970,8
DA:1975,1
DA:1976,1
DA:2017,143
DA:2020,143
DA:2021,143
DA:2022,143
DA:2025,143
DA:2026,143
DA:2028,16
DA:2030,0
DA:2032,0
DA:2033,0
DA:2034,0
DA:2040,143
DA:2042,0
DA:2043,0
DA:2044,143
DA:2048,143
DA:2051,143
DA:2052,143
DA:2053,143
DA:2058,43
DA:2060,186
DA:2062,143
DA:2063,143
DA:2064,143
DA:2066,8
DA:2070,19
DA:2073,19
DA:2075,19
DA:2076,19
DA:2077,19
DA:2078,19
DA:2083,19
DA:2088,19
DA:2089,19
DA:2090,19
DA:2091,19
LF:131
LH:116
end_of_record
TN:
SF:/usr/include/c++/14/bits/ios_base.h
FNF:0
FNH:0
DA:181,10
DA:182,10
LF:2
LH:2
end_of_record
TN:
SF:/usr/include/c++/14/bits/locale_facets.h
FNL:0,1092,1093
FNA:0,1,_ZNKSt5ctypeIcE8do_widenEc
FNL:1,880,886
FNA:1,28,_ZNKSt5ctypeIcE5widenEc
FNF:2
FNH:2
DA:880,28
DA:882,28
DA:883,27
DA:884,1
DA:885,1
DA:1092,1
DA:1093,1
DA:1744,0
DA:1745,0
DA:1757,0
DA:1758,0
DA:1788,0
DA:1789,0
DA:1801,0
DA:1802,0
DA:1814,0
DA:1815,0
LF:17
LH:7
end_of_record
TN:
SF:/usr/include/c++/14/bits/locale_facets.tcc
FNL:0,1284,1317
FNA:0,0,_ZSt14__add_groupingIcEPT_S1_S0_PKcmPKS0_S5_
FNF:1
FNH:0
DA:1284,0
DA:1288,0
DA:1289,0
DA:1291,0
DA:1292,0
DA:1293,0
DA:1295,0
DA:1296,0
DA:1299,0
DA:1300,0
DA:1302,0
DA:1304,0
DA:1305,0
DA:1306,0
DA:1309,0
DA:1311,0
DA:1312,0
DA:1313,0
DA:1316,0
LF:19
LH:0
end_of_record
TN:
SF:/usr/include/c++/14/bits/move.h
FNF:0
FNH:0
DA:226,0
DA:234,0
DA:235,0
DA:236,0
LF:4
LH:0
end_of_record
TN:
SF:/usr/include/c++/14/bits/new_allocator.h
FNL:0,126,152
FNA:0,1,_ZNSt15__new_allocatorI9ChallengeE8allocateEmPKv
FNA:0,4,_ZNSt15__new_allocatorINSt7__cxx1112basic_stringIcSt11char_traitsIcESaIcEEEE8allocateEmPKv
FNA:0,19,_ZNSt15__new_allocatorIPNSt8__detail15_Hash_node_baseEE8allocateEmPKv
FNA:0,4,_ZNSt15__new_allocatorISt6vectorIxSaIxEEE8allocateEmPKv
FNA:0,44,_ZNSt15__new_allocatorIiE8allocateEmPKv
FNA:0,1,_ZNSt15__new_allocatorImE8allocateEmPKv
FNA:0,45,_ZNSt15__new_allocatorIxE8allocateEmPKv
FNF:1
FNH:1
DA:126,283
DA:134,118
DA:138,0
DA:139,0
DA:140,0
DA:151,283
DA:156,283
DA:172,283
LF:8
LH:5
end_of_record
TN:
SF:/usr/include/c++/14/bits/predefined_ops.h
FNF:0
FNH:0
DA:44,9
DA:45,12
DA:68,0
DA:69,0
DA:97,5
DA:98,5
DA:157,4
DA:158,4
DA:195,10
DA:196,10
DA:239,6
DA:240,6
DA:262,0
DA:269,0
DA:270,0
DA:276,0
DA:277,0
LF:17
LH:10
end_of_record
TN:
SF:/usr/include/c++/14/bits/ptr_traits.h
FNF:0
FNH:0
DA:241,21
LF:1
LH:1
end_of_record
TN:
SF:/usr/include/c++/14/bits/range_access.h
FNF:0
FNH:0
DA:106,0
DA:352,0
DA:357,0
LF:3
LH:0
end_of_record
TN:
SF:/usr/include/c++/14/bits/ranges_algobase.h
FNL:0,220,300
FNA:0,0,_ZNSt6ranges14__copy_or_moveILb0EN9__gnu_cxx17__normal_iteratorIPcSt4spanIcLm18446744073709551615EEEES6_NSt8__format10_Sink_iterIcEEEENSt13__conditionalIXT_EE4typeINS_13in_out_resultIT0_T2_EESG_EESE_T1_SF_
FNA:0,0,_ZNSt6ranges14__copy_or_moveILb0EPcS1_NSt8__format10_Sink_iterIcEEEENSt13__conditionalIXT_EE4typeINS_13in_out_resultIT0_T2_EESB_EES9_T1_SA_
FNL:1,318,322
FNA:1,0,_ZNKSt6ranges9__copy_fnclIRSt4spanIcLm18446744073709551615EENSt8__format10_Sink_iterIcEEEENS_13in_out_resultINSt13__conditionalIX14borrowed_rangeIT_EEE4typeIDTcl7__begincl7declvalIRSA_EEEENS_8danglingEEET0_EEOSA_SH_
FNF:2
FNH:0
DA:220,0
DA:248,0
DA:249,0
DA:250,0
DA:276,0
DA:281,0
DA:282,0
DA:285,0
DA:308,0
DA:310,0
DA:318,0
DA:320,0
DA:321,0
LF:13
LH:0
end_of_record
TN:
SF:/usr/include/c++/14/bits/ranges_base.h
FNF:0
FNH:0
DA:117,0
DA:125,3
DA:167,3
DA:175,3
DA:352,0
DA:357,0
DA:436,3
DA:474,0
DA:477,0
LF:9
LH:4
end_of_record
TN:
SF:/usr/include/c++/14/bits/ranges_util.h
FNF:0
FNH:0
DA:280,3
DA:298,3
DA:302,3
DA:354,3
DA:355,3
DA:361,3
LF:6
LH:6
end_of_record
TN:
SF:/usr/include/c++/14/bits/stl_algo.h
FNL:0,1589,1597
FNA:0,0,_ZSt13__heap_selectIN9__gnu_cxx17__normal_iteratorIP9ChallengeSt6vectorIS2_SaIS2_EEEENS0_5__ops15_Iter_comp_iterIZ4mainEUlRKS2_SB_E_EEEvT_SE_SE_T0_
FNA:0,0,_ZSt13__heap_selectIN9__gnu_cxx17__normal_iteratorIPxSt6vectorIxSaIxEEEENS0_5__ops15_Iter_less_iterEEvT_S9_S9_T0_
FNL:1,1750,1764
FNA:1,4,_ZSt25__unguarded_linear_insertIN9__gnu_cxx17__normal_iteratorIP9ChallengeSt6vectorIS2_SaIS2_EEEENS0_5__ops14_Val_comp_iterIZ4mainEUlRKS2_SB_E_EEEvT_T0_
FNL:2,1770,1788
FNA:2,1,_ZSt16__insertion_sortIN9__gnu_cxx17__normal_iteratorIP9ChallengeSt6vectorIS2_SaIS2_EEEENS0_5__ops15_Iter_comp_iterIZ4mainEUlRKS2_SB_E_EEEvT_SE_T0_
FNA:2,1,_ZSt16__insertion_sortIN9__gnu_cxx17__normal_iteratorIPxSt6vectorIxSaIxEEEENS0_5__ops15_Iter_less_iterEEvT_S9_T0_
FNL:3,1794,1800
FNA:3,0,_ZSt26__unguarded_insertion_sortIN9__gnu_cxx17__normal_iteratorIPxSt6vectorIxSaIxEEEENS0_5__ops15_Iter_less_iterEEvT_S9_T0_
FNL:4,1812,1823
FNA:4,1,_ZSt22__final_insertion_sortIN9__gnu_cxx17__normal_iteratorIP9ChallengeSt6vectorIS2_SaIS2_EEEENS0_5__ops15_Iter_comp_iterIZ4mainEUlRKS2_SB_E_EEEvT_SE_T0_
FNA:4,1,_ZSt22__final_insertion_sortIN9__gnu_cxx17__normal_iteratorIPxSt6vectorIxSaIxEEEENS0_5__ops15_Iter_less_iterEEvT_S9_T0_
FNL:5,1829,1845
FNA:5,0,_ZSt21__unguarded_partitionIN9__gnu_cxx17__normal_iteratorIP9ChallengeSt6vectorIS2_SaIS2_EEEENS0_5__ops15_Iter_comp_iterIZ4mainEUlRKS2_SB_E_EEET_SE_SE_SE_T0_
FNA:5,0,_ZSt21__unguarded_partitionIN9__gnu_cxx17__normal_iteratorIPxSt6vectorIxSaIxEEEENS0_5__ops15_Iter_less_iterEET_S9_S9_S9_T0_
FNL:6,1851,1858
FNA:6,0,_ZSt27__unguarded_partition_pivotIN9__gnu_cxx17__normal_iteratorIP9ChallengeSt6vectorIS2_SaIS2_EEEENS0_5__ops15_Iter_comp_iterIZ4mainEUlRKS2_SB_E_EEET_SE_SE_T0_
FNA:6,0,_ZSt27__unguarded_partition_pivotIN9__gnu_cxx17__normal_iteratorIPxSt6vectorIxSaIxEEEENS0_5__ops15_Iter_less_iterEET_S9_S9_T0_
FNL:7,1863,1870
FNA:7,0,_ZSt14__partial_sortIN9__gnu_cxx17__normal_iteratorIP9ChallengeSt6vectorIS2_SaIS2_EEEENS0_5__ops15_Iter_comp_iterIZ4mainEUlRKS2_SB_E_EEEvT_SE_SE_T0_
FNA:7,0,_ZSt14__partial_sortIN9__gnu_cxx17__normal_iteratorIPxSt6vectorIxSaIxEEEENS0_5__ops15_Iter_less_iterEEvT_S9_S9_T0_
FNL:8,1876,1893
FNA:8,1,_ZSt16__introsort_loopIN9__gnu_cxx17__normal_iteratorIP9ChallengeSt6vectorIS2_SaIS2_EEEElNS0_5__ops15_Iter_comp_iterIZ4mainEUlRKS2_SB_E_EEEvT_SE_T0_T1_
FNA:8,1,_ZSt16__introsort_loopIN9__gnu_cxx17__normal_iteratorIPxSt6vectorIxSaIxEEEElNS0_5__ops15_Iter_less_iterEEvT_S9_T0_T1_
FNL:9,1900,1910
FNA:9,1,_ZSt6__sortIN9__gnu_cxx17__normal_iteratorIP9ChallengeSt6vectorIS2_SaIS2_EEEENS0_5__ops15_Iter_comp_iterIZ4mainEUlRKS2_SB_E_EEEvT_SE_T0_
FNA:9,1,_ZSt6__sortIN9__gnu_cxx17__normal_iteratorIPxSt6vectorIxSaIxEEEENS0_5__ops15_Iter_less_iterEEvT_S9_T0_
FNL:10,1980,2003
FNA:10,0,_ZSt13__upper_boundIPKDiDiN9__gnu_cxx5__ops14_Val_less_iterEET_S5_S5_RKT0_T1_
FNL:11,85,103
FNA:11,0,_ZSt22__move_median_to_firstIN9__gnu_cxx17__normal_iteratorIP9ChallengeSt6vectorIS2_SaIS2_EEEENS0_5__ops15_Iter_comp_iterIZ4mainEUlRKS2_SB_E_EEEvT_SE_SE_SE_T0_
FNA:11,0,_ZSt22__move_median_to_firstIN9__gnu_cxx17__normal_iteratorIPxSt6vectorIxSaIxEEEENS0_5__ops15_Iter_less_iterEEvT_S9_S9_S9_T0_
FNF:12
FNH:5
DA:85,0
DA:88,0
DA:90,0
DA:91,0
DA:92,0
DA:93,0
DA:95,0
DA:97,0
DA:98,0
DA:99,0
DA:100,0
DA:102,0
DA:103,0
DA:1589,0
DA:1593,0
DA:1594,0
DA:1595,0
DA:1596,0
DA:1597,0
DA:1750,7
DA:1754,7
DA:1755,7
DA:1756,7
DA:1757,11
DA:1759,4
DA:1760,4
DA:1761,4
DA:1763,7
DA:1764,4
DA:1770,2
DA:1773,2
DA:1775,9
DA:1777,7
DA:1780,0
DA:1781,0
DA:1782,0
DA:1785,7
DA:1794,0
DA:1797,0
DA:1798,0
DA:1800,0
DA:1812,2
DA:1815,2
DA:1817,0
DA:1818,0
DA:1822,2
DA:1823,2
DA:1829,0
DA:1833,0
DA:1835,0
DA:1836,0
DA:1837,0
DA:1838,0
DA:1839,0
DA:1840,0
DA:1841,0
DA:1842,0
DA:1843,0
DA:1851,0
DA:1854,0
DA:1855,0
DA:1857,0
DA:1863,0
DA:1868,0
DA:1869,0
DA:1870,0
DA:1876,2
DA:1880,2
DA:1882,0
DA:1884,0
DA:1885,0
DA:1887,0
DA:1889,0
DA:1890,0
DA:1891,0
DA:1900,2
DA:1903,2
DA:1905,2
DA:1906,4
DA:1908,2
DA:1910,2
DA:1980,0
DA:1986,0
DA:1988,0
DA:1990,0
DA:1991,0
DA:1992,0
DA:1993,0
DA:1997,0
DA:1998,0
DA:1999,0
DA:2002,0
DA:2019,0
DA:2028,0
DA:3842,0
DA:3850,0
DA:4762,1
DA:4772,1
DA:4793,1
DA:4805,1
DA:5620,7
DA:5623,7
DA:5625,16
DA:5626,9
DA:5627,6
DA:5641,7
DA:5650,7
LF:107
LH:38
end_of_record
TN:
SF:/usr/include/c++/14/bits/stl_algobase.h
FNL:0,1488,1511
FNA:0,0,_ZSt13__lower_boundIPKjjN9__gnu_cxx5__ops14_Iter_less_valEET_S5_S5_RKT0_T1_
FNL:1,2093,2139
FNA:1,0,_ZSt9__find_ifIPKDiN9__gnu_cxx5__ops16_Iter_equals_valIS0_EEET_S6_S6_T0_St26random_access_iterator_tag
FNL:2,233,241
FNA:2,4,_ZSt3minIxERKT_S2_S2_
FNL:3,448,457
FNA:3,12,_ZNSt11__copy_moveILb0ELb1ESt26random_access_iterator_tagE8__copy_mIKxxEEPT0_PT_S7_S5_
FNL:4,762,771
FNA:4,0,_ZNSt20__copy_move_backwardILb1ELb1ESt26random_access_iterator_tagE13__copy_move_bI9ChallengeS3_EEPT0_PT_S7_S5_
FNA:4,0,_ZNSt20__copy_move_backwardILb1ELb1ESt26random_access_iterator_tagE13__copy_move_bIxxEEPT0_PT_S6_S4_
FNF:5
FNH:2
DA:155,0
DA:185,0
DA:233,7
DA:238,7
DA:239,2
DA:240,2
DA:257,896
DA:262,896
DA:263,162
DA:346,0
DA:347,0
DA:412,0
DA:413,0
DA:437,0
DA:438,0
DA:448,12
DA:450,12
DA:451,12
DA:452,12
DA:453,0
DA:455,0
DA:456,12
DA:512,12
DA:521,12
DA:547,12
DA:548,12
DA:553,12
DA:555,24
DA:642,12
DA:651,12
DA:762,0
DA:764,0
DA:765,0
DA:766,0
DA:767,0
DA:769,0
DA:770,0
DA:777,0
DA:787,0
DA:795,0
DA:796,0
DA:823,0
DA:825,0
DA:913,0
DA:922,0
DA:936,1
DA:939,5
DA:940,4
DA:947,42
DA:950,42
DA:951,302
DA:952,260
DA:997,43
DA:998,43
DA:1140,43
DA:1146,43
DA:1151,43
DA:1175,43
DA:1180,43
DA:1488,0
DA:1494,0
DA:1496,0
DA:1498,0
DA:1499,0
DA:1500,0
DA:1501,0
DA:1503,0
DA:1504,0
DA:1505,0
DA:1510,0
DA:1527,0
DA:1536,0
DA:1544,2
DA:1547,4
DA:2093,0
DA:2097,0
DA:2099,0
DA:2101,0
DA:2103,0
DA:2105,0
DA:2107,0
DA:2109,0
DA:2111,0
DA:2113,0
DA:2115,0
DA:2118,0
DA:2120,0
DA:2121,0
DA:2123,0
DA:2125,0
DA:2126,0
DA:2128,0
DA:2130,0
DA:2131,0
DA:2132,0
DA:2133,0
DA:2144,0
DA:2146,0
LF:98
LH:36
end_of_record
TN:
SF:/usr/include/c++/14/bits/stl_bvector.h
FNL:0,104,111
FNA:0,1,_ZNSt14_Bit_referenceaSEb
FNL:1,127,128
FNA:1,1,_ZNSt14_Bit_referenceaSERKS_
FNL:2,1349,1359
FNA:2,1,_ZNSt6vectorIbSaIbEE13_M_initializeEm
FNL:3,1363,1367
FNA:3,1,_ZNSt6vectorIbSaIbEE19_M_initialize_valueEb
FNL:4,224,236
FNA:4,185145,_ZNSt18_Bit_iterator_base7_M_incrEl
FNL:5,384,385
FNA:5,185144,_ZNKSt13_Bit_iteratorixEl
FNL:6,693,703
FNA:6,1,_ZNSt13_Bvector_baseISaIbEE13_M_deallocateEv
FNL:7,795,806
FNA:7,1,_ZNSt6vectorIbSaIbEEC2EmRKbRKS0_
FNF:8
FNH:8
DA:88,185144
DA:99,130686
DA:100,130686
DA:104,54459
DA:106,1
DA:107,0
DA:109,1
DA:110,54459
DA:127,1
DA:128,1
DA:186,370289
DA:189,370289
DA:190,0
DA:195,185146
DA:196,2
DA:224,185145
DA:226,185145
DA:227,185145
DA:228,185145
DA:229,185145
DA:230,185145
DA:232,0
DA:233,0
DA:235,185145
DA:236,185145
DA:313,2
DA:316,185144
DA:317,185144
DA:326,185144
DA:328,370288
DA:329,185144
DA:368,185145
DA:370,185145
DA:371,185145
DA:384,185144
DA:385,555432
DA:389,185145
DA:391,185145
DA:392,185144
DA:393,185144
DA:551,2
DA:552,2
DA:577,1
DA:578,1
DA:590,1
DA:603,1
DA:604,1
DA:623,2
DA:625,2
DA:656,1
DA:657,1
DA:669,1
DA:670,1
DA:677,1
DA:679,2
DA:693,1
DA:695,1
DA:697,1
DA:698,2
DA:699,1
DA:701,1
DA:703,1
DA:714,1
DA:715,1
DA:795,1
DA:802,1
DA:804,1
DA:805,1
DA:806,1
DA:890,1
DA:995,185143
DA:996,185143
DA:1086,185143
DA:1087,185143
DA:1349,1
DA:1351,1
DA:1353,1
DA:1354,1
DA:1355,1
DA:1356,1
DA:1357,1
DA:1359,1
DA:1363,1
DA:1365,1
DA:1366,2
DA:1367,1
DA:1587,1
DA:1590,1
DA:1597,1
LF:89
LH:85
end_of_record
TN:
SF:/usr/include/c++/14/bits/stl_construct.h
FNF:0
FNH:0
DA:80,63
DA:88,63
DA:94,3437
DA:97,3437
DA:109,69
DA:119,69
DA:146,39
DA:149,39
DA:160,8
DA:162,47
DA:163,39
DA:182,8
DA:196,8
LF:13
LH:13
end_of_record
TN:
SF:/usr/include/c++/14/bits/stl_function.h
FNF:0
FNH:0
DA:374,182
DA:375,182
DA:394,5
DA:395,5
DA:404,29
DA:405,29
DA:448,8
DA:454,8
DA:1179,8
DA:1180,8
LF:10
LH:10
end_of_record
TN:
SF:/usr/include/c++/14/bits/stl_heap.h
FNL:0,135,147
FNA:0,0,_ZSt11__push_heapIN9__gnu_cxx17__normal_iteratorIP9ChallengeSt6vectorIS2_SaIS2_EEEElS2_NS0_5__ops14_Iter_comp_valIZ4mainEUlRKS2_SB_E_EEEvT_T0_SF_T1_RT2_
FNA:0,7,_ZSt11__push_heapIN9__gnu_cxx17__normal_iteratorIPiSt6vectorIiSaIiEEEEliNS0_5__ops14_Iter_comp_valISt7greaterIiEEEEvT_T0_SD_T1_RT2_
FNA:0,7,_ZSt11__push_heapIN9__gnu_cxx17__normal_iteratorIPxSt6vectorIxSaIxEEEElxNS0_5__ops14_Iter_comp_valISt4lessIxEEEEvT_T0_SD_T1_RT2_
FNA:0,0,_ZSt11__push_heapIN9__gnu_cxx17__normal_iteratorIPxSt6vectorIxSaIxEEEElxNS0_5__ops14_Iter_less_valEEvT_T0_SA_T1_RT2_
FNL:1,198,218
FNA:1,4,_ZSt9push_heapIN9__gnu_cxx17__normal_iteratorIPiSt6vectorIiSaIiEEEESt7greaterIiEEvT_S9_T0_
FNA:1,4,_ZSt9push_heapIN9__gnu_cxx17__normal_iteratorIPxSt6vectorIxSaIxEEEESt4lessIxEEvT_S9_T0_
FNL:2,224,249
FNA:2,0,_ZSt13__adjust_heapIN9__gnu_cxx17__normal_iteratorIP9ChallengeSt6vectorIS2_SaIS2_EEEElS2_NS0_5__ops15_Iter_comp_iterIZ4mainEUlRKS2_SB_E_EEEvT_T0_SF_T1_T2_
FNA:2,3,_ZSt13__adjust_heapIN9__gnu_cxx17__normal_iteratorIPiSt6vectorIiSaIiEEEEliNS0_5__ops15_Iter_comp_iterISt7greaterIiEEEEvT_T0_SD_T1_T2_
FNA:2,3,_ZSt13__adjust_heapIN9__gnu_cxx17__normal_iteratorIPxSt6vectorIxSaIxEEEElxNS0_5__ops15_Iter_comp_iterISt4lessIxEEEEvT_T0_SD_T1_T2_
FNA:2,0,_ZSt13__adjust_heapIN9__gnu_cxx17__normal_iteratorIPxSt6vectorIxSaIxEEEElxNS0_5__ops15_Iter_less_iterEEvT_T0_SA_T1_T2_
FNL:3,254,267
FNA:3,0,_ZSt10__pop_heapIN9__gnu_cxx17__normal_iteratorIP9ChallengeSt6vectorIS2_SaIS2_EEEENS0_5__ops15_Iter_comp_iterIZ4mainEUlRKS2_SB_E_EEEvT_SE_SE_RT0_
FNA:3,3,_ZSt10__pop_heapIN9__gnu_cxx17__normal_iteratorIPiSt6vectorIiSaIiEEEENS0_5__ops15_Iter_comp_iterISt7greaterIiEEEEvT_SC_SC_RT0_
FNA:3,3,_ZSt10__pop_heapIN9__gnu_cxx17__normal_iteratorIPxSt6vectorIxSaIxEEEENS0_5__ops15_Iter_comp_iterISt4lessIxEEEEvT_SC_SC_RT0_
FNA:3,0,_ZSt10__pop_heapIN9__gnu_cxx17__normal_iteratorIPxSt6vectorIxSaIxEEEENS0_5__ops15_Iter_less_iterEEvT_S9_S9_RT0_
FNL:4,317,335
FNA:4,4,_ZSt8pop_heapIN9__gnu_cxx17__normal_iteratorIPiSt6vectorIiSaIiEEEESt7greaterIiEEvT_S9_T0_
FNA:4,4,_ZSt8pop_heapIN9__gnu_cxx17__normal_iteratorIPxSt6vectorIxSaIxEEEESt4lessIxEEvT_S9_T0_
FNL:5,340,362
FNA:5,0,_ZSt11__make_heapIN9__gnu_cxx17__normal_iteratorIP9ChallengeSt6vectorIS2_SaIS2_EEEENS0_5__ops15_Iter_comp_iterIZ4mainEUlRKS2_SB_E_EEEvT_SE_RT0_
FNA:5,0,_ZSt11__make_heapIN9__gnu_cxx17__normal_iteratorIPxSt6vectorIxSaIxEEEENS0_5__ops15_Iter_less_iterEEvT_S9_RT0_
FNL:6,419,427
FNA:6,0,_ZSt11__sort_heapIN9__gnu_cxx17__normal_iteratorIP9ChallengeSt6vectorIS2_SaIS2_EEEENS0_5__ops15_Iter_comp_iterIZ4mainEUlRKS2_SB_E_EEEvT_SE_RT0_
FNA:6,0,_ZSt11__sort_heapIN9__gnu_cxx17__normal_iteratorIPxSt6vectorIxSaIxEEEENS0_5__ops15_Iter_less_iterEEvT_S9_RT0_
FNF:7
FNH:5
DA:135,14
DA:139,14
DA:140,21
DA:142,7
DA:143,7
DA:144,7
DA:146,14
DA:147,14
DA:198,8
DA:215,8
DA:216,8
DA:218,8
DA:224,6
DA:227,6
DA:228,6
DA:229,6
DA:231,0
DA:232,0
DA:234,0
DA:235,0
DA:236,0
DA:238,6
DA:240,4
DA:241,4
DA:243,4
DA:247,6
DA:249,6
DA:254,6
DA:262,6
DA:263,6
DA:264,6
DA:265,6
DA:266,0
DA:267,6
DA:317,8
DA:328,8
DA:332,6
DA:333,6
DA:335,8
DA:340,0
DA:348,0
DA:351,0
DA:352,0
DA:353,0
DA:355,0
DA:356,0
DA:358,0
DA:359,0
DA:360,0
DA:419,0
DA:422,0
DA:424,0
DA:425,0
DA:427,0
LF:54
LH:33
end_of_record
TN:
SF:/usr/include/c++/14/bits/stl_iterator.h
FNF:0
FNH:0
DA:1067,102
DA:1068,56
DA:1090,10
DA:1095,0
DA:1096,0
DA:1100,142
DA:1102,43
DA:1103,126
DA:1108,0
DA:1109,0
DA:1114,17
DA:1116,17
DA:1117,11
DA:1133,3
DA:1134,3
DA:1138,7
DA:1139,16
DA:1148,14
DA:1149,20
DA:1188,0
DA:1194,0
DA:1199,0
DA:1202,0
DA:1325,72
DA:1328,72
LF:25
LH:17
end_of_record
TN:
SF:/usr/include/c++/14/bits/stl_iterator_base_funcs.h
FNL:0,184,196
FNA:0,0,_ZSt9__advanceIPKDilEvRT_T0_St26random_access_iterator_tag
FNA:0,3,_ZSt9__advanceIPKclEvRT_T0_St26random_access_iterator_tag
FNA:0,0,_ZSt9__advanceIPKjlEvRT_T0_St26random_access_iterator_tag
FNF:1
FNH:1
DA:100,16
DA:106,16
DA:148,16
DA:151,16
DA:184,3
DA:190,3
DA:191,0
DA:192,3
DA:193,0
DA:195,3
DA:196,3
DA:220,3
DA:223,3
DA:224,3
LF:14
LH:12
end_of_record
TN:
SF:/usr/include/c++/14/bits/stl_map.h
FNL:0,504,520
FNA:0,8,_ZNSt3mapIiiSt4lessIiESaISt4pairIKiiEEEixERS3_
FNF:1
FNH:1
DA:197,8
DA:314,8
DA:377,16
DA:378,16
DA:386,8
DA:387,8
DA:395,16
DA:396,16
DA:504,8
DA:509,8
DA:511,8
DA:513,8
DA:514,8
DA:515,8
DA:519,8
DA:1117,0
DA:1118,0
DA:1307,8
DA:1308,16
LF:19
LH:17
end_of_record
TN:
SF:/usr/include/c++/14/bits/stl_numeric.h
FNF:0
FNH:0
DA:134,1
DA:140,9
DA:141,8
LF:3
LH:3
end_of_record
TN:
SF:/usr/include/c++/14/bits/stl_pair.h
FNF:0
FNH:0
DA:428,1
DA:442,23
DA:444,41
DA:492,8
DA:494,8
DA:1256,3
LF:6
LH:6
end_of_record
TN:
SF:/usr/include/c++/14/bits/stl_queue.h
FNL:0,736,740
FNA:0,4,_ZNSt14priority_queueIiSt6vectorIiSaIiEESt7greaterIiEE4pushERKi
FNA:0,4,_ZNSt14priority_queueIxSt6vectorIxSaIxEESt4lessIxEE4pushERKx
FNL:1,771,776
FNA:1,4,_ZNSt14priority_queueIiSt6vectorIiSaIiEESt7greaterIiEE3popEv
FNA:1,4,_ZNSt14priority_queueIxSt6vectorIxSaIxEESt4lessIxEE3popEv
FNF:2
FNH:2
DA:496,2
DA:554,2
DA:555,2
DA:706,9
DA:707,9
DA:721,8
DA:724,8
DA:736,8
DA:738,8
DA:739,8
DA:740,8
DA:771,8
DA:774,8
DA:775,8
DA:776,8
LF:15
LH:15
end_of_record
TN:
SF:/usr/include/c++/14/bits/stl_set.h
FNL:0,511,516
FNA:0,5,_ZNSt3setIcSt4lessIcESaIcEE6insertERKc
FNA:0,6,_ZNSt3setIiSt4lessIiESaIiEE6insertERKi
FNL:1,520,525
FNA:1,4,_ZNSt3setIiSt4lessIiESaIiEE6insertEOi
FNF:2
FNH:2
DA:169,7
DA:283,7
DA:346,304
DA:347,304
DA:355,304
DA:356,304
DA:511,11
DA:514,11
DA:515,11
DA:520,4
DA:523,4
DA:524,4
LF:12
LH:12
end_of_record
TN:
SF:/usr/include/c++/14/bits/stl_tree.h
FNL:0,1249,1253
FNA:0,0,_ZNSt8_Rb_treeIiSt4pairIKiiESt10_Select1stIS2_ESt4lessIiESaIS2_EE5clearEv
FNL:1,1636,1640
FNA:1,8,_ZNSt8_Rb_treeIiSt4pairIKiiESt10_Select1stIS2_ESt4lessIiESaIS2_EE10_Auto_nodeD2Ev
FNL:2,1651,1656
FNA:2,8,_ZNSt8_Rb_treeIiSt4pairIKiiESt10_Select1stIS2_ESt4lessIiESaIS2_EE10_Auto_node9_M_insertES0_IPSt18_Rb_tree_node_baseSB_E
FNL:3,1814,1833
FNA:3,5,_ZNSt8_Rb_treeIccSt9_IdentityIcESt4lessIcESaIcEE10_M_insert_IRKcNS5_11_Alloc_nodeEEESt17_Rb_tree_iteratorIcEPSt18_Rb_tree_node_baseSD_OT_RT0_
FNA:3,6,_ZNSt8_Rb_treeIiiSt9_IdentityIiESt4lessIiESaIiEE10_M_insert_IRKiNS5_11_Alloc_nodeEEESt17_Rb_tree_iteratorIiEPSt18_Rb_tree_node_baseSD_OT_RT0_
FNA:3,3,_ZNSt8_Rb_treeIiiSt9_IdentityIiESt4lessIiESaIiEE10_M_insert_IiNS5_11_Alloc_nodeEEESt17_Rb_tree_iteratorIiEPSt18_Rb_tree_node_baseSB_OT_RT0_
FNL:4,1926,1937
FNA:4,8,_ZNSt8_Rb_treeIccSt9_IdentityIcESt4lessIcESaIcEE8_M_eraseEPSt13_Rb_tree_nodeIcE
FNA:4,16,_ZNSt8_Rb_treeIiSt4pairIKiiESt10_Select1stIS2_ESt4lessIiESaIS2_EE8_M_eraseEPSt13_Rb_tree_nodeIS2_E
FNA:4,13,_ZNSt8_Rb_treeIiiSt9_IdentityIiESt4lessIiESaIiEE8_M_eraseEPSt13_Rb_tree_nodeIiE
FNL:5,2009,2033
FNA:5,0,_ZNSt8_Rb_treeIiSt4pairIKiiESt10_Select1stIS2_ESt4lessIiESaIS2_EE11equal_rangeERS1_
FNL:6,2104,2128
FNA:6,5,_ZNSt8_Rb_treeIccSt9_IdentityIcESt4lessIcESaIcEE24_M_get_insert_unique_posERKc
FNA:6,8,_ZNSt8_Rb_treeIiSt4pairIKiiESt10_Select1stIS2_ESt4lessIiESaIS2_EE24_M_get_insert_unique_posERS1_
FNA:6,10,_ZNSt8_Rb_treeIiiSt9_IdentityIiESt4lessIiESaIiEE24_M_get_insert_unique_posERKi
FNL:7,2158,2178
FNA:7,5,_ZNSt8_Rb_treeIccSt9_IdentityIcESt4lessIcESaIcEE16_M_insert_uniqueIRKcEESt4pairISt17_Rb_tree_iteratorIcEbEOT_
FNA:7,6,_ZNSt8_Rb_treeIiiSt9_IdentityIiESt4lessIiESaIiEE16_M_insert_uniqueIRKiEESt4pairISt17_Rb_tree_iteratorIiEbEOT_
FNA:7,4,_ZNSt8_Rb_treeIiiSt9_IdentityIiESt4lessIiESaIiEE16_M_insert_uniqueIiEESt4pairISt17_Rb_tree_iteratorIiEbEOT_
FNL:8,2206,2257
FNA:8,8,_ZNSt8_Rb_treeIiSt4pairIKiiESt10_Select1stIS2_ESt4lessIiESaIS2_EE29_M_get_insert_hint_unique_posESt23_Rb_tree_const_iteratorIS2_ERS1_
FNL:9,2373,2385
FNA:9,8,_ZNSt8_Rb_treeIiSt4pairIKiiESt10_Select1stIS2_ESt4lessIiESaIS2_EE14_M_insert_nodeEPSt18_Rb_tree_node_baseSA_PSt13_Rb_tree_nodeIS2_E
FNL:10,2454,2463
FNA:10,8,_ZNSt8_Rb_treeIiSt4pairIKiiESt10_Select1stIS2_ESt4lessIiESaIS2_EE22_M_emplace_hint_uniqueIJRKSt21piecewise_construct_tSt5tupleIJRS1_EESD_IJEEEEESt17_Rb_tree_iteratorIS2_ESt23_Rb_tree_const_iteratorIS2_EDpOT_
FNL:11,2485,2494
FNA:11,0,_ZNSt8_Rb_treeIiSt4pairIKiiESt10_Select1stIS2_ESt4lessIiESaIS2_EE12_M_erase_auxESt23_Rb_tree_const_iteratorIS2_E
FNL:12,2499,2507
FNA:12,0,_ZNSt8_Rb_treeIiSt4pairIKiiESt10_Select1stIS2_ESt4lessIiESaIS2_EE12_M_erase_auxESt23_Rb_tree_const_iteratorIS2_ESA_
FNL:13,2512,2519
FNA:13,0,_ZNSt8_Rb_treeIiSt4pairIKiiESt10_Select1stIS2_ESt4lessIiESaIS2_EE5eraseERS1_
FNF:14
FNH:9
DA:142,15
DA:169,15
DA:170,15
DA:171,15
DA:172,15
DA:202,15
DA:204,15
DA:205,15
DA:206,15
DA:207,15
DA:231,52
DA:235,387
DA:269,77
DA:270,23
DA:274,0
DA:281,0
DA:283,0
DA:296,0
DA:298,0
DA:299,0
DA:311,8
DA:343,320
DA:346,23
DA:347,23
DA:350,8
DA:351,8
DA:355,355
DA:362,78
DA:364,78
DA:365,78
DA:369,0
DA:371,0
DA:372,0
DA:392,0
DA:521,14
DA:522,14
DA:526,14
DA:527,28
DA:546,44
DA:558,22
DA:559,44
DA:562,22
DA:563,22
DA:588,22
DA:593,22
DA:607,22
DA:609,22
DA:610,22
DA:616,22
DA:622,22
DA:627,22
DA:629,22
DA:630,14
DA:631,0
DA:658,15
DA:665,15
DA:669,15
DA:732,46
DA:733,46
DA:736,46
DA:737,46
DA:747,61
DA:748,61
DA:755,8
DA:773,17
DA:777,22
DA:778,22
DA:785,31
DA:786,31
DA:794,15
DA:926,15
DA:981,15
DA:982,15
DA:993,15
DA:994,15
DA:997,320
DA:998,320
DA:1001,8
DA:1002,8
DA:1005,320
DA:1006,320
DA:1029,8
DA:1030,8
DA:1249,0
DA:1251,0
DA:1252,0
DA:1253,0
DA:1266,8
DA:1267,16
DA:1631,8
DA:1632,8
DA:1633,8
DA:1636,8
DA:1638,8
DA:1639,0
DA:1640,8
DA:1647,8
DA:1648,8
DA:1651,8
DA:1653,8
DA:1654,8
DA:1655,8
DA:1814,14
DA:1823,14
DA:1824,28
DA:1827,14
DA:1829,14
DA:1830,14
DA:1831,14
DA:1832,14
DA:1926,37
DA:1930,59
DA:1932,22
DA:1933,22
DA:1934,22
DA:1935,22
DA:1937,37
DA:1943,8
DA:1947,8
DA:1948,0
DA:1949,0
DA:1951,0
DA:1952,8
DA:1975,0
DA:1979,0
DA:1980,0
DA:1981,0
DA:1983,0
DA:2009,0
DA:2012,0
DA:2013,0
DA:2014,0
DA:2016,0
DA:2017,0
DA:2018,0
DA:2019,0
DA:2022,0
DA:2023,0
DA:2024,0
DA:2025,0
DA:2026,0
DA:2027,0
DA:2028,0
DA:2031,0
DA:2032,0
DA:2104,23
DA:2108,23
DA:2109,23
DA:2110,23
DA:2111,32
DA:2113,9
DA:2114,9
DA:2115,9
DA:2117,23
DA:2118,23
DA:2120,15
DA:2121,15
DA:2123,0
DA:2125,8
DA:2126,7
DA:2127,1
DA:2158,15
DA:2167,15
DA:2169,15
DA:2171,14
DA:2172,14
DA:2174,14
DA:2177,1
DA:2206,8
DA:2210,8
DA:2214,8
DA:2216,8
DA:2217,8
DA:2218,0
DA:2220,8
DA:2222,0
DA:2225,0
DA:2226,0
DA:2227,0
DA:2228,0
DA:2230,0
DA:2231,0
DA:2233,0
DA:2236,0
DA:2238,0
DA:2241,0
DA:2242,0
DA:2243,0
DA:2244,0
DA:2246,0
DA:2247,0
DA:2249,0
DA:2252,0
DA:2256,0
DA:2373,8
DA:2377,8
DA:2378,8
DA:2381,8
DA:2382,8
DA:2383,8
DA:2384,8
DA:2454,8
DA:2458,8
DA:2459,8
DA:2460,8
DA:2461,8
DA:2462,0
DA:2463,8
DA:2485,0
DA:2490,0
DA:2491,0
DA:2492,0
DA:2493,0
DA:2494,0
DA:2499,0
DA:2502,0
DA:2503,0
DA:2505,0
DA:2506,0
DA:2507,0
DA:2512,0
DA:2515,0
DA:2516,0
DA:2517,0
DA:2518,0
LF:225
LH:145
end_of_record
TN:
SF:/usr/include/c++/14/bits/stl_uninitialized.h
FNL:0,261,275
FNA:0,4,_ZSt18__do_uninit_fill_nIPSt6vectorIxSaIxEEmS2_ET_S4_T0_RKT1_
FNL:1,660,671
FNA:1,1,_ZNSt27__uninitialized_default_n_1ILb1EE18__uninit_default_nIP9ChallengemEET_S4_T0_
FNA:1,14,_ZNSt27__uninitialized_default_n_1ILb1EE18__uninit_default_nIPimEET_S3_T0_
FNA:1,15,_ZNSt27__uninitialized_default_n_1ILb1EE18__uninit_default_nIPxmEET_S3_T0_
FNF:2
FNH:2
DA:145,12
DA:147,12
DA:163,12
DA:174,12
DA:181,12
DA:185,12
DA:261,4
DA:263,4
DA:266,16
DA:267,12
DA:268,4
DA:270,0
DA:272,0
DA:273,0
DA:282,4
DA:284,4
DA:292,13
DA:294,13
DA:312,17
DA:319,17
DA:327,17
DA:366,12
DA:373,12
DA:465,17
DA:472,9
DA:637,4
DA:639,4
DA:642,31
DA:643,27
DA:660,30
DA:662,30
DA:664,30
DA:666,30
DA:667,30
DA:668,30
DA:670,30
DA:696,34
DA:707,34
DA:712,34
DA:777,34
DA:779,34
DA:1112,35
DA:1116,35
DA:1117,35
DA:1129,26
DA:1139,35
DA:1145,61
LF:47
LH:44
end_of_record
TN:
SF:/usr/include/c++/14/bits/stl_vector.h
FNL:0,1283,1295
FNA:0,3252,_ZNSt6vectorIiSaIiEE9push_backERKi
FNA:0,6,_ZNSt6vectorIxSaIxEE9push_backERKx
FNL:1,1906,1913
FNA:1,29,_ZNKSt6vectorIiSaIiEE12_M_check_lenEmPKc
FNA:1,6,_ZNKSt6vectorIxSaIxEE12_M_check_lenEmPKc
FNL:2,366,370
FNA:2,1,_ZNSt12_Vector_baseI9ChallengeSaIS0_EED2Ev
FNA:2,4,_ZNSt12_Vector_baseINSt7__cxx1112basic_stringIcSt11char_traitsIcESaIcEEESaIS5_EED2Ev
FNA:2,4,_ZNSt12_Vector_baseISt6vectorIxSaIxEESaIS2_EED2Ev
FNA:2,22,_ZNSt12_Vector_baseIiSaIiEED2Ev
FNA:2,41,_ZNSt12_Vector_baseIxSaIxEED2Ev
FNL:3,396,401
FNA:3,1,_ZNSt12_Vector_baseI9ChallengeSaIS0_EE17_M_create_storageEm
FNA:3,4,_ZNSt12_Vector_baseINSt7__cxx1112basic_stringIcSt11char_traitsIcESaIcEEESaIS5_EE17_M_create_storageEm
FNA:3,4,_ZNSt12_Vector_baseISt6vectorIxSaIxEESaIS2_EE17_M_create_storageEm
FNA:3,15,_ZNSt12_Vector_baseIiSaIiEE17_M_create_storageEm
FNA:3,39,_ZNSt12_Vector_baseIxSaIxEE17_M_create_storageEm
FNL:4,556,558
FNA:4,1,_ZNSt6vectorI9ChallengeSaIS0_EEC2EmRKS1_
FNA:4,4,_ZNSt6vectorINSt7__cxx1112basic_stringIcSt11char_traitsIcESaIcEEESaIS5_EEC2EmRKS6_
FNA:4,14,_ZNSt6vectorIiSaIiEEC2EmRKS0_
FNA:4,15,_ZNSt6vectorIxSaIxEEC2EmRKS0_
FNL:5,569,572
FNA:5,4,_ZNSt6vectorIS_IxSaIxEESaIS1_EEC2EmRKS1_RKS2_
FNA:5,1,_ZNSt6vectorIiSaIiEEC2EmRKiRKS0_
FNA:5,12,_ZNSt6vectorIxSaIxEEC2EmRKxRKS0_
FNL:6,601,609
FNA:6,12,_ZNSt6vectorIxSaIxEEC2ERKS1_
FNL:7,733,738
FNA:7,4,_ZNSt6vectorINSt7__cxx1112basic_stringIcSt11char_traitsIcESaIcEEESaIS5_EED2Ev
FNA:7,4,_ZNSt6vectorIS_IxSaIxEESaIS1_EED2Ev
FNF:8
FNH:8
DA:98,65
DA:99,65
DA:132,72
DA:136,2
DA:141,2
DA:145,63
DA:146,63
DA:300,84
DA:301,35
DA:305,12
DA:306,12
DA:314,2
DA:332,63
DA:333,63
DA:334,63
DA:366,72
DA:368,144
DA:369,72
DA:370,72
DA:377,98
DA:380,98
DA:385,72
DA:388,72
DA:389,72
DA:396,63
DA:398,63
DA:399,63
DA:400,63
DA:401,63
DA:504,35
DA:509,35
DA:531,2
DA:556,34
DA:557,34
DA:558,34
DA:569,17
DA:571,17
DA:572,13
DA:601,12
DA:603,12
DA:605,12
DA:606,24
DA:608,12
DA:609,12
DA:733,72
DA:735,80
DA:736,46
DA:738,45
DA:873,101
DA:874,99
DA:883,33
DA:884,33
DA:893,121
DA:894,99
DA:903,25
DA:904,25
DA:992,966
DA:993,940
DA:1090,13
DA:1091,13
DA:1128,102705
DA:1131,102492
DA:1147,600
DA:1150,600
DA:1223,8
DA:1226,8
DA:1235,6
DA:1238,6
DA:1283,3258
DA:1285,3258
DA:1288,3234
DA:1290,3234
DA:1294,24
DA:1295,3258
DA:1300,14
DA:1301,14
DA:1324,8
DA:1327,8
DA:1328,8
DA:1706,17
DA:1708,17
DA:1709,14
DA:1710,17
DA:1717,34
DA:1719,34
DA:1720,68
DA:1721,34
DA:1906,35
DA:1908,35
DA:1909,0
DA:1911,35
DA:1912,35
DA:1917,51
DA:1919,51
DA:1920,0
LF:95
LH:93
end_of_record
TN:
SF:/usr/include/c++/14/bits/string_view.tcc
FNL:0,80,92
FNA:0,12,_ZNKSt17basic_string_viewIcSt11char_traitsIcEE4findEcm
FNF:1
FNH:1
DA:80,12
DA:83,12
DA:84,12
DA:86,6
DA:87,6
DA:88,6
DA:89,6
DA:91,12
DA:188,0
DA:189,0
LF:10
LH:8
end_of_record
TN:
SF:/usr/include/c++/14/bits/unicode.h
FNL:0,158,172
FNA:0,0,_ZNSt9__unicode13_Utf_iteratorIDicPKDiS2_NS_5_ReplEEppEv
FNA:0,3,_ZNSt9__unicode13_Utf_iteratorIcDiPKcS2_NS_5_ReplEEppEv
FNL:1,262,359
FNA:1,6,_ZNSt9__unicode13_Utf_iteratorIcDiPKcS2_NS_5_ReplEE12_M_read_utf8Ev
FNL:2,392,399
FNA:2,0,_ZNSt9__unicode13_Utf_iteratorIDicPKDiS2_NS_5_ReplEE13_M_read_utf32Ev
FNL:3,403,465
FNA:3,0,_ZNSt9__unicode13_Utf_iteratorIDicPKDiS2_NS_5_ReplEE9_M_updateEDih
FNL:4,572,573
FNA:4,3,_ZNSt9__unicode9_Utf_viewIDiNSt6ranges8subrangeIPKcS4_LNS1_13subrange_kindE1EEEE5beginEv
FNA:4,0,_ZNSt9__unicode9_Utf_viewIDiSt17basic_string_viewIcSt11char_traitsIcEEE5beginEv
FNL:5,603,610
FNA:5,0,_ZNSt9__unicode9__v15_1_013__field_widthEDi
FNL:6,614,621
FNA:6,0,_ZNSt9__unicode9__v15_1_033__grapheme_cluster_break_propertyEDi
FNL:7,624,629
FNA:7,0,_ZNSt9__unicode9__v15_1_016__is_incb_linkerEDi
FNL:8,633,642
FNA:8,0,_ZNSt9__unicode9__v15_1_015__incb_propertyEDi
FNL:9,645,652
FNA:9,0,_ZNSt9__unicode9__v15_1_026__is_extended_pictographicEDi
FNL:10,674,703
FNA:10,0,_ZNSt9__unicode9__v15_1_031_Grapheme_cluster_iterator_base26_M_update_xpicto_seq_stateEDiNS0_13_Gcb_propertyE
FNL:11,730,732
FNA:11,0,_ZNSt9__unicode9__v15_1_022_Grapheme_cluster_viewISt17basic_string_viewIcSt11char_traitsIcEEEC2ES5_
FNL:12,755,763
FNA:12,0,_ZNSt9__unicode9__v15_1_022_Grapheme_cluster_viewISt17basic_string_viewIcSt11char_traitsIcEEE9_IteratorC2ENS_13_Utf_iteratorIcDiPKcSA_NS_5_ReplEEE
FNL:13,776,801
FNA:13,0,_ZNSt9__unicode9__v15_1_022_Grapheme_cluster_viewISt17basic_string_viewIcSt11char_traitsIcEEE9_IteratorppEv
FNL:14,840,940
FNA:14,0,_ZNKSt9__unicode9__v15_1_022_Grapheme_cluster_viewISt17basic_string_viewIcSt11char_traitsIcEEE9_Iterator11_M_is_breakENS0_13_Gcb_propertyES8_NS_13_Utf_iteratorIcDiPKcSB_NS_5_ReplEEE
FNL:15,951,962
FNA:15,0,_ZNSt9__unicode13__field_widthIcEEmSt17basic_string_viewIT_St11char_traitsIS2_EE
FNL:16,968,993
FNA:16,0,_ZNSt9__unicode10__truncateIcEEmRSt17basic_string_viewIT_St11char_traitsIS2_EEm
FNF:17
FNH:3
DA:51,3
DA:53,3
DA:54,3
DA:55,0
DA:108,3
DA:110,3
DA:112,3
DA:113,3
DA:115,0
DA:146,0
DA:150,3
DA:151,3
DA:155,3
DA:158,3
DA:160,3
DA:163,6
DA:164,3
DA:165,0
DA:167,3
DA:169,0
DA:170,0
DA:171,3
DA:175,3
DA:177,3
DA:178,3
DA:202,0
DA:207,0
DA:220,0
DA:231,6
DA:234,6
DA:240,0
DA:242,6
DA:256,6
DA:262,6
DA:264,6
DA:265,6
DA:266,6
DA:267,6
DA:268,6
DA:269,6
DA:270,0
DA:271,0
DA:274,6
DA:275,6
DA:276,0
DA:277,0
DA:278,0
DA:279,0
DA:280,0
DA:282,0
DA:283,0
DA:285,0
DA:286,0
DA:289,0
DA:290,0
DA:293,0
DA:295,0
DA:296,0
DA:298,0
DA:299,0
DA:301,0
DA:302,0
DA:303,0
DA:304,0
DA:307,0
DA:308,0
DA:310,0
DA:311,0
DA:314,0
DA:315,0
DA:319,0
DA:321,0
DA:322,0
DA:324,0
DA:325,0
DA:327,0
DA:328,0
DA:329,0
DA:330,0
DA:333,0
DA:334,0
DA:336,0
DA:337,0
DA:338,0
DA:339,0
DA:342,0
DA:343,0
DA:345,0
DA:346,0
DA:349,0
DA:350,0
DA:355,0
DA:356,0
DA:358,6
DA:359,6
DA:392,0
DA:394,0
DA:395,0
DA:396,0
DA:397,0
DA:398,0
DA:399,0
DA:403,6
DA:405,6
DA:406,0
DA:409,6
DA:410,6
DA:434,0
DA:435,0
DA:437,0
DA:438,0
DA:439,0
DA:441,0
DA:443,0
DA:444,0
DA:445,0
DA:446,0
DA:448,0
DA:450,0
DA:451,0
DA:452,0
DA:453,0
DA:454,0
DA:458,0
DA:459,0
DA:460,0
DA:461,0
DA:462,0
DA:465,0
DA:480,3
DA:483,3
DA:509,3
DA:510,3
DA:546,3
DA:549,3
DA:556,0
DA:561,0
DA:570,0
DA:572,3
DA:573,3
DA:575,0
DA:576,0
DA:578,3
DA:603,0
DA:605,0
DA:606,0
DA:608,0
DA:609,0
DA:614,0
DA:616,0
DA:617,0
DA:618,0
DA:619,0
DA:620,0
DA:624,0
DA:626,0
DA:628,0
DA:633,0
DA:635,0
DA:636,0
DA:638,0
DA:639,0
DA:640,0
DA:641,0
DA:645,0
DA:647,0
DA:648,0
DA:650,0
DA:651,0
DA:654,0
DA:664,0
DA:666,0
DA:667,0
DA:668,0
DA:669,0
DA:670,0
DA:671,0
DA:674,0
DA:676,0
DA:679,0
DA:680,0
DA:682,0
DA:684,0
DA:688,0
DA:689,0
DA:691,0
DA:692,0
DA:698,0
DA:699,0
DA:702,0
DA:706,0
DA:708,0
DA:709,0
DA:711,0
DA:715,0
DA:717,0
DA:718,0
DA:730,0
DA:731,0
DA:732,0
DA:734,0
DA:735,0
DA:755,0
DA:756,0
DA:758,0
DA:760,0
DA:761,0
DA:763,0
DA:776,0
DA:778,0
DA:779,0
DA:781,0
DA:782,0
DA:783,0
DA:785,0
DA:786,0
DA:787,0
DA:788,0
DA:789,0
DA:790,0
DA:793,0
DA:798,0
DA:800,0
DA:818,0
DA:821,0
DA:824,0
DA:828,0
DA:829,0
DA:840,0
DA:845,0
DA:848,0
DA:849,0
DA:852,0
DA:857,0
DA:870,0
DA:881,0
DA:884,0
DA:891,0
DA:894,0
DA:900,0
DA:901,0
DA:902,0
DA:906,0
DA:907,0
DA:908,0
DA:910,0
DA:914,0
DA:915,0
DA:917,0
DA:921,0
DA:922,0
DA:928,0
DA:935,0
DA:936,0
DA:951,0
DA:953,0
DA:954,0
DA:955,0
DA:956,0
DA:957,0
DA:958,0
DA:959,0
DA:960,0
DA:968,0
DA:970,0
DA:971,0
DA:973,0
DA:974,0
DA:975,0
DA:976,0
DA:977,0
DA:979,0
DA:980,0
DA:982,0
DA:984,0
DA:985,0
DA:987,0
DA:988,0
LF:278
LH:47
end_of_record
TN:
SF:/usr/include/c++/14/bits/unordered_map.h
FNF:0
FNH:0
DA:798,14
DA:799,14
DA:909,136
DA:910,136
DA:987,136
DA:988,136
LF:6
LH:6
end_of_record
TN:
SF:/usr/include/c++/14/bits/unordered_set.h
FNL:0,173,179
FNA:0,1,_ZNSt13unordered_setIxSt4hashIxESt8equal_toIxESaIxEEC2IN9__gnu_cxx17__normal_iteratorIPxSt6vectorIxS4_EEEEET_SD_mRKS1_RKS3_RKS4_
FNF:1
FNH:1
DA:104,18
DA:142,8
DA:173,1
DA:178,1
DA:179,1
DA:341,8
DA:342,8
DA:428,16
DA:429,16
DA:657,8
DA:658,8
DA:692,6
DA:693,8
LF:13
LH:13
end_of_record
TN:
SF:/usr/include/c++/14/bits/vector.tcc
FNL:0,111,127
FNA:0,12,_ZNSt6vectorIiSaIiEE12emplace_backIJiEEERiDpOT_
FNA:0,2,_ZNSt6vectorIxSaIxEE12emplace_backIJxEEERxDpOT_
FNL:1,581,695
FNA:1,19,_ZNSt6vectorIiSaIiEE17_M_realloc_appendIJRKiEEEvDpOT_
FNA:1,10,_ZNSt6vectorIiSaIiEE17_M_realloc_appendIJiEEEvDpOT_
FNA:1,5,_ZNSt6vectorIxSaIxEE17_M_realloc_appendIJRKxEEEvDpOT_
FNA:1,1,_ZNSt6vectorIxSaIxEE17_M_realloc_appendIJxEEEvDpOT_
FNL:2,612,617
FNA:2,19,_ZZNSt6vectorIiSaIiEE17_M_realloc_appendIJRKiEEEvDpOT_EN6_GuardD2Ev
FNA:2,10,_ZZNSt6vectorIiSaIiEE17_M_realloc_appendIJiEEEvDpOT_EN6_GuardD2Ev
FNA:2,5,_ZZNSt6vectorIxSaIxEE17_M_realloc_appendIJRKxEEEvDpOT_EN6_GuardD2Ev
FNA:2,1,_ZZNSt6vectorIxSaIxEE17_M_realloc_appendIJxEEEvDpOT_EN6_GuardD2Ev
FNF:3
FNH:3
DA:111,14
DA:114,14
DA:117,3
DA:119,3
DA:123,11
DA:125,14
DA:581,35
DA:590,35
DA:591,35
DA:592,0
DA:593,35
DA:594,35
DA:595,35
DA:596,35
DA:597,35
DA:607,35
DA:608,35
DA:612,35
DA:614,35
DA:616,26
DA:617,35
DA:624,35
DA:634,35
DA:635,35
DA:647,35
DA:648,35
DA:649,35
DA:686,35
DA:687,35
DA:688,35
DA:692,35
DA:693,35
DA:694,35
DA:695,35
LF:34
LH:33
end_of_record
TN:
SF:/usr/include/c++/14/charconv
FNL:0,121,157
FNA:0,0,_ZNSt8__detail10__to_charsIjEESt15to_chars_resultPcS2_T_i
FNA:0,0,_ZNSt8__detail10__to_charsImEESt15to_chars_resultPcS2_T_i
FNA:0,0,_ZNSt8__detail10__to_charsIoEESt15to_chars_resultPcS2_T_i
FNL:1,161,203
FNA:1,0,_ZNSt8__detail13__to_chars_16IjEESt15to_chars_resultPcS2_T_
FNA:1,0,_ZNSt8__detail13__to_chars_16ImEESt15to_chars_resultPcS2_T_
FNA:1,0,_ZNSt8__detail13__to_chars_16IoEESt15to_chars_resultPcS2_T_
FNL:2,207,226
FNA:2,0,_ZNSt8__detail13__to_chars_10IjEESt15to_chars_resultPcS2_T_
FNA:2,0,_ZNSt8__detail13__to_chars_10ImEESt15to_chars_resultPcS2_T_
FNA:2,0,_ZNSt8__detail13__to_chars_10IoEESt15to_chars_resultPcS2_T_
FNL:3,230,279
FNA:3,0,_ZNSt8__detail12__to_chars_8IjEESt15to_chars_resultPcS2_T_
FNA:3,0,_ZNSt8__detail12__to_chars_8ImEESt15to_chars_resultPcS2_T_
FNA:3,0,_ZNSt8__detail12__to_chars_8IoEESt15to_chars_resultPcS2_T_
FNL:4,283,313
FNA:4,0,_ZNSt8__detail12__to_chars_2IjEESt15to_chars_resultPcS2_T_
FNA:4,0,_ZNSt8__detail12__to_chars_2ImEESt15to_chars_resultPcS2_T_
FNA:4,0,_ZNSt8__detail12__to_chars_2IoEESt15to_chars_resultPcS2_T_
FNL:5,319,354
FNA:5,0,_ZSt12__to_chars_iIhESt15to_chars_resultPcS1_T_i
FNA:5,0,_ZSt12__to_chars_iIjESt15to_chars_resultPcS1_T_i
FNA:5,0,_ZSt12__to_chars_iImESt15to_chars_resultPcS1_T_i
FNA:5,0,_ZSt12__to_chars_iIoESt15to_chars_resultPcS1_T_i
FNA:5,0,_ZSt12__to_chars_iIyESt15to_chars_resultPcS1_T_i
FNL:6,517,543
FNA:6,3,_ZNSt8__detail18__from_chars_alnumILb1EtEEbRPKcS2_RT0_i
FNF:7
FNH:1
DA:115,0
DA:116,0
DA:121,0
DA:127,0
DA:129,0
DA:131,0
DA:132,0
DA:133,0
DA:136,0
DA:138,0
DA:145,0
DA:147,0
DA:148,0
DA:149,0
DA:150,0
DA:152,0
DA:154,0
DA:155,0
DA:156,0
DA:161,0
DA:167,0
DA:169,0
DA:171,0
DA:172,0
DA:173,0
DA:176,0
DA:180,0
DA:181,0
DA:183,0
DA:184,0
DA:185,0
DA:186,0
DA:187,0
DA:188,0
DA:189,0
DA:191,0
DA:193,0
DA:194,0
DA:195,0
DA:196,0
DA:199,0
DA:200,0
DA:201,0
DA:202,0
DA:207,0
DA:213,0
DA:215,0
DA:217,0
DA:218,0
DA:219,0
DA:222,0
DA:223,0
DA:224,0
DA:225,0
DA:230,0
DA:235,0
DA:247,0
DA:249,0
DA:251,0
DA:252,0
DA:253,0
DA:256,0
DA:257,0
DA:259,0
DA:260,0
DA:261,0
DA:262,0
DA:263,0
DA:264,0
DA:265,0
DA:267,0
DA:269,0
DA:270,0
DA:271,0
DA:272,0
DA:275,0
DA:276,0
DA:277,0
DA:278,0
DA:283,0
DA:289,0
DA:291,0
DA:293,0
DA:294,0
DA:295,0
DA:298,0
DA:300,0
DA:302,0
DA:303,0
DA:308,0
DA:310,0
DA:311,0
DA:312,0
DA:319,0
DA:321,0
DA:324,0
DA:326,0
DA:327,0
DA:329,0
DA:331,0
DA:332,0
DA:341,0
DA:343,0
DA:344,0
DA:345,0
DA:346,0
DA:347,0
DA:348,0
DA:349,0
DA:350,0
DA:351,0
DA:352,0
DA:368,0
DA:397,0
DA:399,0
DA:400,0
DA:448,9
DA:451,6
DA:453,3
DA:517,3
DA:522,3
DA:523,3
DA:524,6
DA:526,6
DA:527,6
DA:530,3
DA:531,3
DA:533,3
DA:534,3
DA:536,0
DA:537,0
LF:131
LH:13
end_of_record
TN:
SF:/usr/include/c++/14/cmath
FNF:0
FNH:0
DA:454,6
DA:455,6
LF:2
LH:2
end_of_record
TN:
SF:/usr/include/c++/14/compare
FNF:0
FNH:0
DA:1224,0
DA:1233,0
LF:2
LH:0
end_of_record
TN:
SF:/usr/include/c++/14/ext/aligned_buffer.h
FNF:0
FNH:0
DA:65,44
DA:73,0
DA:77,379
DA:104,32
DA:106,286
DA:110,16
DA:112,35
DA:116,32
DA:117,168
DA:120,16
DA:121,16
LF:11
LH:10
end_of_record
TN:
SF:/usr/include/c++/14/ext/alloc_traits.h
FNF:0
FNH:0
DA:97,28
DA:98,28
LF:2
LH:2
end_of_record
TN:
SF:/usr/include/c++/14/format
FNL:0,1059,1084
FNA:0,0,_ZNSt8__format15__formatter_intIcE8_M_parseIbEEPKcRSt26basic_format_parse_contextIcE
FNA:0,0,_ZNSt8__format15__formatter_intIcE8_M_parseIcEEPKcRSt26basic_format_parse_contextIcE
FNL:1,1088,1155
FNA:1,0,_ZNKSt8__format15__formatter_intIcE6formatIhNS_10_Sink_iterIcEEEENSt20basic_format_contextIT0_cE8iteratorET_RS7_
FNA:1,0,_ZNKSt8__format15__formatter_intIcE6formatIiNS_10_Sink_iterIcEEEENSt20basic_format_contextIT0_cE8iteratorET_RS7_
FNA:1,0,_ZNKSt8__format15__formatter_intIcE6formatIjNS_10_Sink_iterIcEEEENSt20basic_format_contextIT0_cE8iteratorET_RS7_
FNA:1,0,_ZNKSt8__format15__formatter_intIcE6formatInNS_10_Sink_iterIcEEEENSt20basic_format_contextIT0_cE8iteratorET_RS7_
FNA:1,0,_ZNKSt8__format15__formatter_intIcE6formatIoNS_10_Sink_iterIcEEEENSt20basic_format_contextIT0_cE8iteratorET_RS7_
FNA:1,0,_ZNKSt8__format15__formatter_intIcE6formatIxNS_10_Sink_iterIcEEEENSt20basic_format_contextIT0_cE8iteratorET_RS7_
FNA:1,0,_ZNKSt8__format15__formatter_intIcE6formatIyNS_10_Sink_iterIcEEEENSt20basic_format_contextIT0_cE8iteratorET_RS7_
FNL:2,1159,1185
FNA:2,0,_ZNKSt8__format15__formatter_intIcE6formatINS_10_Sink_iterIcEEEENSt20basic_format_contextIT_cE8iteratorEbRS7_
FNL:3,1189,1193
FNA:3,0,_ZNKSt8__format15__formatter_intIcE19_M_format_characterINS_10_Sink_iterIcEEEENSt20basic_format_contextIT_cE8iteratorEcRS7_
FNL:4,1218,1289
FNA:4,0,_ZNKSt8__format15__formatter_intIcE13_M_format_intINS_10_Sink_iterIcEEEENSt20basic_format_contextIT_cE8iteratorESt17basic_string_viewIcSt11char_traitsIcEEmRS7_
FNL:5,1405,1498
FNA:5,3,_ZNSt8__format14__formatter_fpIcE5parseERSt26basic_format_parse_contextIcE
FNL:6,1415,1415
FNA:6,24,_ZZNSt8__format14__formatter_fpIcE5parseERSt26basic_format_parse_contextIcEENKUlvE0_clEv
FNL:7,1502,1773
FNA:7,0,_ZNKSt8__format14__formatter_fpIcE6formatIDF128_NS_10_Sink_iterIcEEEENSt20basic_format_contextIT0_cE8iteratorET_RS7_
FNA:7,3,_ZNKSt8__format14__formatter_fpIcE6formatIdNS_10_Sink_iterIcEEEENSt20basic_format_contextIT0_cE8iteratorET_RS7_
FNA:7,0,_ZNKSt8__format14__formatter_fpIcE6formatIeNS_10_Sink_iterIcEEEENSt20basic_format_contextIT0_cE8iteratorET_RS7_
FNA:7,0,_ZNKSt8__format14__formatter_fpIcE6formatIfNS_10_Sink_iterIcEEEENSt20basic_format_contextIT0_cE8iteratorET_RS7_
FNL:8,1565,1565
FNA:8,0,_ZZNKSt8__format14__formatter_fpIcE6formatIDF128_NS_10_Sink_iterIcEEEENSt20basic_format_contextIT0_cE8iteratorET_RS7_ENKUlPcSB_E_clESB_SB_
FNA:8,3,_ZZNKSt8__format14__formatter_fpIcE6formatIdNS_10_Sink_iterIcEEEENSt20basic_format_contextIT0_cE8iteratorET_RS7_ENKUlPcSB_E_clESB_SB_
FNA:8,0,_ZZNKSt8__format14__formatter_fpIcE6formatIeNS_10_Sink_iterIcEEEENSt20basic_format_contextIT0_cE8iteratorET_RS7_ENKUlPcSB_E_clESB_SB_
FNA:8,0,_ZZNKSt8__format14__formatter_fpIcE6formatIfNS_10_Sink_iterIcEEEENSt20basic_format_contextIT0_cE8iteratorET_RS7_ENKUlPcSB_E_clESB_SB_
FNL:9,1608,1608
FNA:9,0,_ZZNKSt8__format14__formatter_fpIcE6formatIDF128_NS_10_Sink_iterIcEEEENSt20basic_format_contextIT0_cE8iteratorET_RS7_ENKUlPcmE_clESB_m
FNA:9,0,_ZZNKSt8__format14__formatter_fpIcE6formatIdNS_10_Sink_iterIcEEEENSt20basic_format_contextIT0_cE8iteratorET_RS7_ENKUlPcmE_clESB_m
FNA:9,0,_ZZNKSt8__format14__formatter_fpIcE6formatIeNS_10_Sink_iterIcEEEENSt20basic_format_contextIT0_cE8iteratorET_RS7_ENKUlPcmE_clESB_m
FNA:9,0,_ZZNKSt8__format14__formatter_fpIcE6formatIfNS_10_Sink_iterIcEEEENSt20basic_format_contextIT0_cE8iteratorET_RS7_ENKUlPcmE_clESB_m
FNL:10,1777,1844
FNA:10,0,_ZNKSt8__format14__formatter_fpIcE11_M_localizeB5cxx11ESt17basic_string_viewIcSt11char_traitsIcEEcRKSt6locale
FNL:11,1825,1825
FNA:11,0,_ZZNKSt8__format14__formatter_fpIcE11_M_localizeB5cxx11ESt17basic_string_viewIcSt11char_traitsIcEEcRKSt6localeENKUlPcmE_clES9_m
FNL:12,1866,1878
FNA:12,0,_ZNKSt9formatterIccE6formatINSt8__format10_Sink_iterIcEEEENSt20basic_format_contextIT_cE8iteratorEcRS7_
FNL:13,194,195
FNA:13,0,_ZSt20__throw_format_errorPKc
FNL:14,1970,1972
FNA:14,0,_ZNKSt9formatterIPKccE6formatINSt8__format10_Sink_iterIcEEEENSt20basic_format_contextIT_cE8iteratorES1_RS9_
FNL:15,203,204
FNA:15,0,_ZNSt8__format39__unmatched_left_brace_in_format_stringEv
FNL:16,208,209
FNA:16,0,_ZNSt8__format40__unmatched_right_brace_in_format_stringEv
FNL:17,213,214
FNA:17,0,_ZNSt8__format39__conflicting_indexing_in_format_stringEv
FNL:18,218,219
FNA:18,0,_ZNSt8__format33__invalid_arg_id_in_format_stringEv
FNL:19,223,224
FNA:19,0,_ZNSt8__format29__failed_to_parse_format_specEv
FNL:20,2318,2379
FNA:20,0,_ZNSt9formatterIPKvcE5parseERSt26basic_format_parse_contextIcE
FNL:21,2328,2328
FNA:21,0,_ZZNSt9formatterIPKvcE5parseERSt26basic_format_parse_contextIcEENKUlvE0_clEv
FNL:22,2383,2437
FNA:22,0,_ZNKSt9formatterIPKvcE6formatINSt8__format10_Sink_iterIcEEEENSt20basic_format_contextIT_cE8iteratorES1_RS9_
FNL:23,2692,2697
FNA:23,0,_ZNSt8__format5_SinkIcE8_M_writeEc
FNL:24,2700,2716
FNA:24,3,_ZNSt8__format5_SinkIcE8_M_writeESt17basic_string_viewIcSt11char_traitsIcEE
FNL:25,2736,2748
FNA:25,0,_ZNSt8__format5_SinkIcE10_M_reserveEm
FNL:26,2753,2754
FNA:26,0,_ZNSt8__format5_SinkIcE7_M_bumpEm
FNL:27,2793,2809
FNA:27,3,_ZNSt8__format9_Seq_sinkINSt7__cxx1112basic_stringIcSt11char_traitsIcESaIcEEEE11_M_overflowEv
FNL:28,2812,2845
FNA:28,0,_ZNSt8__format9_Seq_sinkINSt7__cxx1112basic_stringIcSt11char_traitsIcESaIcEEEE10_M_reserveEm
FNL:29,2848,2860
FNA:29,0,_ZNSt8__format9_Seq_sinkINSt7__cxx1112basic_stringIcSt11char_traitsIcESaIcEEEE7_M_bumpEm
FNL:30,2877,2882
FNA:30,3,_ZNOSt8__format9_Seq_sinkINSt7__cxx1112basic_stringIcSt11char_traitsIcESaIcEEEE3getEv
FNL:31,2920,2937
FNA:31,0,_ZNSt8__format10_Iter_sinkIcNS_10_Sink_iterIcEEE11_M_overflowEv
FNL:32,307,332
FNA:32,3,_ZNSt8__format15__parse_integerIcEESt4pairItPKT_ES4_S4_
FNL:33,336,355
FNA:33,0,_ZNSt8__format14__parse_arg_idIcEESt4pairItPKT_ES4_S4_
FNL:34,3502,3563
FNA:34,0,_ZNSt16basic_format_argISt20basic_format_contextINSt8__format10_Sink_iterIcEEcEE8_M_visitINS1_17_WidthPrecVisitorEEEDcOT_NS1_6_Arg_tE
FNA:34,0,_ZNSt16basic_format_argISt20basic_format_contextINSt8__format10_Sink_iterIcEEcEE8_M_visitIZNS1_15__do_vformat_toIS3_cS4_EET_S8_St17basic_string_viewIT0_St11char_traitsISA_EERKSt17basic_format_argsIT1_EPKSt6localeEUlRS8_E_EEDcOS8_NS1_6_Arg_tE
FNA:34,3,_ZNSt16basic_format_argISt20basic_format_contextINSt8__format10_Sink_iterIcEEcEE8_M_visitIZNS1_19_Formatting_scannerIS3_cE13_M_format_argEmEUlRT_E_EEDcOS9_NS1_6_Arg_tE
FNL:35,3604,3605
FNA:35,0,_ZNSt8__format14__int_from_argISt20basic_format_contextINS_10_Sink_iterIcEEcEEEmRKSt16basic_format_argIT_E
FNL:36,3877,3878
FNA:36,3,_ZNKSt20basic_format_contextINSt8__format10_Sink_iterIcEEcE3argEm
FNL:37,3881,3881
FNA:37,0,_ZNSt20basic_format_contextINSt8__format10_Sink_iterIcEEcE6localeEv
FNL:38,3914,3974
FNA:38,3,_ZNSt8__format8_ScannerIcE7_M_scanEv
FNL:39,3980,3980
FNA:39,0,_ZNSt8__format8_ScannerIcE11_M_on_charsEPKc
FNL:40,3982,4011
FNA:40,3,_ZNSt8__format8_ScannerIcE23_M_on_replacement_fieldEv
FNL:41,4032,4036
FNA:41,3,_ZNSt8__format19_Formatting_scannerINS_10_Sink_iterIcEEcE11_M_on_charsEPKc
FNL:42,4039,4060
FNA:42,3,_ZNSt8__format19_Formatting_scannerINS_10_Sink_iterIcEEcE13_M_format_argEm
FNL:43,4044,4044
FNA:43,0,_ZZNSt8__format19_Formatting_scannerINS_10_Sink_iterIcEEcE13_M_format_argEmENKUlRT_E_clIDF128_EEDaS5_
FNA:43,0,_ZZNSt8__format19_Formatting_scannerINS_10_Sink_iterIcEEcE13_M_format_argEmENKUlRT_E_clIPKcEEDaS5_
FNA:43,0,_ZZNSt8__format19_Formatting_scannerINS_10_Sink_iterIcEEcE13_M_format_argEmENKUlRT_E_clIPKvEEDaS5_
FNA:43,0,_ZZNSt8__format19_Formatting_scannerINS_10_Sink_iterIcEEcE13_M_format_argEmENKUlRT_E_clISt17basic_string_viewIcSt11char_traitsIcEEEEDaS5_
FNA:43,0,_ZZNSt8__format19_Formatting_scannerINS_10_Sink_iterIcEEcE13_M_format_argEmENKUlRT_E_clIbEEDaS5_
FNA:43,0,_ZZNSt8__format19_Formatting_scannerINS_10_Sink_iterIcEEcE13_M_format_argEmENKUlRT_E_clIcEEDaS5_
FNA:43,3,_ZZNSt8__format19_Formatting_scannerINS_10_Sink_iterIcEEcE13_M_format_argEmENKUlRT_E_clIdEEDaS5_
FNA:43,0,_ZZNSt8__format19_Formatting_scannerINS_10_Sink_iterIcEEcE13_M_format_argEmENKUlRT_E_clIeEEDaS5_
FNA:43,0,_ZZNSt8__format19_Formatting_scannerINS_10_Sink_iterIcEEcE13_M_format_argEmENKUlRT_E_clIfEEDaS5_
FNA:43,0,_ZZNSt8__format19_Formatting_scannerINS_10_Sink_iterIcEEcE13_M_format_argEmENKUlRT_E_clIiEEDaS5_
FNA:43,0,_ZZNSt8__format19_Formatting_scannerINS_10_Sink_iterIcEEcE13_M_format_argEmENKUlRT_E_clIjEEDaS5_
FNA:43,0,_ZZNSt8__format19_Formatting_scannerINS_10_Sink_iterIcEEcE13_M_format_argEmENKUlRT_E_clInEEDaS5_
FNA:43,0,_ZZNSt8__format19_Formatting_scannerINS_10_Sink_iterIcEEcE13_M_format_argEmENKUlRT_E_clIoEEDaS5_
FNA:43,0,_ZZNSt8__format19_Formatting_scannerINS_10_Sink_iterIcEEcE13_M_format_argEmENKUlRT_E_clIxEEDaS5_
FNA:43,0,_ZZNSt8__format19_Formatting_scannerINS_10_Sink_iterIcEEcE13_M_format_argEmENKUlRT_E_clIyEEDaS5_
FNL:44,4079,4090
FNA:44,0,_ZNSt8__format17_Checking_scannerIcJdEE13_M_format_argEm
FNL:45,4094,4105
FNA:45,0,_ZNSt8__format17_Checking_scannerIcJdEE20_M_parse_format_specIdJEEEvm
FNL:46,4110,4199
FNA:46,3,_ZNSt8__format15__do_vformat_toINS_10_Sink_iterIcEEcSt20basic_format_contextIS2_cEEET_S5_St17basic_string_viewIT0_St11char_traitsIS7_EERKSt17basic_format_argsIT1_EPKSt6locale
FNL:47,4127,4127
FNA:47,0,_ZZNSt8__format15__do_vformat_toINS_10_Sink_iterIcEEcSt20basic_format_contextIS2_cEEET_S5_St17basic_string_viewIT0_St11char_traitsIS7_EERKSt17basic_format_argsIT1_EPKSt6localeENKUlRS5_E_clIPKcEEDaSJ_
FNA:47,0,_ZZNSt8__format15__do_vformat_toINS_10_Sink_iterIcEEcSt20basic_format_contextIS2_cEEET_S5_St17basic_string_viewIT0_St11char_traitsIS7_EERKSt17basic_format_argsIT1_EPKSt6localeENKUlRS5_E_clIS6_IcS8_IcEEEEDaSJ_
FNA:47,0,_ZZNSt8__format15__do_vformat_toINS_10_Sink_iterIcEEcSt20basic_format_contextIS2_cEEET_S5_St17basic_string_viewIT0_St11char_traitsIS7_EERKSt17basic_format_argsIT1_EPKSt6localeENKUlRS5_E_clIbEEDaSJ_
FNA:47,0,_ZZNSt8__format15__do_vformat_toINS_10_Sink_iterIcEEcSt20basic_format_contextIS2_cEEET_S5_St17basic_string_viewIT0_St11char_traitsIS7_EERKSt17basic_format_argsIT1_EPKSt6localeENKUlRS5_E_clIcEEDaSJ_
FNA:47,0,_ZZNSt8__format15__do_vformat_toINS_10_Sink_iterIcEEcSt20basic_format_contextIS2_cEEET_S5_St17basic_string_viewIT0_St11char_traitsIS7_EERKSt17basic_format_argsIT1_EPKSt6localeENKUlRS5_E_clIiEEDaSJ_
FNA:47,0,_ZZNSt8__format15__do_vformat_toINS_10_Sink_iterIcEEcSt20basic_format_contextIS2_cEEET_S5_St17basic_string_viewIT0_St11char_traitsIS7_EERKSt17basic_format_argsIT1_EPKSt6localeENKUlRS5_E_clIjEEDaSJ_
FNA:47,0,_ZZNSt8__format15__do_vformat_toINS_10_Sink_iterIcEEcSt20basic_format_contextIS2_cEEET_S5_St17basic_string_viewIT0_St11char_traitsIS7_EERKSt17basic_format_argsIT1_EPKSt6localeENKUlRS5_E_clIxEEDaSJ_
FNA:47,0,_ZZNSt8__format15__do_vformat_toINS_10_Sink_iterIcEEcSt20basic_format_contextIS2_cEEET_S5_St17basic_string_viewIT0_St11char_traitsIS7_EERKSt17basic_format_argsIT1_EPKSt6localeENKUlRS5_E_clIyEEDaSJ_
FNL:48,4255,4260
FNA:48,3,_ZSt7vformatB5cxx11St17basic_string_viewIcSt11char_traitsIcEESt17basic_format_argsISt20basic_format_contextINSt8__format10_Sink_iterIcEEcEE
FNL:49,4296,4297
FNA:49,3,_ZSt6formatIJRdEENSt7__cxx1112basic_stringIcSt11char_traitsIcESaIcEEESt19basic_format_stringIcJDpNSt13type_identityIT_E4typeEEEDpOS9_
FNL:50,431,470
FNA:50,3,_ZNSt8__format5_SpecIcE23_M_parse_fill_and_alignEPKcS3_
FNL:51,522,555
FNA:51,3,_ZNSt8__format5_SpecIcE27_S_parse_width_or_precisionEPKcS3_RtRbRSt26basic_format_parse_contextIcE
FNL:52,559,571
FNA:52,0,_ZNSt8__format5_SpecIcE14_M_parse_widthEPKcS3_RSt26basic_format_parse_contextIcE
FNL:53,575,591
FNA:53,3,_ZNSt8__format5_SpecIcE18_M_parse_precisionEPKcS3_RSt26basic_format_parse_contextIcE
FNL:54,607,615
FNA:54,3,_ZNKSt8__format5_SpecIcE12_M_get_widthISt20basic_format_contextINS_10_Sink_iterIcEEcEEEmRT_
FNL:55,619,627
FNA:55,3,_ZNKSt8__format5_SpecIcE16_M_get_precisionISt20basic_format_contextINS_10_Sink_iterIcEEcEEEmRT_
FNL:56,649,660
FNA:56,6,_ZNSt8__format7__writeINS_10_Sink_iterIcEEcEET_S3_St17basic_string_viewIT0_St11char_traitsIS5_EE
FNL:57,666,734
FNA:57,0,_ZNSt8__format14__write_paddedINS_10_Sink_iterIcEEcEET_S3_St17basic_string_viewIT0_St11char_traitsIS5_EENS_6_AlignEmDi
FNL:58,674,674
FNA:58,0,_ZZNSt8__format14__write_paddedINS_10_Sink_iterIcEEcEET_S3_St17basic_string_viewIT0_St11char_traitsIS5_EENS_6_AlignEmDiENKUlmRS2_E_clEmSA_
FNL:59,740,758
FNA:59,0,_ZNSt8__format22__write_padded_as_specIcNS_10_Sink_iterIcEEEET0_St17basic_string_viewINSt13type_identityIT_E4typeESt11char_traitsIS8_EEmRSt20basic_format_contextIS3_S6_ERKNS_5_SpecIS6_EENS_6_AlignE
FNL:60,845,893
FNA:60,0,_ZNSt8__format15__formatter_strIcE5parseERSt26basic_format_parse_contextIcE
FNL:61,855,855
FNA:61,0,_ZZNSt8__format15__formatter_strIcE5parseERSt26basic_format_parse_contextIcEENKUlvE0_clEv
FNL:62,897,928
FNA:62,0,_ZNKSt8__format15__formatter_strIcE6formatINS_10_Sink_iterIcEEEET_St17basic_string_viewIcSt11char_traitsIcEERSt20basic_format_contextIS5_cE
FNL:63,950,1055
FNA:63,0,_ZNSt8__format15__formatter_intIcE11_M_do_parseERSt26basic_format_parse_contextIcENS_10_Pres_typeE
FNL:64,962,962
FNA:64,0,_ZZNSt8__format15__formatter_intIcE11_M_do_parseERSt26basic_format_parse_contextIcENS_10_Pres_typeEENKUlvE0_clEv
FNF:65
FNH:24
DA:142,3
DA:143,3
DA:188,0
DA:194,0
DA:195,0
DA:203,0
DA:204,0
DA:208,0
DA:209,0
DA:213,0
DA:214,0
DA:218,0
DA:219,0
DA:223,0
DA:224,0
DA:244,3
DA:246,3
DA:252,21
DA:253,15
DA:256,12
DA:257,12
DA:260,3
DA:262,0
DA:263,0
DA:264,3
DA:271,3
DA:275,0
DA:277,0
DA:278,0
DA:279,0
DA:307,3
DA:309,3
DA:310,0
DA:314,3
DA:315,3
DA:317,3
DA:318,3
DA:319,3
DA:331,0
DA:336,0
DA:338,0
DA:339,0
DA:341,0
DA:342,0
DA:344,0
DA:346,0
DA:347,0
DA:349,0
DA:350,0
DA:352,0
DA:354,0
DA:392,3
DA:393,3
DA:395,0
DA:396,0
DA:418,6
DA:420,3
DA:431,3
DA:433,3
DA:439,3
DA:440,3
DA:442,3
DA:443,3
DA:444,3
DA:445,3
DA:446,3
DA:448,0
DA:449,0
DA:450,0
DA:462,0
DA:464,0
DA:465,0
DA:466,0
DA:473,3
DA:475,3
DA:486,3
DA:488,0
DA:490,0
DA:491,0
DA:498,3
DA:500,3
DA:502,0
DA:503,0
DA:510,3
DA:512,3
DA:514,0
DA:515,0
DA:522,3
DA:526,3
DA:528,3
DA:529,3
DA:530,0
DA:532,3
DA:533,3
DA:535,0
DA:537,0
DA:538,0
DA:539,0
DA:540,0
DA:541,0
DA:542,0
DA:545,0
DA:546,0
DA:547,0
DA:548,0
DA:549,0
DA:550,0
DA:552,0
DA:554,3
DA:559,0
DA:562,0
DA:563,0
DA:564,0
DA:566,0
DA:568,0
DA:569,0
DA:570,0
DA:575,3
DA:578,3
DA:581,3
DA:582,3
DA:583,3
DA:584,3
DA:586,3
DA:587,0
DA:589,3
DA:590,3
DA:595,3
DA:597,3
DA:599,0
DA:600,0
DA:607,3
DA:609,3
DA:610,3
DA:611,0
DA:612,3
DA:613,0
DA:614,3
DA:619,3
DA:621,3
DA:622,3
DA:623,3
DA:624,0
DA:625,0
DA:626,3
DA:632,0
DA:634,0
DA:635,0
DA:636,0
DA:637,0
DA:638,0
DA:639,0
DA:649,6
DA:653,6
DA:654,3
DA:659,6
DA:666,0
DA:669,0
DA:671,0
DA:672,0
DA:674,0
DA:675,0
DA:677,0
DA:679,0
DA:680,0
DA:682,0
DA:683,0
DA:687,0
DA:689,0
DA:690,0
DA:691,0
DA:693,0
DA:701,0
DA:702,0
DA:703,0
DA:708,0
DA:711,0
DA:712,0
DA:713,0
DA:714,0
DA:715,0
DA:716,0
DA:717,0
DA:718,0
DA:719,0
DA:720,0
DA:721,0
DA:723,0
DA:724,0
DA:728,0
DA:729,0
DA:730,0
DA:731,0
DA:733,0
DA:740,0
DA:746,0
DA:748,0
DA:749,0
DA:751,0
DA:753,0
DA:754,0
DA:756,0
DA:757,0
DA:764,3
DA:766,0
DA:767,0
DA:798,0
DA:814,0
DA:816,0
DA:818,0
DA:819,0
DA:821,0
DA:845,0
DA:847,0
DA:848,0
DA:849,0
DA:851,0
DA:852,0
DA:855,0
DA:856,0
DA:858,0
DA:859,0
DA:864,0
DA:867,0
DA:868,0
DA:871,0
DA:872,0
DA:875,0
DA:876,0
DA:879,0
DA:880,0
DA:889,0
DA:890,0
DA:892,0
DA:897,0
DA:900,0
DA:905,0
DA:906,0
DA:907,0
DA:912,0
DA:914,0
DA:915,0
DA:918,0
DA:926,0
DA:927,0
DA:950,0
DA:952,0
DA:953,0
DA:955,0
DA:956,0
DA:958,0
DA:959,0
DA:962,0
DA:963,0
DA:965,0
DA:966,0
DA:971,0
DA:974,0
DA:975,0
DA:978,0
DA:979,0
DA:982,0
DA:983,0
DA:986,0
DA:987,0
DA:990,0
DA:991,0
DA:994,0
DA:995,0
DA:998,0
DA:1000,0
DA:1001,0
DA:1002,0
DA:1003,0
DA:1004,0
DA:1005,0
DA:1006,0
DA:1007,0
DA:1008,0
DA:1011,0
DA:1013,0
DA:1014,0
DA:1017,0
DA:1018,0
DA:1019,0
DA:1020,0
DA:1021,0
DA:1022,0
DA:1023,0
DA:1024,0
DA:1025,0
DA:1026,0
DA:1027,0
DA:1028,0
DA:1029,0
DA:1030,0
DA:1031,0
DA:1032,0
DA:1033,0
DA:1034,0
DA:1036,0
DA:1037,0
DA:1051,0
DA:1052,0
DA:1054,0
DA:1059,0
DA:1063,0
DA:1064,0
DA:1065,0
DA:1066,0
DA:1069,0
DA:1073,0
DA:1074,0
DA:1075,0
DA:1077,0
DA:1080,0
DA:1083,0
DA:1088,0
DA:1090,0
DA:1091,0
DA:1094,0
DA:1096,0
DA:1098,0
DA:1099,0
DA:1101,0
DA:1103,0
DA:1104,0
DA:1105,0
DA:1107,0
DA:1109,0
DA:1111,0
DA:1112,0
DA:1118,0
DA:1122,0
DA:1124,0
DA:1125,0
DA:1126,0
DA:1127,0
DA:1129,0
DA:1131,0
DA:1132,0
DA:1133,0
DA:1134,0
DA:1136,0
DA:1141,0
DA:1142,0
DA:1145,0
DA:1147,0
DA:1148,0
DA:1151,0
DA:1153,0
DA:1154,0
DA:1159,0
DA:1161,0
DA:1162,0
DA:1163,0
DA:1164,0
DA:1166,0
DA:1168,0
DA:1170,0
DA:1171,0
DA:1172,0
DA:1177,0
DA:1180,0
DA:1183,0
DA:1184,0
DA:1185,0
DA:1189,0
DA:1192,0
DA:1197,0
DA:1202,0
DA:1210,0
DA:1211,0
DA:1212,0
DA:1218,0
DA:1221,0
DA:1225,0
DA:1236,0
DA:1238,0
DA:1239,0
DA:1241,0
DA:1242,0
DA:1243,0
DA:1245,0
DA:1246,0
DA:1249,0
DA:1250,0
DA:1251,0
DA:1252,0
DA:1253,0
DA:1254,0
DA:1257,0
DA:1259,0
DA:1260,0
DA:1262,0
DA:1263,0
DA:1265,0
DA:1266,0
DA:1268,0
DA:1269,0
DA:1270,0
DA:1272,0
DA:1273,0
DA:1275,0
DA:1277,0
DA:1279,0
DA:1281,0
DA:1287,0
DA:1301,0
DA:1302,0
DA:1405,3
DA:1407,3
DA:1408,3
DA:1409,3
DA:1411,6
DA:1412,3
DA:1415,27
DA:1416,24
DA:1418,3
DA:1419,3
DA:1424,3
DA:1427,3
DA:1428,3
DA:1431,3
DA:1432,3
DA:1435,3
DA:1436,3
DA:1439,3
DA:1440,3
DA:1443,3
DA:1445,0
DA:1446,0
DA:1450,3
DA:1451,3
DA:1454,3
DA:1455,3
DA:1458,3
DA:1460,0
DA:1461,0
DA:1462,0
DA:1463,0
DA:1464,0
DA:1465,0
DA:1466,0
DA:1467,0
DA:1468,0
DA:1469,0
DA:1470,0
DA:1471,0
DA:1472,0
DA:1473,0
DA:1474,0
DA:1475,0
DA:1476,3
DA:1477,3
DA:1478,3
DA:1479,3
DA:1480,0
DA:1481,0
DA:1482,0
DA:1483,0
DA:1484,0
DA:1485,0
DA:1486,0
DA:1487,0
DA:1488,0
DA:1489,0
DA:1490,0
DA:1491,0
DA:1494,3
DA:1495,3
DA:1497,0
DA:1502,3
DA:1504,3
DA:1506,3
DA:1508,3
DA:1509,3
DA:1510,3
DA:1511,3
DA:1513,3
DA:1514,3
DA:1516,3
DA:1517,3
DA:1518,3
DA:1519,3
DA:1521,3
DA:1523,0
DA:1524,0
DA:1525,0
DA:1527,0
DA:1528,0
DA:1529,0
DA:1530,0
DA:1531,0
DA:1532,0
DA:1533,0
DA:1534,0
DA:1536,0
DA:1537,0
DA:1538,0
DA:1539,0
DA:1540,0
DA:1541,0
DA:1543,3
DA:1544,3
DA:1545,3
DA:1546,3
DA:1547,0
DA:1548,0
DA:1549,0
DA:1551,0
DA:1552,0
DA:1553,0
DA:1554,0
DA:1555,0
DA:1556,0
DA:1557,0
DA:1558,0
DA:1560,0
DA:1561,0
DA:1565,6
DA:1566,3
DA:1567,3
DA:1568,0
DA:1569,0
DA:1571,0
DA:1575,3
DA:1577,3
DA:1581,0
DA:1582,0
DA:1589,0
DA:1591,0
DA:1593,0
DA:1595,0
DA:1596,0
DA:1597,0
DA:1600,0
DA:1602,0
DA:1603,0
DA:1604,0
DA:1608,0
DA:1610,0
DA:1611,0
DA:1614,0
DA:1616,0
DA:1617,0
DA:1619,0
DA:1623,3
DA:1625,0
DA:1626,0
DA:1629,3
DA:1631,3
DA:1633,3
DA:1634,0
DA:1635,3
DA:1636,0
DA:1641,3
DA:1645,3
DA:1647,0
DA:1649,0
DA:1651,0
DA:1652,0
DA:1654,0
DA:1655,0
DA:1656,0
DA:1659,0
DA:1662,0
DA:1664,0
DA:1669,0
DA:1674,0
DA:1675,0
DA:1676,0
DA:1677,0
DA:1678,0
DA:1681,0
DA:1686,0
DA:1689,0
DA:1691,0
DA:1695,0
DA:1696,0
DA:1697,0
DA:1698,0
DA:1699,0
DA:1700,0
DA:1701,0
DA:1705,0
DA:1706,0
DA:1708,0
DA:1709,0
DA:1710,0
DA:1711,0
DA:1712,0
DA:1713,0
DA:1717,0
DA:1718,0
DA:1719,0
DA:1721,0
DA:1726,3
DA:1729,3
DA:1738,3
DA:1740,0
DA:1741,0
DA:1742,0
DA:1745,3
DA:1747,3
DA:1748,3
DA:1750,0
DA:1751,0
DA:1753,0
DA:1754,0
DA:1755,0
DA:1757,0
DA:1758,0
DA:1760,0
DA:1762,0
DA:1764,0
DA:1765,0
DA:1771,0
DA:1773,3
DA:1777,0
DA:1780,0
DA:1782,0
DA:1785,0
DA:1786,0
DA:1787,0
DA:1792,0
DA:1793,0
DA:1817,0
DA:1820,0
DA:1821,0
DA:1822,0
DA:1823,0
DA:1824,0
DA:1825,0
DA:1826,0
DA:1828,0
DA:1829,0
DA:1831,0
DA:1833,0
DA:1834,0
DA:1835,0
DA:1837,0
DA:1838,0
DA:1840,0
DA:1842,0
DA:1843,0
DA:1844,0
DA:1859,0
DA:1861,0
DA:1866,0
DA:1868,0
DA:1869,0
DA:1870,0
DA:1871,0
DA:1874,0
DA:1877,0
DA:1964,0
DA:1965,0
DA:1970,0
DA:1972,0
DA:2063,0
DA:2064,0
DA:2068,0
DA:2070,0
DA:2140,0
DA:2142,0
DA:2147,0
DA:2148,0
DA:2163,3
DA:2164,3
DA:2168,3
DA:2169,3
DA:2318,0
DA:2320,0
DA:2321,0
DA:2322,0
DA:2324,0
DA:2325,0
DA:2328,0
DA:2329,0
DA:2331,0
DA:2332,0
DA:2337,0
DA:2340,0
DA:2341,0
DA:2358,0
DA:2360,0
DA:2362,0
DA:2363,0
DA:2375,0
DA:2376,0
DA:2378,0
DA:2383,0
DA:2385,0
DA:2387,0
DA:2389,0
DA:2390,0
DA:2391,0
DA:2407,0
DA:2435,0
DA:2436,0
DA:2604,3
DA:2608,0
DA:2610,0
DA:2611,0
DA:2616,3
DA:2618,3
DA:2635,0
DA:2636,0
DA:2660,6
DA:2661,6
DA:2667,6
DA:2668,6
DA:2673,3
DA:2674,0
DA:2679,3
DA:2680,3
DA:2684,0
DA:2686,0
DA:2687,0
DA:2692,0
DA:2694,0
DA:2695,0
DA:2696,0
DA:2697,0
DA:2700,3
DA:2702,3
DA:2703,3
DA:2705,0
DA:2706,0
DA:2707,0
DA:2708,0
DA:2709,0
DA:2711,3
DA:2713,3
DA:2714,3
DA:2716,3
DA:2725,0
DA:2727,0
DA:2736,0
DA:2738,0
DA:2739,0
DA:2741,0
DA:2743,0
DA:2744,0
DA:2745,0
DA:2747,0
DA:2753,0
DA:2754,0
DA:2762,3
DA:2763,3
DA:2775,6
DA:2776,6
DA:2785,3
DA:2793,3
DA:2795,3
DA:2796,3
DA:2797,0
DA:2803,3
DA:2808,3
DA:2812,0
DA:2825,0
DA:2826,0
DA:2829,0
DA:2831,0
DA:2840,0
DA:2841,0
DA:2848,0
DA:2853,0
DA:2856,0
DA:2858,0
DA:2860,0
DA:2867,3
DA:2868,3
DA:2877,3
DA:2879,3
DA:2880,3
DA:2881,3
DA:2920,0
DA:2922,0
DA:2923,0
DA:2924,0
DA:2925,0
DA:2927,0
DA:2928,0
DA:2929,0
DA:2930,0
DA:2932,0
DA:2933,0
DA:2935,0
DA:2936,0
DA:2937,0
DA:2942,3
DA:2943,3
DA:3132,6
DA:3211,3
DA:3270,0
DA:3274,0
DA:3275,0
DA:3280,3
DA:3471,3
DA:3473,3
DA:3474,3
DA:3480,3
DA:3481,3
DA:3489,3
DA:3502,3
DA:3505,3
DA:3507,0
DA:3508,0
DA:3509,0
DA:3510,0
DA:3511,0
DA:3512,0
DA:3513,0
DA:3514,0
DA:3515,0
DA:3516,0
DA:3517,0
DA:3518,0
DA:3519,0
DA:3520,0
DA:3522,0
DA:3523,0
DA:3524,3
DA:3525,3
DA:3527,0
DA:3528,0
DA:3536,0
DA:3537,0
DA:3538,0
DA:3539,0
DA:3540,0
DA:3541,0
DA:3542,0
DA:3544,0
DA:3545,0
DA:3548,0
DA:3549,0
DA:3550,0
DA:3551,0
DA:3555,0
DA:3556,0
DA:3559,0
DA:3561,0
DA:3568,3
DA:3570,3
DA:3580,0
DA:3583,0
DA:3592,0
DA:3594,0
DA:3595,0
DA:3597,0
DA:3604,0
DA:3605,0
DA:3656,3
DA:3658,3
DA:3659,3
DA:3678,3
DA:3680,3
DA:3681,3
DA:3683,3
DA:3684,3
DA:3686,0
DA:3687,0
DA:3729,3
DA:3744,3
DA:3754,3
DA:3755,3
DA:3766,3
DA:3778,3
DA:3781,3
DA:3783,3
DA:3800,3
DA:3805,3
DA:3845,3
DA:3847,3
DA:3850,0
DA:3852,0
DA:3868,0
DA:3877,3
DA:3878,3
DA:3881,0
DA:3884,3
DA:3886,6
DA:3906,3
DA:3907,3
DA:3910,27
DA:3911,12
DA:3914,3
DA:3916,3
DA:3918,3
DA:3920,0
DA:3921,0
DA:3922,0
DA:3925,3
DA:3926,3
DA:3928,6
DA:3930,3
DA:3931,3
DA:3933,0
DA:3934,0
DA:3935,0
DA:3937,3
DA:3939,3
DA:3940,3
DA:3941,0
DA:3942,3
DA:3943,3
DA:3944,3
DA:3945,3
DA:3946,3
DA:3947,3
DA:3949,0
DA:3950,0
DA:3951,0
DA:3955,3
DA:3956,3
DA:3957,3
DA:3958,3
DA:3963,0
DA:3964,0
DA:3965,0
DA:3966,0
DA:3967,0
DA:3968,0
DA:3969,0
DA:3970,0
DA:3971,0
DA:3977,9
DA:3978,9
DA:3980,0
DA:3982,3
DA:3984,3
DA:3987,3
DA:3988,0
DA:3989,3
DA:3991,3
DA:3992,3
DA:3996,0
DA:3997,0
DA:3998,0
DA:3999,0
DA:4000,0
DA:4002,0
DA:4005,0
DA:4007,3
DA:4008,3
DA:4009,0
DA:4010,3
DA:4011,3
DA:4021,3
DA:4023,3
DA:4032,3
DA:4034,3
DA:4035,3
DA:4036,3
DA:4039,3
DA:4044,6
DA:4048,0
DA:4050,0
DA:4053,3
DA:4054,3
DA:4055,3
DA:4059,3
DA:4060,3
DA:4079,0
DA:4083,0
DA:4085,0
DA:4086,0
DA:4089,0
DA:4094,0
DA:4096,0
DA:4098,0
DA:4099,0
DA:4104,0
DA:4105,0
DA:4110,3
DA:4114,3
DA:4118,3
DA:4124,3
DA:4126,0
DA:4127,0
DA:4131,0
DA:4132,0
DA:4133,0
DA:4135,0
DA:4136,0
DA:4137,0
DA:4142,0
DA:4144,0
DA:4145,0
DA:4146,0
DA:4152,0
DA:4153,0
DA:4154,0
DA:4156,0
DA:4157,0
DA:4158,0
DA:4160,0
DA:4161,0
DA:4162,0
DA:4164,0
DA:4165,0
DA:4170,0
DA:4171,0
DA:4173,0
DA:4174,0
DA:4175,0
DA:4180,0
DA:4183,0
DA:4189,3
DA:4190,3
DA:4192,3
DA:4193,3
DA:4196,3
DA:4199,3
DA:4222,3
DA:4223,3
DA:4255,3
DA:4257,3
DA:4258,3
DA:4259,3
DA:4260,3
DA:4296,3
DA:4297,3
LF:1026
LH:286
end_of_record
TN:
SF:/usr/include/c++/14/istream
FNF:0
FNH:0
DA:197,65
DA:198,61
LF:2
LH:2
end_of_record
TN:
SF:/usr/include/c++/14/ostream
FNF:0
FNH:0
DA:116,1
DA:121,1
DA:178,1
DA:179,1
DA:209,23
DA:210,23
DA:213,2
DA:214,2
LF:8
LH:8
end_of_record
TN:
SF:/usr/include/c++/14/span
FNF:0
FNH:0
DA:88,15
DA:93,3
DA:94,3
DA:157,9
DA:159,3
DA:187,6
DA:188,6
DA:213,0
DA:216,0
DA:251,3
DA:252,9
DA:262,3
DA:311,18
DA:312,18
DA:316,0
DA:317,0
DA:368,6
DA:370,6
DA:371,6
DA:430,3
DA:433,3
DA:435,3
DA:439,3
DA:441,3
LF:24
LH:20
end_of_record
TN:
SF:/usr/include/c++/14/sstream
FNF:0
FNH:0
DA:930,16
DA:931,16
LF:2
LH:2
end_of_record
TN:
SF:/usr/include/c++/14/streambuf
FNF:0
FNH:0
LF:0
LH:0
end_of_record
TN:
SF:/usr/include/c++/14/string_view
FNL:0,321,330
FNA:0,3,_ZNKSt17basic_string_viewIcSt11char_traitsIcEE4copyEPcmm
FNL:1,334,339
FNA:1,0,_ZNKSt17basic_string_viewIcSt11char_traitsIcEE6substrEmm
FNF:2
FNH:1
DA:70,3
DA:72,3
DA:73,0
DA:75,3
DA:132,0
DA:140,0
DA:141,0
DA:142,0
DA:146,0
DA:147,3
DA:155,12
DA:157,12
DA:187,3
DA:188,0
DA:192,3
DA:193,3
DA:229,9
DA:230,9
DA:247,0
DA:248,0
DA:254,3
DA:256,0
DA:257,3
DA:289,0
DA:290,0
DA:295,0
DA:297,0
DA:298,0
DA:299,0
DA:300,0
DA:303,0
DA:305,0
DA:306,0
DA:321,3
DA:324,3
DA:325,3
DA:328,3
DA:329,3
DA:334,0
DA:336,0
DA:337,0
DA:338,0
LF:42
LH:18
end_of_record
TN:
SF:/usr/include/c++/14/tuple
FNF:0
FNH:0
DA:201,127
DA:202,8
DA:242,8
DA:556,127
DA:566,127
DA:567,127
DA:586,127
DA:588,8
DA:971,127
DA:974,127
DA:995,127
DA:2427,8
DA:2428,127
DA:2443,127
DA:2444,127
DA:2872,127
DA:2877,127
DA:2884,127
DA:2887,127
DA:2888,127
LF:20
LH:20
end_of_record
