TN:
SF:/home/monika/Documents/problems/16654번： Generalized German Quotation/main.cpp
FNL:0,11,14
FNA:0,3,_Z9isClosingRKNSt7__cxx1112basic_stringIcSt11char_traitsIcESaIcEEEi
FNL:1,16,78
FNA:1,1,main
FNL:2,6,9
FNA:2,9,_Z9isOpeningRKNSt7__cxx1112basic_stringIcSt11char_traitsIcESaIcEEEi
FNF:3
FNH:3
DA:6,9
DA:8,9
DA:11,3
DA:13,3
DA:16,1
DA:18,1
DA:19,1
DA:21,1
DA:22,1
DA:24,7
DA:26,6
DA:28,3
DA:30,3
DA:32,3
DA:34,3
DA:35,3
DA:36,3
DA:40,0
DA:45,0
DA:46,0
DA:50,1
DA:51,1
DA:53,0
DA:54,0
DA:55,0
DA:57,0
DA:58,0
DA:59,0
DA:63,0
DA:67,1
DA:69,0
DA:70,0
DA:73,13
DA:74,12
DA:75,6
DA:77,1
DA:78,1
LF:37
LH:25
end_of_record
TN:
SF:/usr/include/c++/14/bits/alloc_traits.h
FNF:0
FNH:0
DA:515,5
DA:550,5
DA:577,3
DA:581,3
DA:599,3
DA:601,3
DA:993,1
DA:994,1
LF:8
LH:8
end_of_record
TN:
SF:/usr/include/c++/14/bits/allocator.h
FNF:0
FNH:0
DA:161,4
DA:166,3
DA:176,4
DA:182,7
DA:189,5
DA:191,0
DA:192,0
DA:193,0
DA:196,5
DA:203,5
DA:205,0
DA:206,0
DA:208,5
LF:13
LH:8
end_of_record
TN:
SF:/usr/include/c++/14/bits/basic_string.h
FNL:0,1076,1077
FNA:0,8,_ZNKSt7__cxx1112basic_stringIcSt11char_traitsIcESaIcEE4sizeEv
FNL:1,1247,1251
FNA:1,21,_ZNKSt7__cxx1112basic_stringIcSt11char_traitsIcESaIcEEixEm
FNL:2,197,198
FNA:2,1,_ZNSt7__cxx1112basic_stringIcSt11char_traitsIcESaIcEE12_Alloc_hiderC2EPcOS3_
FNL:3,222,223
FNA:3,1,_ZNSt7__cxx1112basic_stringIcSt11char_traitsIcESaIcEE9_M_lengthEm
FNL:4,227,228
FNA:4,23,_ZNKSt7__cxx1112basic_stringIcSt11char_traitsIcESaIcEE7_M_dataEv
FNL:5,232,239
FNA:5,1,_ZNSt7__cxx1112basic_stringIcSt11char_traitsIcESaIcEE13_M_local_dataEv
FNL:6,243,250
FNA:6,1,_ZNKSt7__cxx1112basic_stringIcSt11char_traitsIcESaIcEE13_M_local_dataEv
FNL:7,259,263
FNA:7,1,_ZNSt7__cxx1112basic_stringIcSt11char_traitsIcESaIcEE13_M_set_lengthEm
FNL:8,267,276
FNA:8,1,_ZNKSt7__cxx1112basic_stringIcSt11char_traitsIcESaIcEE11_M_is_localEv
FNL:9,285,289
FNA:9,1,_ZNSt7__cxx1112basic_stringIcSt11char_traitsIcESaIcEE10_M_disposeEv
FNL:10,293,294
FNA:10,0,_ZNSt7__cxx1112basic_stringIcSt11char_traitsIcESaIcEE10_M_destroyEm
FNL:11,341,342
FNA:11,0,_ZNSt7__cxx1112basic_stringIcSt11char_traitsIcESaIcEE16_M_get_allocatorEv
FNL:12,527,533
FNA:12,1,_ZNSt7__cxx1112basic_stringIcSt11char_traitsIcESaIcEEC2Ev
FNL:13,808,809
FNA:13,1,_ZNSt7__cxx1112basic_stringIcSt11char_traitsIcESaIcEED2Ev
FNF:14
FNH:12
DA:197,1
DA:198,1
DA:222,1
DA:223,1
DA:227,23
DA:228,23
DA:232,1
DA:235,1
DA:243,1
DA:246,1
DA:259,1
DA:261,1
DA:262,1
DA:263,1
DA:267,1
DA:269,1
DA:271,1
DA:272,0
DA:273,1
DA:275,0
DA:285,1
DA:287,1
DA:288,0
DA:289,1
DA:293,0
DA:294,0
DA:341,0
DA:342,0
DA:356,1
DA:357,0
DA:358,0
DA:360,1
DA:527,1
DA:529,3
DA:532,1
DA:533,1
DA:808,1
DA:809,1
DA:1076,8
DA:1077,8
DA:1247,21
DA:1249,21
DA:1250,21
LF:43
LH:34
end_of_record
TN:
SF:/usr/include/c++/14/bits/char_traits.h
FNL:0,343,351
FNA:0,1,_ZNSt11char_traitsIcE6assignERcRKc
FNF:1
FNH:1
DA:343,1
DA:346,1
DA:347,0
DA:350,1
DA:351,1
LF:5
LH:4
end_of_record
TN:
SF:/usr/include/c++/14/bits/cpp_type_traits.h
FNL:0,608,609
FNA:0,0,_ZSt12__miter_baseIPPiET_S2_
FNF:1
FNH:0
DA:608,0
DA:609,0
LF:2
LH:0
end_of_record
TN:
SF:/usr/include/c++/14/bits/deque.tcc
FNL:0,164,180
FNA:0,3,_ZNSt5dequeIiSaIiEE12emplace_backIJiEEERiDpOT_
FNL:1,484,516
FNA:1,0,_ZNSt5dequeIiSaIiEE16_M_push_back_auxIJRKiEEEvDpOT_
FNA:1,0,_ZNSt5dequeIiSaIiEE16_M_push_back_auxIJiEEEvDpOT_
FNL:2,560,568
FNA:2,0,_ZNSt5dequeIiSaIiEE15_M_pop_back_auxEv
FNL:3,934,976
FNA:3,0,_ZNSt5dequeIiSaIiEE17_M_reallocate_mapEmb
FNF:4
FNH:1
DA:164,3
DA:167,3
DA:168,3
DA:170,3
DA:173,3
DA:176,0
DA:178,3
DA:484,0
DA:492,0
DA:493,0
DA:496,0
DA:497,0
DA:501,0
DA:507,0
DA:509,0
DA:516,0
DA:560,0
DA:563,0
DA:564,0
DA:565,0
DA:566,0
DA:568,0
DA:934,0
DA:937,0
DA:938,0
DA:939,0
DA:942,0
DA:944,0
DA:945,0
DA:946,0
DA:947,0
DA:948,0
DA:949,0
DA:952,0
DA:953,0
DA:954,0
DA:958,0
DA:959,0
DA:962,0
DA:963,0
DA:964,0
DA:965,0
DA:966,0
DA:968,0
DA:970,0
DA:971,0
DA:974,0
DA:975,0
DA:976,0
LF:49
LH:6
end_of_record
TN:
SF:/usr/include/c++/14/bits/move.h
FNL:0,137,138
FNA:0,1,_ZSt4moveIRSaIcEEONSt16remove_referenceIT_E4typeEOS3_
FNA:0,6,_ZSt4moveIRiEONSt16remove_referenceIT_E4typeEOS2_
FNL:1,175,176
FNA:1,1,_ZSt9addressofIKcEPT_RS1_
FNA:1,1,_ZSt9addressofIcEPT_RS0_
FNL:2,51,52
FNA:2,1,_ZSt11__addressofIKcEPT_RS1_
FNA:2,1,_ZSt11__addressofIcEPT_RS0_
FNL:3,71,72
FNA:3,0,_ZSt7forwardIRKcEOT_RNSt16remove_referenceIS2_E4typeE
FNA:3,0,_ZSt7forwardIRKiEOT_RNSt16remove_referenceIS2_E4typeE
FNA:3,9,_ZSt7forwardIiEOT_RNSt16remove_referenceIS0_E4typeE
FNF:4
FNH:4
DA:51,2
DA:52,2
DA:71,9
DA:72,9
DA:137,7
DA:138,7
DA:175,2
DA:176,2
LF:8
LH:8
end_of_record
TN:
SF:/usr/include/c++/14/bits/new_allocator.h
FNL:0,126,152
FNA:0,2,_ZNSt15__new_allocatorIPiE8allocateEmPKv
FNA:0,1,_ZNSt15__new_allocatorIcE8allocateEmPKv
FNA:0,2,_ZNSt15__new_allocatorIiE8allocateEmPKv
FNL:1,156,173
FNA:1,2,_ZNSt15__new_allocatorIPiE10deallocateEPS0_m
FNA:1,1,_ZNSt15__new_allocatorIcE10deallocateEPcm
FNA:1,2,_ZNSt15__new_allocatorIiE10deallocateEPim
FNF:2
FNH:2
DA:88,8
DA:92,3
DA:126,5
DA:134,5
DA:138,0
DA:139,0
DA:140,0
DA:151,5
DA:156,5
DA:172,5
DA:233,5
LF:11
LH:8
end_of_record
TN:
SF:/usr/include/c++/14/bits/ptr_traits.h
FNL:0,134,135
FNA:0,1,_ZNSt19__ptr_traits_ptr_toIPKcS0_Lb0EE10pointer_toERS0_
FNA:0,1,_ZNSt19__ptr_traits_ptr_toIPccLb0EE10pointer_toERc
FNF:1
FNH:1
DA:134,2
DA:135,2
LF:2
LH:2
end_of_record
TN:
SF:/usr/include/c++/14/bits/stl_algobase.h
FNL:0,1040,1040
FNA:0,1,_ZSt17__size_to_integerm
FNL:1,1140,1153
FNA:1,1,_ZSt10__fill_n_aIPcmcET_S1_T0_RKT1_St26random_access_iterator_tag
FNL:2,1175,1182
FNA:2,1,_ZSt6fill_nIPcmcET_S1_T0_RKT1_
FNL:3,233,241
FNA:3,1,_ZSt3minImERKT_S2_S2_
FNL:4,257,265
FNA:4,2,_ZSt3maxImERKT_S2_S2_
FNL:5,316,318
FNA:5,0,_ZSt12__niter_baseIPPiET_S2_
FNL:6,353,354
FNA:6,0,_ZSt12__niter_wrapIPPiET_RKS2_S2_
FNL:7,398,408
FNA:7,0,_ZNSt11__copy_moveILb0ELb0ESt26random_access_iterator_tagE8__copy_mIPPiS4_EET0_T_S6_S5_
FNL:8,412,413
FNA:8,0,_ZNSt11__copy_moveILb0ELb0ESt26random_access_iterator_tagE12__assign_oneIPiS3_EEvPT_PT0_
FNL:9,448,457
FNA:9,0,_ZNSt11__copy_moveILb0ELb1ESt26random_access_iterator_tagE8__copy_mIPiS3_EEPT0_PT_S7_S5_
FNL:10,512,522
FNA:10,0,_ZSt14__copy_move_a2ILb0EPPiS1_ET1_T0_S3_S2_
FNL:11,547,548
FNA:11,0,_ZSt14__copy_move_a1ILb0EPPiS1_ET1_T0_S3_S2_
FNL:12,553,559
FNA:12,0,_ZSt13__copy_move_aILb0EPPiS1_ET1_T0_S3_S2_
FNL:13,642,652
FNA:13,0,_ZSt4copyIPPiS1_ET0_T_S3_S2_
FNL:14,728,735
FNA:14,0,_ZNSt20__copy_move_backwardILb0ELb0ESt26random_access_iterator_tagE13__copy_move_bIPPiS4_EET0_T_S6_S5_
FNL:15,762,771
FNA:15,0,_ZNSt20__copy_move_backwardILb0ELb1ESt26random_access_iterator_tagE13__copy_move_bIPiS3_EEPT0_PT_S7_S5_
FNL:16,777,790
FNA:16,0,_ZSt23__copy_move_backward_a2ILb0EPPiS1_ET1_T0_S3_S2_
FNL:17,795,796
FNA:17,0,_ZSt23__copy_move_backward_a1ILb0EPPiS1_ET1_T0_S3_S2_
FNL:18,823,829
FNA:18,0,_ZSt22__copy_move_backward_aILb0EPPiS1_ET1_T0_S3_S2_
FNL:19,878,889
FNA:19,0,_ZSt13copy_backwardIPPiS1_ET0_T_S3_S2_
FNL:20,960,973
FNA:20,1,_ZSt9__fill_a1IcEN9__gnu_cxx11__enable_ifIXsrSt9__is_byteIT_E7__valueEvE6__typeEPS3_S7_RKS3_
FNL:21,997,998
FNA:21,1,_ZSt8__fill_aIPccEvT_S1_RKT0_
FNF:22
FNH:7
DA:233,1
DA:238,1
DA:239,0
DA:240,1
DA:257,2
DA:262,2
DA:263,0
DA:264,2
DA:316,0
DA:318,0
DA:353,0
DA:354,0
DA:398,0
DA:401,0
DA:403,0
DA:404,0
DA:405,0
DA:407,0
DA:412,0
DA:413,0
DA:448,0
DA:450,0
DA:451,0
DA:452,0
DA:453,0
DA:455,0
DA:456,0
DA:512,0
DA:516,0
DA:518,0
DA:521,0
DA:547,0
DA:548,0
DA:553,0
DA:555,0
DA:558,0
DA:642,0
DA:651,0
DA:728,0
DA:731,0
DA:732,0
DA:733,0
DA:734,0
DA:762,0
DA:764,0
DA:765,0
DA:766,0
DA:767,0
DA:769,0
DA:770,0
DA:777,0
DA:781,0
DA:783,0
DA:787,0
DA:789,0
DA:795,0
DA:796,0
DA:823,0
DA:825,0
DA:828,0
DA:878,0
DA:888,0
DA:960,1
DA:962,1
DA:964,1
DA:966,0
DA:967,0
DA:968,0
DA:971,1
DA:972,1
DA:997,1
DA:998,1
DA:1040,1
DA:1140,1
DA:1146,1
DA:1147,0
DA:1151,1
DA:1152,1
DA:1175,1
DA:1180,1
DA:1181,2
LF:81
LH:21
end_of_record
TN:
SF:/usr/include/c++/14/bits/stl_construct.h
FNL:0,109,120
FNA:0,0,_ZSt10_ConstructIcJRKcEEvPT_DpOT0_
FNL:1,146,153
FNA:1,0,_ZSt8_DestroyIcEvPT_
FNL:2,160,164
FNA:2,0,_ZNSt12_Destroy_auxILb0EE9__destroyIPcEEvT_S3_
FNL:3,172,172
FNA:3,1,_ZNSt12_Destroy_auxILb1EE9__destroyIPcEEvT_S3_
FNL:4,182,197
FNA:4,1,_ZSt8_DestroyIPcEvT_S1_
FNL:5,80,89
FNA:5,0,_ZSt10destroy_atIcEvPT_
FNA:5,3,_ZSt10destroy_atIiEvPT_
FNL:6,94,97
FNA:6,0,_ZSt12construct_atIcJRKcEEDTgsnwcvPvLi0E_T_pispcl7declvalIT0_EEEEPS3_DpOS4_
FNA:6,0,_ZSt12construct_atIiJRKiEEDTgsnwcvPvLi0E_T_pispcl7declvalIT0_EEEEPS3_DpOS4_
FNA:6,3,_ZSt12construct_atIiJiEEDTgsnwcvPvLi0E_T_pispcl7declvalIT0_EEEEPS1_DpOS2_
FNF:7
FNH:4
DA:80,3
DA:88,3
DA:89,3
DA:94,3
DA:97,3
DA:109,0
DA:112,0
DA:115,0
DA:116,0
DA:119,0
DA:146,0
DA:149,0
DA:153,0
DA:160,0
DA:162,0
DA:163,0
DA:164,0
DA:172,1
DA:182,1
DA:192,1
DA:193,0
DA:196,1
LF:22
LH:9
end_of_record
TN:
SF:/usr/include/c++/14/bits/stl_deque.h
FNL:0,1027,1028
FNA:0,2,_ZNSt5dequeIiSaIiEED2Ev
FNL:1,1151,1152
FNA:1,2,_ZNSt5dequeIiSaIiEE5beginEv
FNL:2,1170,1171
FNA:2,11,_ZNSt5dequeIiSaIiEE3endEv
FNL:3,1268,1269
FNA:3,0,_ZNKSt5dequeIiSaIiEE4sizeEv
FNL:4,1274,1275
FNA:4,0,_ZNKSt5dequeIiSaIiEE8max_sizeEv
FNL:5,131,132
FNA:5,4,_ZNSt15_Deque_iteratorIiRiPiE14_S_buffer_sizeEv
FNL:6,1347,1348
FNA:6,5,_ZNKSt5dequeIiSaIiEE5emptyEv
FNL:7,1468,1474
FNA:7,9,_ZNSt5dequeIiSaIiEE4backEv
FNL:8,151,152
FNA:8,4,_ZNSt15_Deque_iteratorIiRiPiEC2Ev
FNL:9,1538,1549
FNA:9,0,_ZNSt5dequeIiSaIiEE9push_backERKi
FNL:10,1553,1554
FNA:10,3,_ZNSt5dequeIiSaIiEE9push_backEOi
FNL:11,1597,1609
FNA:11,3,_ZNSt5dequeIiSaIiEE8pop_backEv
FNL:12,168,170
FNA:12,13,_ZNSt15_Deque_iteratorIiRiPiEC2ERKS2_
FNL:13,181,182
FNA:13,9,_ZNKSt15_Deque_iteratorIiRiPiEdeEv
FNL:14,1876,1881
FNA:14,0,_ZNSt5dequeIiSaIiEE11_S_max_sizeERKS0_
FNL:15,2087,2092
FNA:15,2,_ZNSt5dequeIiSaIiEE15_M_destroy_dataESt15_Deque_iteratorIiRiPiES5_RKS0_
FNL:16,210,219
FNA:16,9,_ZNSt15_Deque_iteratorIiRiPiEmmEv
FNL:17,2168,2173
FNA:17,0,_ZNSt5dequeIiSaIiEE22_M_reserve_map_at_backEm
FNL:18,263,268
FNA:18,4,_ZNSt15_Deque_iteratorIiRiPiE11_M_set_nodeEPS1_
FNL:19,272,273
FNA:19,5,_ZSteqRKSt15_Deque_iteratorIiRiPiES4_
FNL:20,370,376
FNA:20,0,_ZStmiRKSt15_Deque_iteratorIiRiPiES4_
FNL:21,458,460
FNA:21,2,_ZNSt11_Deque_baseIiSaIiEEC2Ev
FNL:22,516,518
FNA:22,2,_ZNSt11_Deque_baseIiSaIiEE16_Deque_impl_dataC2Ev
FNL:23,545,548
FNA:23,2,_ZNSt11_Deque_baseIiSaIiEE11_Deque_implC2Ev
FNL:24,568,569
FNA:24,5,_ZNSt11_Deque_baseIiSaIiEE19_M_get_Tp_allocatorEv
FNL:25,572,573
FNA:25,4,_ZNKSt11_Deque_baseIiSaIiEE19_M_get_Tp_allocatorEv
FNL:26,576,577
FNA:26,4,_ZNKSt11_Deque_baseIiSaIiEE20_M_get_map_allocatorEv
FNL:27,580,584
FNA:27,2,_ZNSt11_Deque_baseIiSaIiEE16_M_allocate_nodeEv
FNL:28,587,591
FNA:28,2,_ZNSt11_Deque_baseIiSaIiEE18_M_deallocate_nodeEPi
FNL:29,594,598
FNA:29,2,_ZNSt11_Deque_baseIiSaIiEE15_M_allocate_mapEm
FNL:30,601,605
FNA:30,2,_ZNSt11_Deque_baseIiSaIiEE17_M_deallocate_mapEPPim
FNL:31,617,626
FNA:31,2,_ZNSt11_Deque_baseIiSaIiEED2Ev
FNL:32,638,673
FNA:32,2,_ZNSt11_Deque_baseIiSaIiEE17_M_initialize_mapEm
FNL:33,677,691
FNA:33,2,_ZNSt11_Deque_baseIiSaIiEE15_M_create_nodesEPPiS3_
FNL:34,695,701
FNA:34,2,_ZNSt11_Deque_baseIiSaIiEE16_M_destroy_nodesEPPiS3_
FNL:35,855,855
FNA:35,2,_ZNSt5dequeIiSaIiEEC2Ev
FNL:36,96,98
FNA:36,12,_ZSt16__deque_buf_sizem
FNF:37
FNH:31
DA:96,12
DA:98,12
DA:131,4
DA:132,4
DA:151,4
DA:152,4
DA:168,13
DA:169,13
DA:170,13
DA:181,9
DA:182,9
DA:210,9
DA:212,9
DA:214,0
DA:215,0
DA:217,9
DA:218,9
DA:263,4
DA:265,4
DA:266,4
DA:267,4
DA:268,4
DA:272,5
DA:273,5
DA:370,0
DA:372,0
DA:373,0
DA:374,0
DA:375,0
DA:458,2
DA:459,2
DA:460,2
DA:516,2
DA:517,2
DA:518,2
DA:545,2
DA:547,2
DA:548,2
DA:568,5
DA:569,5
DA:572,4
DA:573,4
DA:576,4
DA:577,8
DA:580,2
DA:583,4
DA:587,2
DA:590,2
DA:591,2
DA:594,2
DA:596,2
DA:597,4
DA:601,2
DA:603,2
DA:605,2
DA:617,2
DA:620,2
DA:622,2
DA:623,2
DA:624,2
DA:626,2
DA:638,2
DA:641,2
DA:644,4
DA:645,2
DA:646,2
DA:653,2
DA:654,2
DA:655,2
DA:658,2
DA:659,0
DA:661,0
DA:662,0
DA:663,0
DA:664,0
DA:667,2
DA:668,2
DA:669,2
DA:670,4
DA:671,2
DA:672,2
DA:673,2
DA:677,2
DA:683,4
DA:684,2
DA:686,0
DA:688,0
DA:689,0
DA:691,2
DA:695,2
DA:699,4
DA:700,2
DA:701,2
DA:855,2
DA:1027,2
DA:1028,2
DA:1151,2
DA:1152,2
DA:1170,11
DA:1171,11
DA:1268,0
DA:1269,0
DA:1274,0
DA:1275,0
DA:1347,5
DA:1348,5
DA:1468,9
DA:1471,9
DA:1472,9
DA:1473,9
DA:1538,0
DA:1540,0
DA:1541,0
DA:1543,0
DA:1545,0
DA:1548,0
DA:1549,0
DA:1553,3
DA:1554,3
DA:1597,3
DA:1600,3
DA:1601,3
DA:1603,3
DA:1604,3
DA:1608,0
DA:1609,3
DA:1876,0
DA:1878,0
DA:1879,0
DA:1880,0
DA:2087,2
DA:2092,2
DA:2168,0
DA:2170,0
DA:2171,0
DA:2172,0
DA:2173,0
LF:137
LH:101
end_of_record
TN:
SF:/usr/include/c++/14/bits/stl_iterator.h
FNL:0,1067,1068
FNA:0,2,_ZN9__gnu_cxx17__normal_iteratorIPcSt6vectorIcSaIcEEEC2ERKS1_
FNL:1,1090,1091
FNA:1,12,_ZNK9__gnu_cxx17__normal_iteratorIPcSt6vectorIcSaIcEEEdeEv
FNL:2,1100,1104
FNA:2,12,_ZN9__gnu_cxx17__normal_iteratorIPcSt6vectorIcSaIcEEEppEv
FNL:3,1153,1154
FNA:3,26,_ZNK9__gnu_cxx17__normal_iteratorIPcSt6vectorIcSaIcEEE4baseEv
FNL:4,1188,1194
FNA:4,13,_ZN9__gnu_cxxeqIPcSt6vectorIcSaIcEEEEbRKNS_17__normal_iteratorIT_T0_EESA_QrqXeqcldtfL0p_4baseEcldtfL0p0_4baseERSt14convertible_toIbEE
FNF:5
FNH:5
DA:1067,2
DA:1068,2
DA:1090,12
DA:1091,12
DA:1100,12
DA:1102,12
DA:1103,12
DA:1153,26
DA:1154,26
DA:1188,13
DA:1194,13
LF:11
LH:11
end_of_record
TN:
SF:/usr/include/c++/14/bits/stl_iterator_base_types.h
FNF:0
FNH:0
DA:240,1
LF:1
LH:1
end_of_record
TN:
SF:/usr/include/c++/14/bits/stl_stack.h
FNL:0,162,163
FNA:0,2,_ZNSt5stackIiSt5dequeIiSaIiEEEC2IS2_vEEv
FNL:1,215,216
FNA:1,5,_ZNKSt5stackIiSt5dequeIiSaIiEEE5emptyEv
FNL:2,230,234
FNA:2,6,_ZNSt5stackIiSt5dequeIiSaIiEEE3topEv
FNL:3,258,259
FNA:3,0,_ZNSt5stackIiSt5dequeIiSaIiEEE4pushERKi
FNL:4,263,264
FNA:4,3,_ZNSt5stackIiSt5dequeIiSaIiEEE4pushEOi
FNL:5,291,295
FNA:5,3,_ZNSt5stackIiSt5dequeIiSaIiEEE3popEv
FNF:6
FNH:5
DA:162,2
DA:163,2
DA:215,5
DA:216,5
DA:230,6
DA:233,6
DA:258,0
DA:259,0
DA:263,3
DA:264,3
DA:291,3
DA:294,3
DA:295,3
LF:13
LH:11
end_of_record
TN:
SF:/usr/include/c++/14/bits/stl_uninitialized.h
FNL:0,261,275
FNA:0,0,_ZSt18__do_uninit_fill_nIPcmcET_S1_T0_RKT1_
FNL:1,292,294
FNA:1,1,_ZNSt22__uninitialized_fill_nILb1EE15__uninit_fill_nIPcmcEET_S3_T0_RKT1_
FNL:2,312,328
FNA:2,1,_ZSt20uninitialized_fill_nIPcmcET_S1_T0_RKT1_
FNL:3,465,473
FNA:3,1,_ZSt24__uninitialized_fill_n_aIPcmccET_S1_T0_RKT1_RSaIT2_E
FNF:4
FNH:3
DA:261,0
DA:263,0
DA:266,0
DA:267,0
DA:268,0
DA:292,1
DA:294,1
DA:312,1
DA:319,1
DA:327,1
DA:465,1
DA:469,1
DA:470,0
DA:472,1
LF:14
LH:8
end_of_record
TN:
SF:/usr/include/c++/14/bits/stl_vector.h
FNL:0,1128,1132
FNA:0,6,_ZNSt6vectorIcSaIcEEixEm
FNL:1,145,147
FNA:1,1,_ZNSt12_Vector_baseIcSaIcEE12_Vector_implC2ERKS0_
FNL:2,1706,1711
FNA:2,1,_ZNSt6vectorIcSaIcEE18_M_fill_initializeEmRKc
FNL:3,1917,1923
FNA:3,1,_ZNSt6vectorIcSaIcEE17_S_check_init_lenEmRKS0_
FNL:4,1926,1935
FNA:4,1,_ZNSt6vectorIcSaIcEE11_S_max_sizeERKS0_
FNL:5,300,301
FNA:5,2,_ZNSt12_Vector_baseIcSaIcEE19_M_get_Tp_allocatorEv
FNL:6,332,334
FNA:6,1,_ZNSt12_Vector_baseIcSaIcEEC2EmRKS0_
FNL:7,366,370
FNA:7,1,_ZNSt12_Vector_baseIcSaIcEED2Ev
FNL:8,377,381
FNA:8,1,_ZNSt12_Vector_baseIcSaIcEE11_M_allocateEm
FNL:9,385,390
FNA:9,1,_ZNSt12_Vector_baseIcSaIcEE13_M_deallocateEPcm
FNL:10,396,401
FNA:10,1,_ZNSt12_Vector_baseIcSaIcEE17_M_create_storageEm
FNL:11,569,572
FNA:11,1,_ZNSt6vectorIcSaIcEEC2EmRKcRKS0_
FNL:12,733,738
FNA:12,1,_ZNSt6vectorIcSaIcEED2Ev
FNL:13,873,874
FNA:13,1,_ZNSt6vectorIcSaIcEE5beginEv
FNL:14,893,894
FNA:14,1,_ZNSt6vectorIcSaIcEE3endEv
FNL:15,98,100
FNA:15,1,_ZNSt12_Vector_baseIcSaIcEE17_Vector_impl_dataC2Ev
FNF:16
FNH:16
DA:98,1
DA:99,1
DA:100,1
DA:145,1
DA:146,1
DA:147,1
DA:300,2
DA:301,2
DA:332,1
DA:333,1
DA:334,1
DA:366,1
DA:368,1
DA:369,1
DA:370,1
DA:377,1
DA:380,2
DA:385,1
DA:388,1
DA:389,1
DA:390,1
DA:396,1
DA:398,1
DA:399,1
DA:400,1
DA:401,1
DA:569,1
DA:571,1
DA:572,1
DA:733,1
DA:735,1
DA:736,1
DA:738,1
DA:873,1
DA:874,1
DA:893,1
DA:894,1
DA:1128,6
DA:1131,6
DA:1706,1
DA:1708,1
DA:1709,1
DA:1710,1
DA:1711,1
DA:1917,1
DA:1919,1
DA:1920,0
DA:1922,1
DA:1926,1
DA:1931,1
DA:1933,1
DA:1934,1
LF:52
LH:51
end_of_record
TN:
SF:/usr/include/c++/14/new
FNL:0,179,180
FNA:0,3,_ZnwmPv
FNF:1
FNH:1
DA:179,3
DA:180,3
LF:2
LH:2
end_of_record
TN:
SF:/usr/include/c++/14/type_traits
FNL:0,3832,3839
FNA:0,3,_ZSt21is_constant_evaluatedv
FNF:1
FNH:1
DA:3832,3
DA:3835,3
LF:2
LH:2
end_of_record
TN:
SF:/usr/include/c++/14/x86_64-redhat-linux/bits/c++config.h
FNF:0
FNH:0
DA:2394,33
DA:2456,0
LF:2
LH:1
end_of_record
