TN:
SF:/home/monika/Documents/problems/16112번： 5차 전직/main.cpp
FNL:0,7,30
FNA:0,0,main
FNF:1
FNH:0
DA:7,0
DA:9,0
DA:10,0
DA:13,0
DA:15,0
DA:16,0
DA:17,0
DA:18,0
DA:20,0
DA:21,0
DA:23,0
DA:24,0
DA:27,0
DA:29,0
DA:30,0
LF:15
LH:0
end_of_record
TN:
SF:/usr/include/c++/14/bit
FNL:0,201,243
FNA:0,0,_ZSt13__countl_zeroImEiT_
FNL:1,371,375
FNA:1,0,_ZSt11__bit_widthImEiT_
FNF:2
FNH:0
DA:201,0
DA:204,0
DA:206,0
DA:207,0
DA:209,0
DA:210,0
DA:211,0
DA:220,0
DA:221,0
DA:371,0
DA:373,0
DA:374,0
LF:12
LH:0
end_of_record
TN:
SF:/usr/include/c++/14/bits/alloc_traits.h
FNF:0
FNH:0
DA:515,0
DA:550,0
DA:993,0
DA:994,0
LF:4
LH:0
end_of_record
TN:
SF:/usr/include/c++/14/bits/allocator.h
FNF:0
FNH:0
DA:161,0
DA:166,0
DA:182,0
DA:189,0
DA:191,0
DA:192,0
DA:193,0
DA:196,0
DA:203,0
DA:205,0
DA:206,0
DA:208,0
LF:12
LH:0
end_of_record
TN:
SF:/usr/include/c++/14/bits/cpp_type_traits.h
FNL:0,608,609
FNA:0,0,_ZSt12__miter_baseIN9__gnu_cxx17__normal_iteratorIPxSt6vectorIxSaIxEEEEET_S7_
FNF:1
FNH:0
DA:608,0
DA:609,0
LF:2
LH:0
end_of_record
TN:
SF:/usr/include/c++/14/bits/move.h
FNL:0,137,138
FNA:0,0,_ZSt4moveIRN9__gnu_cxx5__ops15_Iter_comp_iterISt7greaterIxEEEEONSt16remove_referenceIT_E4typeEOS8_
FNA:0,0,_ZSt4moveIRSt7greaterIxEEONSt16remove_referenceIT_E4typeEOS4_
FNA:0,0,_ZSt4moveIRxEONSt16remove_referenceIT_E4typeEOS2_
FNL:1,226,237
FNA:1,0,_ZSt4swapIxENSt9enable_ifIXsrSt6__and_IJSt6__not_ISt15__is_tuple_likeIT_EESt21is_move_constructibleIS4_ESt18is_move_assignableIS4_EEE5valueEvE4typeERS4_SE_
FNL:2,51,52
FNA:2,0,_ZSt11__addressofIxEPT_RS0_
FNF:3
FNH:0
DA:51,0
DA:52,0
DA:137,0
DA:138,0
DA:226,0
DA:234,0
DA:235,0
DA:236,0
DA:237,0
LF:9
LH:0
end_of_record
TN:
SF:/usr/include/c++/14/bits/new_allocator.h
FNL:0,126,152
FNA:0,0,_ZNSt15__new_allocatorIxE8allocateEmPKv
FNL:1,156,173
FNA:1,0,_ZNSt15__new_allocatorIxE10deallocateEPxm
FNF:2
FNH:0
DA:88,0
DA:92,0
DA:126,0
DA:134,0
DA:138,0
DA:139,0
DA:140,0
DA:151,0
DA:156,0
DA:172,0
DA:233,0
LF:11
LH:0
end_of_record
TN:
SF:/usr/include/c++/14/bits/predefined_ops.h
FNL:0,150,152
FNA:0,0,_ZN9__gnu_cxx5__ops15_Iter_comp_iterISt7greaterIxEEC2ES3_
FNL:1,157,158
FNA:1,0,_ZN9__gnu_cxx5__ops15_Iter_comp_iterISt7greaterIxEEclINS_17__normal_iteratorIPxSt6vectorIxSaIxEEEESB_EEbT_T0_
FNL:2,164,165
FNA:2,0,_ZN9__gnu_cxx5__ops16__iter_comp_iterISt7greaterIxEEENS0_15_Iter_comp_iterIT_EES5_
FNL:3,195,196
FNA:3,0,_ZN9__gnu_cxx5__ops14_Iter_comp_valISt7greaterIxEEclINS_17__normal_iteratorIPxSt6vectorIxSaIxEEEExEEbT_RT0_
FNL:4,231,233
FNA:4,0,_ZN9__gnu_cxx5__ops14_Val_comp_iterISt7greaterIxEEC2EONS0_15_Iter_comp_iterIS3_EE
FNL:5,239,240
FNA:5,0,_ZN9__gnu_cxx5__ops14_Val_comp_iterISt7greaterIxEEclIxNS_17__normal_iteratorIPxSt6vectorIxSaIxEEEEEEbRT_T0_
FNL:6,252,253
FNA:6,0,_ZN9__gnu_cxx5__ops15__val_comp_iterISt7greaterIxEEENS0_14_Val_comp_iterIT_EENS0_15_Iter_comp_iterIS5_EE
FNF:7
FNH:0
DA:150,0
DA:151,0
DA:152,0
DA:157,0
DA:158,0
DA:164,0
DA:165,0
DA:195,0
DA:196,0
DA:231,0
DA:232,0
DA:233,0
DA:239,0
DA:240,0
DA:252,0
DA:253,0
LF:16
LH:0
end_of_record
TN:
SF:/usr/include/c++/14/bits/stl_algo.h
FNL:0,1589,1597
FNA:0,0,_ZSt13__heap_selectIN9__gnu_cxx17__normal_iteratorIPxSt6vectorIxSaIxEEEENS0_5__ops15_Iter_comp_iterISt7greaterIxEEEEvT_SC_SC_T0_
FNL:1,1750,1764
FNA:1,0,_ZSt25__unguarded_linear_insertIN9__gnu_cxx17__normal_iteratorIPxSt6vectorIxSaIxEEEENS0_5__ops14_Val_comp_iterISt7greaterIxEEEEvT_T0_
FNL:2,1770,1788
FNA:2,0,_ZSt16__insertion_sortIN9__gnu_cxx17__normal_iteratorIPxSt6vectorIxSaIxEEEENS0_5__ops15_Iter_comp_iterISt7greaterIxEEEEvT_SC_T0_
FNL:3,1794,1800
FNA:3,0,_ZSt26__unguarded_insertion_sortIN9__gnu_cxx17__normal_iteratorIPxSt6vectorIxSaIxEEEENS0_5__ops15_Iter_comp_iterISt7greaterIxEEEEvT_SC_T0_
FNL:4,1812,1823
FNA:4,0,_ZSt22__final_insertion_sortIN9__gnu_cxx17__normal_iteratorIPxSt6vectorIxSaIxEEEENS0_5__ops15_Iter_comp_iterISt7greaterIxEEEEvT_SC_T0_
FNL:5,1829,1845
FNA:5,0,_ZSt21__unguarded_partitionIN9__gnu_cxx17__normal_iteratorIPxSt6vectorIxSaIxEEEENS0_5__ops15_Iter_comp_iterISt7greaterIxEEEET_SC_SC_SC_T0_
FNL:6,1851,1858
FNA:6,0,_ZSt27__unguarded_partition_pivotIN9__gnu_cxx17__normal_iteratorIPxSt6vectorIxSaIxEEEENS0_5__ops15_Iter_comp_iterISt7greaterIxEEEET_SC_SC_T0_
FNL:7,1863,1870
FNA:7,0,_ZSt14__partial_sortIN9__gnu_cxx17__normal_iteratorIPxSt6vectorIxSaIxEEEENS0_5__ops15_Iter_comp_iterISt7greaterIxEEEEvT_SC_SC_T0_
FNL:8,1876,1893
FNA:8,0,_ZSt16__introsort_loopIN9__gnu_cxx17__normal_iteratorIPxSt6vectorIxSaIxEEEElNS0_5__ops15_Iter_comp_iterISt7greaterIxEEEEvT_SC_T0_T1_
FNL:9,1900,1910
FNA:9,0,_ZSt6__sortIN9__gnu_cxx17__normal_iteratorIPxSt6vectorIxSaIxEEEENS0_5__ops15_Iter_comp_iterISt7greaterIxEEEEvT_SC_T0_
FNL:10,4793,4806
FNA:10,0,_ZSt4sortIN9__gnu_cxx17__normal_iteratorIPxSt6vectorIxSaIxEEEESt7greaterIxEEvT_S9_T0_
FNL:11,85,103
FNA:11,0,_ZSt22__move_median_to_firstIN9__gnu_cxx17__normal_iteratorIPxSt6vectorIxSaIxEEEENS0_5__ops15_Iter_comp_iterISt7greaterIxEEEEvT_SC_SC_SC_T0_
FNF:12
FNH:0
DA:85,0
DA:88,0
DA:90,0
DA:91,0
DA:92,0
DA:93,0
DA:95,0
DA:97,0
DA:98,0
DA:99,0
DA:100,0
DA:102,0
DA:103,0
DA:1589,0
DA:1593,0
DA:1594,0
DA:1595,0
DA:1596,0
DA:1597,0
DA:1750,0
DA:1754,0
DA:1755,0
DA:1756,0
DA:1757,0
DA:1759,0
DA:1760,0
DA:1761,0
DA:1763,0
DA:1764,0
DA:1770,0
DA:1773,0
DA:1775,0
DA:1777,0
DA:1780,0
DA:1781,0
DA:1782,0
DA:1785,0
DA:1794,0
DA:1797,0
DA:1798,0
DA:1800,0
DA:1812,0
DA:1815,0
DA:1817,0
DA:1818,0
DA:1822,0
DA:1823,0
DA:1829,0
DA:1835,0
DA:1836,0
DA:1837,0
DA:1838,0
DA:1839,0
DA:1840,0
DA:1841,0
DA:1842,0
DA:1843,0
DA:1851,0
DA:1854,0
DA:1855,0
DA:1857,0
DA:1863,0
DA:1868,0
DA:1869,0
DA:1870,0
DA:1876,0
DA:1880,0
DA:1882,0
DA:1884,0
DA:1885,0
DA:1887,0
DA:1889,0
DA:1890,0
DA:1891,0
DA:1900,0
DA:1903,0
DA:1905,0
DA:1906,0
DA:1908,0
DA:1910,0
DA:4793,0
DA:4805,0
DA:4806,0
LF:83
LH:0
end_of_record
TN:
SF:/usr/include/c++/14/bits/stl_algobase.h
FNL:0,1040,1040
FNA:0,0,_ZSt17__size_to_integerm
FNL:1,1140,1153
FNA:1,0,_ZSt10__fill_n_aIPxmxET_S1_T0_RKT1_St26random_access_iterator_tag
FNL:2,1175,1182
FNA:2,0,_ZSt6fill_nIPxmxET_S1_T0_RKT1_
FNL:3,1544,1557
FNA:3,0,_ZSt4__lgIlET_S0_
FNL:4,155,187
FNA:4,0,_ZSt9iter_swapIN9__gnu_cxx17__normal_iteratorIPxSt6vectorIxSaIxEEEES6_EvT_T0_
FNL:5,233,241
FNA:5,0,_ZSt3minIiERKT_S2_S2_
FNA:5,0,_ZSt3minImERKT_S2_S2_
FNL:6,316,318
FNA:6,0,_ZSt12__niter_baseIPxET_S1_
FNL:7,346,347
FNA:7,0,_ZSt12__niter_wrapIN9__gnu_cxx17__normal_iteratorIPxSt6vectorIxSaIxEEEES2_ET_S7_T0_
FNL:8,437,438
FNA:8,0,_ZNSt11__copy_moveILb1ELb0ESt26random_access_iterator_tagE12__assign_oneIxxEEvPT_PT0_
FNL:9,745,752
FNA:9,0,_ZNSt20__copy_move_backwardILb1ELb0ESt26random_access_iterator_tagE13__copy_move_bIPxS3_EET0_T_S5_S4_
FNL:10,762,771
FNA:10,0,_ZNSt20__copy_move_backwardILb1ELb1ESt26random_access_iterator_tagE13__copy_move_bIxxEEPT0_PT_S6_S4_
FNL:11,777,790
FNA:11,0,_ZSt23__copy_move_backward_a2ILb1EPxS0_ET1_T0_S2_S1_
FNL:12,795,796
FNA:12,0,_ZSt23__copy_move_backward_a1ILb1EPxS0_ET1_T0_S2_S1_
FNL:13,823,829
FNA:13,0,_ZSt22__copy_move_backward_aILb1EN9__gnu_cxx17__normal_iteratorIPxSt6vectorIxSaIxEEEES6_ET1_T0_S8_S7_
FNL:14,913,925
FNA:14,0,_ZSt13move_backwardIN9__gnu_cxx17__normal_iteratorIPxSt6vectorIxSaIxEEEES6_ET0_T_S8_S7_
FNL:15,947,953
FNA:15,0,_ZSt9__fill_a1IPxxEN9__gnu_cxx11__enable_ifIXsrSt11__is_scalarIT0_E7__valueEvE6__typeET_S8_RKS4_
FNL:16,997,998
FNA:16,0,_ZSt8__fill_aIPxxEvT_S1_RKT0_
FNF:17
FNH:0
DA:155,0
DA:185,0
DA:187,0
DA:233,0
DA:238,0
DA:239,0
DA:240,0
DA:316,0
DA:318,0
DA:346,0
DA:347,0
DA:437,0
DA:438,0
DA:745,0
DA:748,0
DA:749,0
DA:750,0
DA:751,0
DA:762,0
DA:764,0
DA:765,0
DA:766,0
DA:767,0
DA:769,0
DA:770,0
DA:777,0
DA:781,0
DA:783,0
DA:787,0
DA:789,0
DA:795,0
DA:796,0
DA:823,0
DA:825,0
DA:828,0
DA:913,0
DA:922,0
DA:924,0
DA:947,0
DA:950,0
DA:951,0
DA:952,0
DA:953,0
DA:997,0
DA:998,0
DA:1040,0
DA:1140,0
DA:1146,0
DA:1147,0
DA:1151,0
DA:1152,0
DA:1175,0
DA:1180,0
DA:1181,0
DA:1544,0
DA:1547,0
LF:56
LH:0
end_of_record
TN:
SF:/usr/include/c++/14/bits/stl_construct.h
FNL:0,109,120
FNA:0,0,_ZSt10_ConstructIxJEEvPT_DpOT0_
FNL:1,146,153
FNA:1,0,_ZSt8_DestroyIxEvPT_
FNL:2,160,164
FNA:2,0,_ZNSt12_Destroy_auxILb0EE9__destroyIPxEEvT_S3_
FNL:3,172,172
FNA:3,0,_ZNSt12_Destroy_auxILb1EE9__destroyIPxEEvT_S3_
FNL:4,182,197
FNA:4,0,_ZSt8_DestroyIPxEvT_S1_
FNL:5,80,89
FNA:5,0,_ZSt10destroy_atIxEvPT_
FNL:6,94,97
FNA:6,0,_ZSt12construct_atIxJEEDTgsnwcvPvLi0E_T_pispcl7declvalIT0_EEEEPS1_DpOS2_
FNF:7
FNH:0
DA:80,0
DA:88,0
DA:89,0
DA:94,0
DA:97,0
DA:109,0
DA:112,0
DA:115,0
DA:116,0
DA:119,0
DA:146,0
DA:149,0
DA:153,0
DA:160,0
DA:162,0
DA:163,0
DA:164,0
DA:172,0
DA:182,0
DA:192,0
DA:193,0
DA:196,0
LF:22
LH:0
end_of_record
TN:
SF:/usr/include/c++/14/bits/stl_function.h
FNL:0,394,395
FNA:0,0,_ZNKSt7greaterIxEclERKxS2_
FNF:1
FNH:0
DA:394,0
DA:395,0
LF:2
LH:0
end_of_record
TN:
SF:/usr/include/c++/14/bits/stl_heap.h
FNL:0,135,147
FNA:0,0,_ZSt11__push_heapIN9__gnu_cxx17__normal_iteratorIPxSt6vectorIxSaIxEEEElxNS0_5__ops14_Iter_comp_valISt7greaterIxEEEEvT_T0_SD_T1_RT2_
FNL:1,224,249
FNA:1,0,_ZSt13__adjust_heapIN9__gnu_cxx17__normal_iteratorIPxSt6vectorIxSaIxEEEElxNS0_5__ops15_Iter_comp_iterISt7greaterIxEEEEvT_T0_SD_T1_T2_
FNL:2,254,267
FNA:2,0,_ZSt10__pop_heapIN9__gnu_cxx17__normal_iteratorIPxSt6vectorIxSaIxEEEENS0_5__ops15_Iter_comp_iterISt7greaterIxEEEEvT_SC_SC_RT0_
FNL:3,340,362
FNA:3,0,_ZSt11__make_heapIN9__gnu_cxx17__normal_iteratorIPxSt6vectorIxSaIxEEEENS0_5__ops15_Iter_comp_iterISt7greaterIxEEEEvT_SC_RT0_
FNL:4,419,427
FNA:4,0,_ZSt11__sort_heapIN9__gnu_cxx17__normal_iteratorIPxSt6vectorIxSaIxEEEENS0_5__ops15_Iter_comp_iterISt7greaterIxEEEEvT_SC_RT0_
FNF:5
FNH:0
DA:135,0
DA:139,0
DA:140,0
DA:142,0
DA:143,0
DA:144,0
DA:146,0
DA:147,0
DA:224,0
DA:227,0
DA:228,0
DA:229,0
DA:231,0
DA:232,0
DA:234,0
DA:235,0
DA:236,0
DA:238,0
DA:240,0
DA:241,0
DA:243,0
DA:247,0
DA:248,0
DA:249,0
DA:254,0
DA:262,0
DA:263,0
DA:264,0
DA:265,0
DA:266,0
DA:267,0
DA:340,0
DA:348,0
DA:349,0
DA:351,0
DA:352,0
DA:353,0
DA:355,0
DA:356,0
DA:358,0
DA:359,0
DA:360,0
DA:419,0
DA:422,0
DA:424,0
DA:425,0
DA:427,0
LF:47
LH:0
end_of_record
TN:
SF:/usr/include/c++/14/bits/stl_iterator.h
FNL:0,1067,1068
FNA:0,0,_ZN9__gnu_cxx17__normal_iteratorIPxSt6vectorIxSaIxEEEC2ERKS1_
FNL:1,1090,1091
FNA:1,0,_ZNK9__gnu_cxx17__normal_iteratorIPxSt6vectorIxSaIxEEEdeEv
FNL:2,1100,1104
FNA:2,0,_ZN9__gnu_cxx17__normal_iteratorIPxSt6vectorIxSaIxEEEppEv
FNL:3,1114,1118
FNA:3,0,_ZN9__gnu_cxx17__normal_iteratorIPxSt6vectorIxSaIxEEEmmEv
FNL:4,1138,1139
FNA:4,0,_ZNK9__gnu_cxx17__normal_iteratorIPxSt6vectorIxSaIxEEEplEl
FNL:5,1148,1149
FNA:5,0,_ZNK9__gnu_cxx17__normal_iteratorIPxSt6vectorIxSaIxEEEmiEl
FNL:6,1153,1154
FNA:6,0,_ZNK9__gnu_cxx17__normal_iteratorIPxSt6vectorIxSaIxEEE4baseEv
FNL:7,1188,1194
FNA:7,0,_ZN9__gnu_cxxeqIPxSt6vectorIxSaIxEEEEbRKNS_17__normal_iteratorIT_T0_EESA_QrqXeqcldtfL0p_4baseEcldtfL0p0_4baseERSt14convertible_toIbEE
FNL:8,1199,1202
FNA:8,0,_ZN9__gnu_cxxssIPxSt6vectorIxSaIxEEEEDTclL_ZNSt8__detail11__synth3wayEEcl7declvalIRT_EEcl7declvalIS7_EEEERKNS_17__normal_iteratorIS6_T0_EESD_
FNL:9,1325,1328
FNA:9,0,_ZN9__gnu_cxxmiIPxSt6vectorIxSaIxEEEENS_17__normal_iteratorIT_T0_E15difference_typeERKS8_SB_
FNL:10,1348,1350
FNA:10,0,_ZSt12__niter_baseIPxSt6vectorIxSaIxEEET_N9__gnu_cxx17__normal_iteratorIS4_T0_EE
FNF:11
FNH:0
DA:1067,0
DA:1068,0
DA:1090,0
DA:1091,0
DA:1100,0
DA:1102,0
DA:1103,0
DA:1114,0
DA:1116,0
DA:1117,0
DA:1138,0
DA:1139,0
DA:1148,0
DA:1149,0
DA:1153,0
DA:1154,0
DA:1188,0
DA:1194,0
DA:1199,0
DA:1202,0
DA:1325,0
DA:1328,0
DA:1348,0
DA:1350,0
LF:24
LH:0
end_of_record
TN:
SF:/usr/include/c++/14/bits/stl_iterator_base_types.h
FNF:0
FNH:0
DA:240,0
LF:1
LH:0
end_of_record
TN:
SF:/usr/include/c++/14/bits/stl_uninitialized.h
FNL:0,637,651
FNA:0,0,_ZNSt27__uninitialized_default_n_1ILb0EE18__uninit_default_nIPxmEET_S3_T0_
FNL:1,660,671
FNA:1,0,_ZNSt27__uninitialized_default_n_1ILb1EE18__uninit_default_nIPxmEET_S3_T0_
FNL:2,696,713
FNA:2,0,_ZSt25__uninitialized_default_nIPxmET_S1_T0_
FNL:3,777,779
FNA:3,0,_ZSt27__uninitialized_default_n_aIPxmxET_S1_T0_RSaIT1_E
FNF:4
FNH:0
DA:637,0
DA:639,0
DA:642,0
DA:643,0
DA:644,0
DA:660,0
DA:662,0
DA:665,0
DA:666,0
DA:667,0
DA:668,0
DA:670,0
DA:696,0
DA:699,0
DA:701,0
DA:707,0
DA:712,0
DA:777,0
DA:779,0
LF:19
LH:0
end_of_record
TN:
SF:/usr/include/c++/14/bits/stl_vector.h
FNL:0,1128,1132
FNA:0,0,_ZNSt6vectorIxSaIxEEixEm
FNL:1,145,147
FNA:1,0,_ZNSt12_Vector_baseIxSaIxEE12_Vector_implC2ERKS0_
FNL:2,1717,1722
FNA:2,0,_ZNSt6vectorIxSaIxEE21_M_default_initializeEm
FNL:3,1917,1923
FNA:3,0,_ZNSt6vectorIxSaIxEE17_S_check_init_lenEmRKS0_
FNL:4,1926,1935
FNA:4,0,_ZNSt6vectorIxSaIxEE11_S_max_sizeERKS0_
FNL:5,300,301
FNA:5,0,_ZNSt12_Vector_baseIxSaIxEE19_M_get_Tp_allocatorEv
FNL:6,332,334
FNA:6,0,_ZNSt12_Vector_baseIxSaIxEEC2EmRKS0_
FNL:7,366,370
FNA:7,0,_ZNSt12_Vector_baseIxSaIxEED2Ev
FNL:8,377,381
FNA:8,0,_ZNSt12_Vector_baseIxSaIxEE11_M_allocateEm
FNL:9,385,390
FNA:9,0,_ZNSt12_Vector_baseIxSaIxEE13_M_deallocateEPxm
FNL:10,396,401
FNA:10,0,_ZNSt12_Vector_baseIxSaIxEE17_M_create_storageEm
FNL:11,556,558
FNA:11,0,_ZNSt6vectorIxSaIxEEC2EmRKS0_
FNL:12,733,738
FNA:12,0,_ZNSt6vectorIxSaIxEED2Ev
FNL:13,873,874
FNA:13,0,_ZNSt6vectorIxSaIxEE5beginEv
FNL:14,893,894
FNA:14,0,_ZNSt6vectorIxSaIxEE3endEv
FNL:15,98,100
FNA:15,0,_ZNSt12_Vector_baseIxSaIxEE17_Vector_impl_dataC2Ev
FNF:16
FNH:0
DA:98,0
DA:99,0
DA:100,0
DA:145,0
DA:146,0
DA:147,0
DA:300,0
DA:301,0
DA:332,0
DA:333,0
DA:334,0
DA:366,0
DA:368,0
DA:369,0
DA:370,0
DA:377,0
DA:380,0
DA:385,0
DA:388,0
DA:389,0
DA:390,0
DA:396,0
DA:398,0
DA:399,0
DA:400,0
DA:401,0
DA:556,0
DA:557,0
DA:558,0
DA:733,0
DA:735,0
DA:736,0
DA:738,0
DA:873,0
DA:874,0
DA:893,0
DA:894,0
DA:1128,0
DA:1131,0
DA:1717,0
DA:1719,0
DA:1720,0
DA:1721,0
DA:1722,0
DA:1917,0
DA:1919,0
DA:1920,0
DA:1922,0
DA:1926,0
DA:1931,0
DA:1933,0
DA:1934,0
LF:52
LH:0
end_of_record
TN:
SF:/usr/include/c++/14/compare
FNL:0,1224,1243
FNA:0,0,_ZNKSt8__detail10_Synth3wayclIPxS2_EEDaRKT_RKT0_QrqXltfL0p_fL0p0_RNS_18__boolean_testableEXltfL0p0_fL0p_RNS_18__boolean_testableEE
FNL:1,291,292
FNA:1,0,_ZStltSt15strong_orderingNSt9__cmp_cat8__unspecE
FNF:2
FNH:0
DA:291,0
DA:292,0
DA:1224,0
DA:1233,0
LF:4
LH:0
end_of_record
TN:
SF:/usr/include/c++/14/new
FNL:0,179,180
FNA:0,0,_ZnwmPv
FNF:1
FNH:0
DA:179,0
DA:180,0
LF:2
LH:0
end_of_record
TN:
SF:/usr/include/c++/14/type_traits
FNL:0,3832,3839
FNA:0,0,_ZSt21is_constant_evaluatedv
FNF:1
FNH:0
DA:3832,0
DA:3835,0
LF:2
LH:0
end_of_record
TN:
SF:/usr/include/c++/14/x86_64-redhat-linux/bits/c++config.h
FNF:0
FNH:0
DA:2394,0
LF:1
LH:0
end_of_record
