TN:
SF:/home/monika/Documents/problems/21041번： Largest Exotic Number/main.cpp
FNL:0,12,67
FNA:0,1,main
FNL:1,43,44
FNA:1,8,_ZZ4mainENKUlRK5CoordS1_E_clES1_S1_
FNF:2
FNH:2
DA:12,1
DA:14,1
DA:15,1
DA:18,1
DA:20,1
DA:21,4
DA:23,12
DA:26,9
DA:27,9
DA:31,1
DA:33,6
DA:35,5
DA:36,5
DA:38,5
DA:40,2
DA:43,3
DA:44,8
DA:46,3
DA:47,3
DA:48,7
DA:50,7
DA:52,3
DA:53,3
DA:55,4
DA:58,3
DA:60,3
DA:64,1
DA:66,1
DA:67,1
LF:29
LH:29
end_of_record
TN:
SF:/usr/include/c++/14/bit
FNL:0,201,243
FNA:0,3,_ZSt13__countl_zeroImEiT_
FNL:1,371,375
FNA:1,3,_ZSt11__bit_widthImEiT_
FNF:2
FNH:2
DA:201,3
DA:204,3
DA:206,3
DA:207,0
DA:209,3
DA:210,3
DA:211,3
DA:220,3
DA:221,3
DA:371,3
DA:373,3
DA:374,3
LF:12
LH:11
end_of_record
TN:
SF:/usr/include/c++/14/bits/alloc_traits.h
FNF:0
FNH:0
DA:515,15
DA:550,15
DA:577,14
DA:581,14
DA:599,5
DA:601,5
DA:993,5
DA:994,5
LF:8
LH:8
end_of_record
TN:
SF:/usr/include/c++/14/bits/allocator.h
FNF:0
FNH:0
DA:161,6
DA:176,2
DA:182,2
DA:189,15
DA:191,0
DA:192,0
DA:193,0
DA:196,15
DA:203,15
DA:205,0
DA:206,0
DA:208,15
LF:12
LH:7
end_of_record
TN:
SF:/usr/include/c++/14/bits/cpp_type_traits.h
FNL:0,608,609
FNA:0,0,_ZSt12__miter_baseIN9__gnu_cxx17__normal_iteratorIP5CoordSt6vectorIS2_SaIS2_EEEEET_S8_
FNF:1
FNH:0
DA:608,0
DA:609,0
LF:2
LH:0
end_of_record
TN:
SF:/usr/include/c++/14/bits/functional_hash.h
FNL:0,154,154
FNA:0,13,_ZNKSt4hashIiEclEi
FNF:1
FNH:1
DA:154,13
LF:1
LH:1
end_of_record
TN:
SF:/usr/include/c++/14/bits/hashtable.h
FNL:0,1658,1673
FNA:0,1,_ZNSt10_HashtableIiSt4pairIKiSt6vectorI5CoordSaIS3_EEESaIS6_ENSt8__detail10_Select1stESt8equal_toIiESt4hashIiENS8_18_Mod_range_hashingENS8_20_Default_ranged_hashENS8_20_Prime_rehash_policyENS8_17_Hashtable_traitsILb0ELb0ELb1EEEED2Ev
FNL:1,2065,2087
FNA:1,9,_ZNKSt10_HashtableIiSt4pairIKiSt6vectorI5CoordSaIS3_EEESaIS6_ENSt8__detail10_Select1stESt8equal_toIiESt4hashIiENS8_18_Mod_range_hashingENS8_20_Default_ranged_hashENS8_20_Prime_rehash_policyENS8_17_Hashtable_traitsILb0ELb0ELb1EEEE19_M_find_before_nodeEmRS1_m
FNL:2,2228,2252
FNA:2,5,_ZNSt10_HashtableIiSt4pairIKiSt6vectorI5CoordSaIS3_EEESaIS6_ENSt8__detail10_Select1stESt8equal_toIiESt4hashIiENS8_18_Mod_range_hashingENS8_20_Default_ranged_hashENS8_20_Prime_rehash_policyENS8_17_Hashtable_traitsILb0ELb0ELb1EEEE21_M_insert_unique_nodeEmmPNS8_10_Hash_nodeIS6_Lb0EEEm
FNL:3,2584,2593
FNA:3,1,_ZNSt10_HashtableIiSt4pairIKiSt6vectorI5CoordSaIS3_EEESaIS6_ENSt8__detail10_Select1stESt8equal_toIiESt4hashIiENS8_18_Mod_range_hashingENS8_20_Default_ranged_hashENS8_20_Prime_rehash_policyENS8_17_Hashtable_traitsILb0ELb0ELb1EEEE5clearEv
FNL:4,2623,2657
FNA:4,1,_ZNSt10_HashtableIiSt4pairIKiSt6vectorI5CoordSaIS3_EEESaIS6_ENSt8__detail10_Select1stESt8equal_toIiESt4hashIiENS8_18_Mod_range_hashingENS8_20_Default_ranged_hashENS8_20_Prime_rehash_policyENS8_17_Hashtable_traitsILb0ELb0ELb1EEEE9_M_rehashEmSt17integral_constantIbLb1EE
FNL:5,310,313
FNA:5,5,_ZNSt10_HashtableIiSt4pairIKiSt6vectorI5CoordSaIS3_EEESaIS6_ENSt8__detail10_Select1stESt8equal_toIiESt4hashIiENS8_18_Mod_range_hashingENS8_20_Default_ranged_hashENS8_20_Prime_rehash_policyENS8_17_Hashtable_traitsILb0ELb0ELb1EEEE12_Scoped_nodeC2IJRKSt21piecewise_construct_tSt5tupleIJRS1_EESP_IJEEEEEPNS8_16_Hashtable_allocISaINS8_10_Hash_nodeIS6_Lb0EEEEEEDpOT_
FNL:6,316,316
FNA:6,5,_ZNSt10_HashtableIiSt4pairIKiSt6vectorI5CoordSaIS3_EEESaIS6_ENSt8__detail10_Select1stESt8equal_toIiESt4hashIiENS8_18_Mod_range_hashingENS8_20_Default_ranged_hashENS8_20_Prime_rehash_policyENS8_17_Hashtable_traitsILb0ELb0ELb1EEEE12_Scoped_nodeD2Ev
FNL:7,421,422
FNA:7,2,_ZNKSt10_HashtableIiSt4pairIKiSt6vectorI5CoordSaIS3_EEESaIS6_ENSt8__detail10_Select1stESt8equal_toIiESt4hashIiENS8_18_Mod_range_hashingENS8_20_Default_ranged_hashENS8_20_Prime_rehash_policyENS8_17_Hashtable_traitsILb0ELb0ELb1EEEE21_M_uses_single_bucketEPPNS8_15_Hash_node_baseE
FNL:8,439,448
FNA:8,1,_ZNSt10_HashtableIiSt4pairIKiSt6vectorI5CoordSaIS3_EEESaIS6_ENSt8__detail10_Select1stESt8equal_toIiESt4hashIiENS8_18_Mod_range_hashingENS8_20_Default_ranged_hashENS8_20_Prime_rehash_policyENS8_17_Hashtable_traitsILb0ELb0ELb1EEEE19_M_allocate_bucketsEm
FNL:9,451,457
FNA:9,2,_ZNSt10_HashtableIiSt4pairIKiSt6vectorI5CoordSaIS3_EEESaIS6_ENSt8__detail10_Select1stESt8equal_toIiESt4hashIiENS8_18_Mod_range_hashingENS8_20_Default_ranged_hashENS8_20_Prime_rehash_policyENS8_17_Hashtable_traitsILb0ELb0ELb1EEEE21_M_deallocate_bucketsEPPNS8_15_Hash_node_baseEm
FNL:10,460,461
FNA:10,2,_ZNSt10_HashtableIiSt4pairIKiSt6vectorI5CoordSaIS3_EEESaIS6_ENSt8__detail10_Select1stESt8equal_toIiESt4hashIiENS8_18_Mod_range_hashingENS8_20_Default_ranged_hashENS8_20_Prime_rehash_policyENS8_17_Hashtable_traitsILb0ELb0ELb1EEEE21_M_deallocate_bucketsEv
FNL:11,473,474
FNA:11,3,_ZNKSt10_HashtableIiSt4pairIKiSt6vectorI5CoordSaIS3_EEESaIS6_ENSt8__detail10_Select1stESt8equal_toIiESt4hashIiENS8_18_Mod_range_hashingENS8_20_Default_ranged_hashENS8_20_Prime_rehash_policyENS8_17_Hashtable_traitsILb0ELb0ELb1EEEE8_M_beginEv
FNL:12,539,539
FNA:12,1,_ZNSt10_HashtableIiSt4pairIKiSt6vectorI5CoordSaIS3_EEESaIS6_ENSt8__detail10_Select1stESt8equal_toIiESt4hashIiENS8_18_Mod_range_hashingENS8_20_Default_ranged_hashENS8_20_Prime_rehash_policyENS8_17_Hashtable_traitsILb0ELb0ELb1EEEEC2Ev
FNL:13,632,633
FNA:13,1,_ZNSt10_HashtableIiSt4pairIKiSt6vectorI5CoordSaIS3_EEESaIS6_ENSt8__detail10_Select1stESt8equal_toIiESt4hashIiENS8_18_Mod_range_hashingENS8_20_Default_ranged_hashENS8_20_Prime_rehash_policyENS8_17_Hashtable_traitsILb0ELb0ELb1EEEE5beginEv
FNL:14,640,641
FNA:14,1,_ZNSt10_HashtableIiSt4pairIKiSt6vectorI5CoordSaIS3_EEESaIS6_ENSt8__detail10_Select1stESt8equal_toIiESt4hashIiENS8_18_Mod_range_hashingENS8_20_Default_ranged_hashENS8_20_Prime_rehash_policyENS8_17_Hashtable_traitsILb0ELb0ELb1EEEE3endEv
FNL:15,799,800
FNA:15,4,_ZNKSt10_HashtableIiSt4pairIKiSt6vectorI5CoordSaIS3_EEESaIS6_ENSt8__detail10_Select1stESt8equal_toIiESt4hashIiENS8_18_Mod_range_hashingENS8_20_Default_ranged_hashENS8_20_Prime_rehash_policyENS8_17_Hashtable_traitsILb0ELb0ELb1EEEE15_M_bucket_indexERKNS8_16_Hash_node_valueIS6_Lb0EEE
FNL:16,803,804
FNA:16,10,_ZNKSt10_HashtableIiSt4pairIKiSt6vectorI5CoordSaIS3_EEESaIS6_ENSt8__detail10_Select1stESt8equal_toIiESt4hashIiENS8_18_Mod_range_hashingENS8_20_Default_ranged_hashENS8_20_Prime_rehash_policyENS8_17_Hashtable_traitsILb0ELb0ELb1EEEE15_M_bucket_indexEm
FNL:17,819,826
FNA:17,9,_ZNKSt10_HashtableIiSt4pairIKiSt6vectorI5CoordSaIS3_EEESaIS6_ENSt8__detail10_Select1stESt8equal_toIiESt4hashIiENS8_18_Mod_range_hashingENS8_20_Default_ranged_hashENS8_20_Prime_rehash_policyENS8_17_Hashtable_traitsILb0ELb0ELb1EEEE12_M_find_nodeEmRS1_m
FNL:18,841,865
FNA:18,5,_ZNSt10_HashtableIiSt4pairIKiSt6vectorI5CoordSaIS3_EEESaIS6_ENSt8__detail10_Select1stESt8equal_toIiESt4hashIiENS8_18_Mod_range_hashingENS8_20_Default_ranged_hashENS8_20_Prime_rehash_policyENS8_17_Hashtable_traitsILb0ELb0ELb1EEEE22_M_insert_bucket_beginEmPNS8_10_Hash_nodeIS6_Lb0EEE
FNF:19
FNH:19
DA:310,5
DA:311,5
DA:312,5
DA:313,5
DA:316,5
DA:421,2
DA:422,2
DA:439,1
DA:441,1
DA:443,0
DA:444,0
DA:447,1
DA:451,2
DA:453,2
DA:454,1
DA:456,1
DA:460,2
DA:461,2
DA:473,3
DA:474,3
DA:539,1
DA:632,1
DA:633,1
DA:640,1
DA:641,1
DA:799,4
DA:800,4
DA:803,10
DA:804,10
DA:819,9
DA:822,9
DA:823,9
DA:824,4
DA:825,5
DA:841,5
DA:843,5
DA:847,0
DA:848,0
DA:855,5
DA:856,5
DA:858,5
DA:861,4
DA:863,5
DA:865,5
DA:1658,1
DA:1671,1
DA:1672,1
DA:1673,1
DA:2065,9
DA:2071,9
DA:2072,9
DA:2073,5
DA:2075,4
DA:2076,0
DA:2078,4
DA:2079,4
DA:2081,0
DA:2082,0
DA:2083,0
DA:2086,0
DA:2228,5
DA:2234,5
DA:2236,5
DA:2239,5
DA:2241,1
DA:2242,1
DA:2245,5
DA:2246,5
DA:2249,5
DA:2250,5
DA:2251,10
DA:2252,5
DA:2584,1
DA:2588,1
DA:2589,1
DA:2590,1
DA:2591,1
DA:2592,1
DA:2593,1
DA:2623,1
DA:2627,1
DA:2628,1
DA:2629,1
DA:2630,1
DA:2631,1
DA:2633,0
DA:2635,0
DA:2636,0
DA:2638,0
DA:2639,0
DA:2640,0
DA:2641,0
DA:2642,0
DA:2643,0
DA:2647,0
DA:2648,0
DA:2651,0
DA:2654,1
DA:2655,1
DA:2656,1
DA:2657,1
LF:101
LH:80
end_of_record
TN:
SF:/usr/include/c++/14/bits/hashtable_policy.h
FNL:0,112,113
FNA:0,8,_ZNKSt8__detail10_Select1stclIRKSt4pairIKiSt6vectorI5CoordSaIS5_EEEEEONS0_10__1st_typeIT_E4typeEOSC_
FNL:1,1245,1245
FNA:1,1,_ZNSt8__detail21_Hashtable_ebo_helperILi0ESaINS_10_Hash_nodeISt4pairIKiSt6vectorI5CoordSaIS5_EEELb0EEEELb1EEC2Ev
FNA:1,1,_ZNSt8__detail21_Hashtable_ebo_helperILi0ESt8equal_toIiELb1EEC2Ev
FNA:1,1,_ZNSt8__detail21_Hashtable_ebo_helperILi1ESt4hashIiELb1EEC2Ev
FNL:2,1252,1252
FNA:2,4,_ZNKSt8__detail21_Hashtable_ebo_helperILi0ESt8equal_toIiELb1EE7_M_cgetEv
FNA:2,13,_ZNKSt8__detail21_Hashtable_ebo_helperILi1ESt4hashIiELb1EE7_M_cgetEv
FNL:3,1253,1253
FNA:3,17,_ZNSt8__detail21_Hashtable_ebo_helperILi0ESaINS_10_Hash_nodeISt4pairIKiSt6vectorI5CoordSaIS5_EEELb0EEEELb1EE6_M_getEv
FNL:4,1328,1328
FNA:4,1,_ZNSt8__detail15_Hash_code_baseIiSt4pairIKiSt6vectorI5CoordSaIS4_EEENS_10_Select1stESt4hashIiENS_18_Mod_range_hashingENS_20_Default_ranged_hashELb0EEC2Ev
FNL:5,1333,1338
FNA:5,13,_ZNKSt8__detail15_Hash_code_baseIiSt4pairIKiSt6vectorI5CoordSaIS4_EEENS_10_Select1stESt4hashIiENS_18_Mod_range_hashingENS_20_Default_ranged_hashELb0EE12_M_hash_codeERS2_
FNL:6,1358,1359
FNA:6,10,_ZNKSt8__detail15_Hash_code_baseIiSt4pairIKiSt6vectorI5CoordSaIS4_EEENS_10_Select1stESt4hashIiENS_18_Mod_range_hashingENS_20_Default_ranged_hashELb0EE15_M_bucket_indexEmm
FNL:7,1362,1370
FNA:7,4,_ZNKSt8__detail15_Hash_code_baseIiSt4pairIKiSt6vectorI5CoordSaIS4_EEENS_10_Select1stESt4hashIiENS_18_Mod_range_hashingENS_20_Default_ranged_hashELb0EE15_M_bucket_indexERKNS_16_Hash_node_valueIS7_Lb0EEEm
FNL:8,1380,1381
FNA:8,5,_ZNKSt8__detail15_Hash_code_baseIiSt4pairIKiSt6vectorI5CoordSaIS4_EEENS_10_Select1stESt4hashIiENS_18_Mod_range_hashingENS_20_Default_ranged_hashELb0EE13_M_store_codeERNS_21_Hash_node_code_cacheILb0EEEm
FNL:9,1402,1402
FNA:9,13,_ZNKSt8__detail15_Hash_code_baseIiSt4pairIKiSt6vectorI5CoordSaIS4_EEENS_10_Select1stESt4hashIiENS_18_Mod_range_hashingENS_20_Default_ranged_hashELb0EE7_M_hashEv
FNL:10,1710,1711
FNA:10,4,_ZNSt8__detail15_Hashtable_baseIiSt4pairIKiSt6vectorI5CoordSaIS4_EEENS_10_Select1stESt8equal_toIiESt4hashIiENS_18_Mod_range_hashingENS_20_Default_ranged_hashENS_17_Hashtable_traitsILb0ELb0ELb1EEEE9_S_equalsEmRKNS_21_Hash_node_code_cacheILb0EEE
FNL:11,1728,1728
FNA:11,1,_ZNSt8__detail15_Hashtable_baseIiSt4pairIKiSt6vectorI5CoordSaIS4_EEENS_10_Select1stESt8equal_toIiESt4hashIiENS_18_Mod_range_hashingENS_20_Default_ranged_hashENS_17_Hashtable_traitsILb0ELb0ELb1EEEEC2Ev
FNL:12,1735,1743
FNA:12,4,_ZNKSt8__detail15_Hashtable_baseIiSt4pairIKiSt6vectorI5CoordSaIS4_EEENS_10_Select1stESt8equal_toIiESt4hashIiENS_18_Mod_range_hashingENS_20_Default_ranged_hashENS_17_Hashtable_traitsILb0ELb0ELb1EEEE13_M_key_equalsERS2_RKNS_16_Hash_node_valueIS7_Lb0EEE
FNL:13,1759,1761
FNA:13,4,_ZNKSt8__detail15_Hashtable_baseIiSt4pairIKiSt6vectorI5CoordSaIS4_EEENS_10_Select1stESt8equal_toIiESt4hashIiENS_18_Mod_range_hashingENS_20_Default_ranged_hashENS_17_Hashtable_traitsILb0ELb0ELb1EEEE9_M_equalsERS2_mRKNS_16_Hash_node_valueIS7_Lb0EEE
FNL:14,1787,1787
FNA:14,4,_ZNKSt8__detail15_Hashtable_baseIiSt4pairIKiSt6vectorI5CoordSaIS4_EEENS_10_Select1stESt8equal_toIiESt4hashIiENS_18_Mod_range_hashingENS_20_Default_ranged_hashENS_17_Hashtable_traitsILb0ELb0ELb1EEEE5_M_eqEv
FNL:15,1970,1970
FNA:15,1,_ZNSt8__detail16_Hashtable_allocISaINS_10_Hash_nodeISt4pairIKiSt6vectorI5CoordSaIS5_EEELb0EEEEEC2Ev
FNL:16,1980,1981
FNA:16,17,_ZNSt8__detail16_Hashtable_allocISaINS_10_Hash_nodeISt4pairIKiSt6vectorI5CoordSaIS5_EEELb0EEEEE17_M_node_allocatorEv
FNL:17,2017,2036
FNA:17,5,_ZNSt8__detail16_Hashtable_allocISaINS_10_Hash_nodeISt4pairIKiSt6vectorI5CoordSaIS5_EEELb0EEEEE16_M_allocate_nodeIJRKSt21piecewise_construct_tSt5tupleIJRS3_EESG_IJEEEEEPS9_DpOT_
FNL:18,2040,2044
FNA:18,5,_ZNSt8__detail16_Hashtable_allocISaINS_10_Hash_nodeISt4pairIKiSt6vectorI5CoordSaIS5_EEELb0EEEEE18_M_deallocate_nodeEPS9_
FNL:19,2048,2054
FNA:19,5,_ZNSt8__detail16_Hashtable_allocISaINS_10_Hash_nodeISt4pairIKiSt6vectorI5CoordSaIS5_EEELb0EEEEE22_M_deallocate_node_ptrEPS9_
FNL:20,2058,2066
FNA:20,1,_ZNSt8__detail16_Hashtable_allocISaINS_10_Hash_nodeISt4pairIKiSt6vectorI5CoordSaIS5_EEELb0EEEEE19_M_deallocate_nodesEPS9_
FNL:21,2070,2079
FNA:21,1,_ZNSt8__detail16_Hashtable_allocISaINS_10_Hash_nodeISt4pairIKiSt6vectorI5CoordSaIS5_EEELb0EEEEE19_M_allocate_bucketsEm
FNL:22,2083,2091
FNA:22,1,_ZNSt8__detail16_Hashtable_allocISaINS_10_Hash_nodeISt4pairIKiSt6vectorI5CoordSaIS5_EEELb0EEEEE21_M_deallocate_bucketsEPPNS_15_Hash_node_baseEm
FNL:23,319,319
FNA:23,6,_ZNSt8__detail15_Hash_node_baseC2Ev
FNL:24,386,387
FNA:24,14,_ZNKSt8__detail10_Hash_nodeISt4pairIKiSt6vectorI5CoordSaIS4_EEELb0EE7_M_nextEv
FNL:25,399,400
FNA:25,7,_ZNSt8__detail19_Node_iterator_baseISt4pairIKiSt6vectorI5CoordSaIS4_EEELb0EEC2EPNS_10_Hash_nodeIS7_Lb0EEE
FNL:26,403,404
FNA:26,5,_ZNSt8__detail19_Node_iterator_baseISt4pairIKiSt6vectorI5CoordSaIS4_EEELb0EE7_M_incrEv
FNL:27,407,409
FNA:27,6,_ZNSt8__detaileqERKNS_19_Node_iterator_baseISt4pairIKiSt6vectorI5CoordSaIS4_EEELb0EEESA_
FNL:28,442,443
FNA:28,7,_ZNSt8__detail14_Node_iteratorISt4pairIKiSt6vectorI5CoordSaIS4_EEELb0ELb0EEC2EPNS_10_Hash_nodeIS7_Lb0EEE
FNL:29,446,447
FNA:29,5,_ZNKSt8__detail14_Node_iteratorISt4pairIKiSt6vectorI5CoordSaIS4_EEELb0ELb0EEdeEv
FNL:30,450,451
FNA:30,5,_ZNKSt8__detail14_Node_iteratorISt4pairIKiSt6vectorI5CoordSaIS4_EEELb0ELb0EEptEv
FNL:31,454,458
FNA:31,5,_ZNSt8__detail14_Node_iteratorISt4pairIKiSt6vectorI5CoordSaIS4_EEELb0ELb0EEppEv
FNL:32,532,534
FNA:32,14,_ZNKSt8__detail18_Mod_range_hashingclEmm
FNL:33,550,551
FNA:33,1,_ZNSt8__detail20_Prime_rehash_policyC2Ef
FNL:34,577,578
FNA:34,5,_ZNKSt8__detail20_Prime_rehash_policy8_M_stateEv
FNL:35,585,586
FNA:35,0,_ZNSt8__detail20_Prime_rehash_policy8_M_resetEm
FNL:36,730,733
FNA:36,5,_ZNSt8__detail17_RehashStateGuardINS_20_Prime_rehash_policyEEC2ERS1_
FNL:37,736,740
FNA:37,5,_ZNSt8__detail17_RehashStateGuardINS_20_Prime_rehash_policyEED2Ev
FNL:38,832,853
FNA:38,9,_ZNSt8__detail9_Map_baseIiSt4pairIKiSt6vectorI5CoordSaIS4_EEESaIS7_ENS_10_Select1stESt8equal_toIiESt4hashIiENS_18_Mod_range_hashingENS_20_Default_ranged_hashENS_20_Prime_rehash_policyENS_17_Hashtable_traitsILb0ELb0ELb1EEELb1EEixERS2_
FNF:39
FNH:38
DA:112,8
DA:113,8
DA:319,6
DA:339,24
DA:344,8
DA:349,9
DA:354,8
DA:386,14
DA:387,14
DA:399,7
DA:400,7
DA:403,5
DA:404,5
DA:407,6
DA:409,6
DA:442,7
DA:443,7
DA:446,5
DA:447,10
DA:450,5
DA:451,10
DA:454,5
DA:456,5
DA:457,5
DA:532,14
DA:534,14
DA:550,1
DA:551,1
DA:577,5
DA:578,5
DA:585,0
DA:586,0
DA:730,5
DA:731,5
DA:732,5
DA:733,5
DA:736,5
DA:738,5
DA:739,0
DA:740,5
DA:832,9
DA:837,9
DA:838,9
DA:839,9
DA:840,9
DA:841,8
DA:843,5
DA:846,5
DA:847,0
DA:850,5
DA:851,5
DA:852,5
DA:853,5
DA:1245,3
DA:1252,17
DA:1253,17
DA:1328,1
DA:1333,13
DA:1337,13
DA:1358,10
DA:1359,10
DA:1362,4
DA:1368,12
DA:1369,4
DA:1380,5
DA:1381,5
DA:1402,13
DA:1710,4
DA:1711,4
DA:1728,1
DA:1735,4
DA:1742,8
DA:1759,4
DA:1761,4
DA:1787,4
DA:1970,1
DA:1980,17
DA:1981,17
DA:2017,5
DA:2020,5
DA:2021,5
DA:2022,5
DA:2025,5
DA:2026,10
DA:2028,5
DA:2030,0
DA:2032,0
DA:2034,0
DA:2040,5
DA:2042,10
DA:2043,5
DA:2044,5
DA:2048,5
DA:2051,5
DA:2052,5
DA:2053,5
DA:2054,5
DA:2058,1
DA:2060,6
DA:2062,5
DA:2063,5
DA:2064,5
DA:2066,1
DA:2070,1
DA:2073,1
DA:2075,1
DA:2076,1
DA:2077,1
DA:2078,2
DA:2083,1
DA:2088,1
DA:2089,1
DA:2091,1
LF:113
LH:106
end_of_record
TN:
SF:/usr/include/c++/14/bits/move.h
FNL:0,137,138
FNA:0,17,_ZSt4moveIR5CoordEONSt16remove_referenceIT_E4typeEOS3_
FNA:0,4,_ZSt4moveIRN9__gnu_cxx5__ops15_Iter_comp_iterIZ4mainEUlRK5CoordS5_E_EEEONSt16remove_referenceIT_E4typeEOSA_
FNA:0,10,_ZSt4moveIRZ4mainEUlRK5CoordS2_E_EONSt16remove_referenceIT_E4typeEOS6_
FNL:1,175,176
FNA:1,5,_ZSt9addressofINSt8__detail10_Hash_nodeISt4pairIKiSt6vectorI5CoordSaIS5_EEELb0EEEEPT_RSA_
FNA:1,1,_ZSt9addressofIPNSt8__detail15_Hash_node_baseEEPT_RS3_
FNL:2,226,237
FNA:2,0,_ZSt4swapI5CoordENSt9enable_ifIXsrSt6__and_IJSt6__not_ISt15__is_tuple_likeIT_EESt21is_move_constructibleIS5_ESt18is_move_assignableIS5_EEE5valueEvE4typeERS5_SF_
FNL:3,51,52
FNA:3,0,_ZSt11__addressofI5CoordEPT_RS1_
FNA:3,5,_ZSt11__addressofINSt8__detail10_Hash_nodeISt4pairIKiSt6vectorI5CoordSaIS5_EEELb0EEEEPT_RSA_
FNA:3,5,_ZSt11__addressofINSt8__detail20_Prime_rehash_policyEEPT_RS2_
FNA:3,1,_ZSt11__addressofIPNSt8__detail15_Hash_node_baseEEPT_RS3_
FNL:4,71,72
FNA:4,36,_ZSt7forwardI5CoordEOT_RNSt16remove_referenceIS1_E4typeE
FNA:4,20,_ZSt7forwardIRKSt21piecewise_construct_tEOT_RNSt16remove_referenceIS3_E4typeE
FNA:4,8,_ZSt7forwardIRKSt4pairIKiSt6vectorI5CoordSaIS3_EEEEOT_RNSt16remove_referenceIS9_E4typeE
FNA:4,5,_ZSt7forwardIRKiEOT_RNSt16remove_referenceIS2_E4typeE
FNA:4,20,_ZSt7forwardISt5tupleIJEEEOT_RNSt16remove_referenceIS2_E4typeE
FNA:4,20,_ZSt7forwardISt5tupleIJRKiEEEOT_RNSt16remove_referenceIS4_E4typeE
FNF:5
FNH:4
DA:51,11
DA:52,11
DA:71,109
DA:72,109
DA:137,31
DA:138,31
DA:175,6
DA:176,6
DA:226,0
DA:234,0
DA:235,0
DA:236,0
DA:237,0
LF:13
LH:8
end_of_record
TN:
SF:/usr/include/c++/14/bits/new_allocator.h
FNL:0,126,152
FNA:0,9,_ZNSt15__new_allocatorI5CoordE8allocateEmPKv
FNA:0,5,_ZNSt15__new_allocatorINSt8__detail10_Hash_nodeISt4pairIKiSt6vectorI5CoordSaIS5_EEELb0EEEE8allocateEmPKv
FNA:0,1,_ZNSt15__new_allocatorIPNSt8__detail15_Hash_node_baseEE8allocateEmPKv
FNL:1,156,173
FNA:1,9,_ZNSt15__new_allocatorI5CoordE10deallocateEPS0_m
FNA:1,5,_ZNSt15__new_allocatorINSt8__detail10_Hash_nodeISt4pairIKiSt6vectorI5CoordSaIS5_EEELb0EEEE10deallocateEPS9_m
FNA:1,1,_ZNSt15__new_allocatorIPNSt8__detail15_Hash_node_baseEE10deallocateEPS2_m
FNF:2
FNH:2
DA:88,8
DA:126,15
DA:134,15
DA:138,0
DA:139,0
DA:140,0
DA:151,15
DA:156,15
DA:172,15
DA:233,15
LF:10
LH:7
end_of_record
TN:
SF:/usr/include/c++/14/bits/predefined_ops.h
FNL:0,150,152
FNA:0,3,_ZN9__gnu_cxx5__ops15_Iter_comp_iterIZ4mainEUlRK5CoordS4_E_EC2ES5_
FNL:1,157,158
FNA:1,4,_ZN9__gnu_cxx5__ops15_Iter_comp_iterIZ4mainEUlRK5CoordS4_E_EclINS_17__normal_iteratorIPS2_St6vectorIS2_SaIS2_EEEESD_EEbT_T0_
FNL:2,164,165
FNA:2,3,_ZN9__gnu_cxx5__ops16__iter_comp_iterIZ4mainEUlRK5CoordS4_E_EENS0_15_Iter_comp_iterIT_EES7_
FNL:3,195,196
FNA:3,0,_ZN9__gnu_cxx5__ops14_Iter_comp_valIZ4mainEUlRK5CoordS4_E_EclINS_17__normal_iteratorIPS2_St6vectorIS2_SaIS2_EEEES2_EEbT_RT0_
FNL:4,231,233
FNA:4,4,_ZN9__gnu_cxx5__ops14_Val_comp_iterIZ4mainEUlRK5CoordS4_E_EC2EONS0_15_Iter_comp_iterIS5_EE
FNL:5,239,240
FNA:5,4,_ZN9__gnu_cxx5__ops14_Val_comp_iterIZ4mainEUlRK5CoordS4_E_EclIS2_NS_17__normal_iteratorIPS2_St6vectorIS2_SaIS2_EEEEEEbRT_T0_
FNL:6,252,253
FNA:6,4,_ZN9__gnu_cxx5__ops15__val_comp_iterIZ4mainEUlRK5CoordS4_E_EENS0_14_Val_comp_iterIT_EENS0_15_Iter_comp_iterIS7_EE
FNF:7
FNH:6
DA:150,3
DA:151,3
DA:152,3
DA:157,4
DA:158,4
DA:164,3
DA:165,3
DA:195,0
DA:196,0
DA:231,4
DA:232,4
DA:233,4
DA:239,4
DA:240,4
DA:252,4
DA:253,4
LF:16
LH:14
end_of_record
TN:
SF:/usr/include/c++/14/bits/ptr_traits.h
FNL:0,134,135
FNA:0,5,_ZNSt19__ptr_traits_ptr_toIPNSt8__detail10_Hash_nodeISt4pairIKiSt6vectorI5CoordSaIS5_EEELb0EEES9_Lb0EE10pointer_toERS9_
FNA:0,1,_ZNSt19__ptr_traits_ptr_toIPPNSt8__detail15_Hash_node_baseES2_Lb0EE10pointer_toERS2_
FNL:1,205,209
FNA:1,9,_ZSt12__to_addressI5CoordEPT_S2_
FNA:1,5,_ZSt12__to_addressINSt8__detail10_Hash_nodeISt4pairIKiSt6vectorI5CoordSaIS5_EEELb0EEEEPT_SB_
FNA:1,1,_ZSt12__to_addressIPNSt8__detail15_Hash_node_baseEEPT_S4_
FNF:2
FNH:2
DA:134,6
DA:135,6
DA:205,15
DA:208,15
LF:4
LH:4
end_of_record
TN:
SF:/usr/include/c++/14/bits/stl_algo.h
FNL:0,1589,1597
FNA:0,0,_ZSt13__heap_selectIN9__gnu_cxx17__normal_iteratorIP5CoordSt6vectorIS2_SaIS2_EEEENS0_5__ops15_Iter_comp_iterIZ4mainEUlRKS2_SB_E_EEEvT_SE_SE_T0_
FNL:1,1750,1764
FNA:1,4,_ZSt25__unguarded_linear_insertIN9__gnu_cxx17__normal_iteratorIP5CoordSt6vectorIS2_SaIS2_EEEENS0_5__ops14_Val_comp_iterIZ4mainEUlRKS2_SB_E_EEEvT_T0_
FNL:2,1770,1788
FNA:2,3,_ZSt16__insertion_sortIN9__gnu_cxx17__normal_iteratorIP5CoordSt6vectorIS2_SaIS2_EEEENS0_5__ops15_Iter_comp_iterIZ4mainEUlRKS2_SB_E_EEEvT_SE_T0_
FNL:3,1794,1800
FNA:3,0,_ZSt26__unguarded_insertion_sortIN9__gnu_cxx17__normal_iteratorIP5CoordSt6vectorIS2_SaIS2_EEEENS0_5__ops15_Iter_comp_iterIZ4mainEUlRKS2_SB_E_EEEvT_SE_T0_
FNL:4,1812,1823
FNA:4,3,_ZSt22__final_insertion_sortIN9__gnu_cxx17__normal_iteratorIP5CoordSt6vectorIS2_SaIS2_EEEENS0_5__ops15_Iter_comp_iterIZ4mainEUlRKS2_SB_E_EEEvT_SE_T0_
FNL:5,1829,1845
FNA:5,0,_ZSt21__unguarded_partitionIN9__gnu_cxx17__normal_iteratorIP5CoordSt6vectorIS2_SaIS2_EEEENS0_5__ops15_Iter_comp_iterIZ4mainEUlRKS2_SB_E_EEET_SE_SE_SE_T0_
FNL:6,1851,1858
FNA:6,0,_ZSt27__unguarded_partition_pivotIN9__gnu_cxx17__normal_iteratorIP5CoordSt6vectorIS2_SaIS2_EEEENS0_5__ops15_Iter_comp_iterIZ4mainEUlRKS2_SB_E_EEET_SE_SE_T0_
FNL:7,1863,1870
FNA:7,0,_ZSt14__partial_sortIN9__gnu_cxx17__normal_iteratorIP5CoordSt6vectorIS2_SaIS2_EEEENS0_5__ops15_Iter_comp_iterIZ4mainEUlRKS2_SB_E_EEEvT_SE_SE_T0_
FNL:8,1876,1893
FNA:8,3,_ZSt16__introsort_loopIN9__gnu_cxx17__normal_iteratorIP5CoordSt6vectorIS2_SaIS2_EEEElNS0_5__ops15_Iter_comp_iterIZ4mainEUlRKS2_SB_E_EEEvT_SE_T0_T1_
FNL:9,1900,1910
FNA:9,3,_ZSt6__sortIN9__gnu_cxx17__normal_iteratorIP5CoordSt6vectorIS2_SaIS2_EEEENS0_5__ops15_Iter_comp_iterIZ4mainEUlRKS2_SB_E_EEEvT_SE_T0_
FNL:10,4793,4806
FNA:10,3,_ZSt4sortIN9__gnu_cxx17__normal_iteratorIP5CoordSt6vectorIS2_SaIS2_EEEEZ4mainEUlRKS2_S9_E_EvT_SB_T0_
FNL:11,85,103
FNA:11,0,_ZSt22__move_median_to_firstIN9__gnu_cxx17__normal_iteratorIP5CoordSt6vectorIS2_SaIS2_EEEENS0_5__ops15_Iter_comp_iterIZ4mainEUlRKS2_SB_E_EEEvT_SE_SE_SE_T0_
FNF:12
FNH:6
DA:85,0
DA:88,0
DA:90,0
DA:91,0
DA:92,0
DA:93,0
DA:95,0
DA:97,0
DA:98,0
DA:99,0
DA:100,0
DA:102,0
DA:103,0
DA:1589,0
DA:1593,0
DA:1594,0
DA:1595,0
DA:1596,0
DA:1597,0
DA:1750,4
DA:1754,4
DA:1755,4
DA:1756,4
DA:1757,4
DA:1759,0
DA:1760,0
DA:1761,0
DA:1763,4
DA:1764,4
DA:1770,3
DA:1773,3
DA:1775,7
DA:1777,4
DA:1780,0
DA:1781,0
DA:1782,0
DA:1785,4
DA:1794,0
DA:1797,0
DA:1798,0
DA:1800,0
DA:1812,3
DA:1815,3
DA:1817,0
DA:1818,0
DA:1822,3
DA:1823,3
DA:1829,0
DA:1835,0
DA:1836,0
DA:1837,0
DA:1838,0
DA:1839,0
DA:1840,0
DA:1841,0
DA:1842,0
DA:1843,0
DA:1851,0
DA:1854,0
DA:1855,0
DA:1857,0
DA:1863,0
DA:1868,0
DA:1869,0
DA:1870,0
DA:1876,3
DA:1880,3
DA:1882,0
DA:1884,0
DA:1885,0
DA:1887,0
DA:1889,0
DA:1890,0
DA:1891,0
DA:1900,3
DA:1903,3
DA:1905,3
DA:1906,3
DA:1908,3
DA:1910,3
DA:4793,3
DA:4805,3
DA:4806,3
LF:83
LH:27
end_of_record
TN:
SF:/usr/include/c++/14/bits/stl_algobase.h
FNL:0,1544,1557
FNA:0,3,_ZSt4__lgIlET_S0_
FNL:1,155,187
FNA:1,0,_ZSt9iter_swapIN9__gnu_cxx17__normal_iteratorIP5CoordSt6vectorIS2_SaIS2_EEEES7_EvT_T0_
FNL:2,233,241
FNA:2,18,_ZSt3minImERKT_S2_S2_
FNL:3,257,265
FNA:3,7,_ZSt3maxIiERKT_S2_S2_
FNA:3,9,_ZSt3maxImERKT_S2_S2_
FNL:4,316,318
FNA:4,27,_ZSt12__niter_baseIP5CoordET_S2_
FNL:5,346,347
FNA:5,0,_ZSt12__niter_wrapIN9__gnu_cxx17__normal_iteratorIP5CoordSt6vectorIS2_SaIS2_EEEES3_ET_S8_T0_
FNL:6,437,438
FNA:6,0,_ZNSt11__copy_moveILb1ELb0ESt26random_access_iterator_tagE12__assign_oneI5CoordS3_EEvPT_PT0_
FNL:7,745,752
FNA:7,0,_ZNSt20__copy_move_backwardILb1ELb0ESt26random_access_iterator_tagE13__copy_move_bIP5CoordS4_EET0_T_S6_S5_
FNL:8,762,771
FNA:8,0,_ZNSt20__copy_move_backwardILb1ELb1ESt26random_access_iterator_tagE13__copy_move_bI5CoordS3_EEPT0_PT_S7_S5_
FNL:9,777,790
FNA:9,0,_ZSt23__copy_move_backward_a2ILb1EP5CoordS1_ET1_T0_S3_S2_
FNL:10,795,796
FNA:10,0,_ZSt23__copy_move_backward_a1ILb1EP5CoordS1_ET1_T0_S3_S2_
FNL:11,823,829
FNA:11,0,_ZSt22__copy_move_backward_aILb1EN9__gnu_cxx17__normal_iteratorIP5CoordSt6vectorIS2_SaIS2_EEEES7_ET1_T0_S9_S8_
FNL:12,913,925
FNA:12,0,_ZSt13move_backwardIN9__gnu_cxx17__normal_iteratorIP5CoordSt6vectorIS2_SaIS2_EEEES7_ET0_T_S9_S8_
FNF:13
FNH:4
DA:155,0
DA:185,0
DA:187,0
DA:233,18
DA:238,18
DA:239,0
DA:240,18
DA:257,16
DA:262,16
DA:263,10
DA:264,6
DA:316,27
DA:318,27
DA:346,0
DA:347,0
DA:437,0
DA:438,0
DA:745,0
DA:748,0
DA:749,0
DA:750,0
DA:751,0
DA:762,0
DA:764,0
DA:765,0
DA:766,0
DA:767,0
DA:769,0
DA:770,0
DA:777,0
DA:781,0
DA:783,0
DA:787,0
DA:789,0
DA:795,0
DA:796,0
DA:823,0
DA:825,0
DA:828,0
DA:913,0
DA:922,0
DA:924,0
DA:1544,3
DA:1547,3
LF:44
LH:11
end_of_record
TN:
SF:/usr/include/c++/14/bits/stl_construct.h
FNL:0,146,153
FNA:0,0,_ZSt8_DestroyI5CoordEvPT_
FNL:1,160,164
FNA:1,0,_ZNSt12_Destroy_auxILb0EE9__destroyIP5CoordEEvT_S4_
FNL:2,172,172
FNA:2,5,_ZNSt12_Destroy_auxILb1EE9__destroyIP5CoordEEvT_S4_
FNL:3,182,197
FNA:3,5,_ZSt8_DestroyIP5CoordEvT_S2_
FNL:4,80,89
FNA:4,0,_ZSt10destroy_atI5CoordEvPT_
FNA:4,5,_ZSt10destroy_atISt4pairIKiSt6vectorI5CoordSaIS3_EEEEvPT_
FNL:5,94,97
FNA:5,9,_ZSt12construct_atI5CoordJS0_EEDTgsnwcvPvLi0E_T_pispcl7declvalIT0_EEEEPS2_DpOS3_
FNA:5,5,_ZSt12construct_atISt4pairIKiSt6vectorI5CoordSaIS3_EEEJRKSt21piecewise_construct_tSt5tupleIJRS1_EESA_IJEEEEDTgsnwcvPvLi0E_T_pispcl7declvalIT0_EEEEPSF_DpOSG_
FNF:6
FNH:4
DA:80,5
DA:88,5
DA:89,5
DA:94,14
DA:97,14
DA:146,0
DA:149,0
DA:153,0
DA:160,0
DA:162,0
DA:163,0
DA:164,0
DA:172,5
DA:182,5
DA:192,5
DA:193,0
DA:196,5
LF:17
LH:9
end_of_record
TN:
SF:/usr/include/c++/14/bits/stl_function.h
FNL:0,374,375
FNA:0,4,_ZNKSt8equal_toIiEclERKiS2_
FNF:1
FNH:1
DA:374,4
DA:375,4
LF:2
LH:2
end_of_record
TN:
SF:/usr/include/c++/14/bits/stl_heap.h
FNL:0,135,147
FNA:0,0,_ZSt11__push_heapIN9__gnu_cxx17__normal_iteratorIP5CoordSt6vectorIS2_SaIS2_EEEElS2_NS0_5__ops14_Iter_comp_valIZ4mainEUlRKS2_SB_E_EEEvT_T0_SF_T1_RT2_
FNL:1,224,249
FNA:1,0,_ZSt13__adjust_heapIN9__gnu_cxx17__normal_iteratorIP5CoordSt6vectorIS2_SaIS2_EEEElS2_NS0_5__ops15_Iter_comp_iterIZ4mainEUlRKS2_SB_E_EEEvT_T0_SF_T1_T2_
FNL:2,254,267
FNA:2,0,_ZSt10__pop_heapIN9__gnu_cxx17__normal_iteratorIP5CoordSt6vectorIS2_SaIS2_EEEENS0_5__ops15_Iter_comp_iterIZ4mainEUlRKS2_SB_E_EEEvT_SE_SE_RT0_
FNL:3,340,362
FNA:3,0,_ZSt11__make_heapIN9__gnu_cxx17__normal_iteratorIP5CoordSt6vectorIS2_SaIS2_EEEENS0_5__ops15_Iter_comp_iterIZ4mainEUlRKS2_SB_E_EEEvT_SE_RT0_
FNL:4,419,427
FNA:4,0,_ZSt11__sort_heapIN9__gnu_cxx17__normal_iteratorIP5CoordSt6vectorIS2_SaIS2_EEEENS0_5__ops15_Iter_comp_iterIZ4mainEUlRKS2_SB_E_EEEvT_SE_RT0_
FNF:5
FNH:0
DA:135,0
DA:139,0
DA:140,0
DA:142,0
DA:143,0
DA:144,0
DA:146,0
DA:147,0
DA:224,0
DA:227,0
DA:228,0
DA:229,0
DA:231,0
DA:232,0
DA:234,0
DA:235,0
DA:236,0
DA:238,0
DA:240,0
DA:241,0
DA:243,0
DA:247,0
DA:248,0
DA:249,0
DA:254,0
DA:262,0
DA:263,0
DA:264,0
DA:265,0
DA:266,0
DA:267,0
DA:340,0
DA:348,0
DA:349,0
DA:351,0
DA:352,0
DA:353,0
DA:355,0
DA:356,0
DA:358,0
DA:359,0
DA:360,0
DA:419,0
DA:422,0
DA:424,0
DA:425,0
DA:427,0
LF:47
LH:0
end_of_record
TN:
SF:/usr/include/c++/14/bits/stl_iterator.h
FNL:0,1067,1068
FNA:0,45,_ZN9__gnu_cxx17__normal_iteratorIP5CoordSt6vectorIS1_SaIS1_EEEC2ERKS2_
FNA:0,0,_ZN9__gnu_cxx17__normal_iteratorIP5CoordvEC2ERKS2_
FNL:1,1090,1091
FNA:1,29,_ZNK9__gnu_cxx17__normal_iteratorIP5CoordSt6vectorIS1_SaIS1_EEEdeEv
FNA:1,0,_ZNK9__gnu_cxx17__normal_iteratorIP5CoordvEdeEv
FNL:2,1100,1104
FNA:2,4,_ZN9__gnu_cxx17__normal_iteratorIP5CoordSt6vectorIS1_SaIS1_EEEppEv
FNA:2,0,_ZN9__gnu_cxx17__normal_iteratorIP5CoordvEppEv
FNL:3,1114,1118
FNA:3,4,_ZN9__gnu_cxx17__normal_iteratorIP5CoordSt6vectorIS1_SaIS1_EEEmmEv
FNL:4,1138,1139
FNA:4,3,_ZNK9__gnu_cxx17__normal_iteratorIP5CoordSt6vectorIS1_SaIS1_EEEplEl
FNL:5,1148,1149
FNA:5,9,_ZNK9__gnu_cxx17__normal_iteratorIP5CoordSt6vectorIS1_SaIS1_EEEmiEl
FNL:6,1153,1154
FNA:6,62,_ZNK9__gnu_cxx17__normal_iteratorIP5CoordSt6vectorIS1_SaIS1_EEE4baseEv
FNA:6,0,_ZNK9__gnu_cxx17__normal_iteratorIP5CoordvE4baseEv
FNL:7,1188,1194
FNA:7,13,_ZN9__gnu_cxxeqIP5CoordSt6vectorIS1_SaIS1_EEEEbRKNS_17__normal_iteratorIT_T0_EESB_QrqXeqcldtfL0p_4baseEcldtfL0p0_4baseERSt14convertible_toIbEE
FNL:8,1199,1202
FNA:8,0,_ZN9__gnu_cxxssIP5CoordSt6vectorIS1_SaIS1_EEEEDTclL_ZNSt8__detail11__synth3wayEEcl7declvalIRT_EEcl7declvalIS8_EEEERKNS_17__normal_iteratorIS7_T0_EESE_
FNL:9,1325,1328
FNA:9,18,_ZN9__gnu_cxxmiIP5CoordSt6vectorIS1_SaIS1_EEEENS_17__normal_iteratorIT_T0_E15difference_typeERKS9_SC_
FNL:10,1348,1350
FNA:10,0,_ZSt12__niter_baseIP5CoordSt6vectorIS0_SaIS0_EEET_N9__gnu_cxx17__normal_iteratorIS5_T0_EE
FNF:11
FNH:9
DA:1067,45
DA:1068,45
DA:1090,29
DA:1091,29
DA:1100,4
DA:1102,4
DA:1103,4
DA:1114,4
DA:1116,4
DA:1117,4
DA:1138,3
DA:1139,3
DA:1148,9
DA:1149,9
DA:1153,62
DA:1154,62
DA:1188,13
DA:1194,13
DA:1199,0
DA:1202,0
DA:1325,18
DA:1328,18
DA:1348,0
DA:1350,0
LF:24
LH:20
end_of_record
TN:
SF:/usr/include/c++/14/bits/stl_pair.h
FNF:0
FNH:0
LF:0
LH:0
end_of_record
TN:
SF:/usr/include/c++/14/bits/stl_uninitialized.h
FNL:0,1067,1077
FNA:0,0,_ZSt19__relocate_object_aI5CoordS0_SaIS0_EEvPT_PT0_RT1_
FNL:1,1089,1106
FNA:1,0,_ZSt14__relocate_a_1IP5CoordN9__gnu_cxx17__normal_iteratorIS1_vEESaIS0_EET0_T_S7_S6_RT1_
FNL:2,1112,1132
FNA:2,9,_ZSt14__relocate_a_1I5CoordS0_ENSt9enable_ifIXsrSt24__is_bitwise_relocatableIT_vE5valueEPS3_E4typeES5_S5_S5_RSaIT0_E
FNL:3,1139,1148
FNA:3,9,_ZSt12__relocate_aIP5CoordS1_SaIS0_EET0_T_S4_S3_RT1_
FNF:4
FNH:2
DA:1067,0
DA:1075,0
DA:1076,0
DA:1077,0
DA:1089,0
DA:1101,0
DA:1102,0
DA:1103,0
DA:1105,0
DA:1112,9
DA:1116,9
DA:1117,9
DA:1120,4
DA:1124,0
DA:1125,0
DA:1126,0
DA:1129,4
DA:1131,9
DA:1139,9
DA:1145,9
DA:1147,9
LF:21
LH:9
end_of_record
TN:
SF:/usr/include/c++/14/bits/stl_vector.h
FNL:0,1128,1132
FNA:0,11,_ZNSt6vectorI5CoordSaIS0_EEixEm
FNL:1,1235,1239
FNA:1,9,_ZNSt6vectorI5CoordSaIS0_EE4backEv
FNL:2,1300,1301
FNA:2,9,_ZNSt6vectorI5CoordSaIS0_EE9push_backEOS0_
FNL:3,136,142
FNA:3,5,_ZNSt12_Vector_baseI5CoordSaIS0_EE12_Vector_implC2EvQ26is_default_constructible_vIN9__gnu_cxx14__alloc_traitsIT0_NS6_10value_typeEE6rebindIT_E5otherEE
FNL:4,1906,1913
FNA:4,9,_ZNKSt6vectorI5CoordSaIS0_EE12_M_check_lenEmPKc
FNL:5,1926,1935
FNA:5,18,_ZNSt6vectorI5CoordSaIS0_EE11_S_max_sizeERKS1_
FNL:6,300,301
FNA:6,14,_ZNSt12_Vector_baseI5CoordSaIS0_EE19_M_get_Tp_allocatorEv
FNL:7,305,306
FNA:7,18,_ZNKSt12_Vector_baseI5CoordSaIS0_EE19_M_get_Tp_allocatorEv
FNL:8,314,314
FNA:8,5,_ZNSt12_Vector_baseI5CoordSaIS0_EEC2Ev
FNL:9,366,370
FNA:9,5,_ZNSt12_Vector_baseI5CoordSaIS0_EED2Ev
FNL:10,377,381
FNA:10,9,_ZNSt12_Vector_baseI5CoordSaIS0_EE11_M_allocateEm
FNL:11,385,390
FNA:11,5,_ZNSt12_Vector_baseI5CoordSaIS0_EE13_M_deallocateEPS0_m
FNL:12,504,514
FNA:12,9,_ZNSt6vectorI5CoordSaIS0_EE11_S_relocateEPS0_S3_S3_RS1_
FNL:13,531,531
FNA:13,5,_ZNSt6vectorI5CoordSaIS0_EEC2Ev
FNL:14,733,738
FNA:14,5,_ZNSt6vectorI5CoordSaIS0_EED2Ev
FNL:15,873,874
FNA:15,12,_ZNSt6vectorI5CoordSaIS0_EE5beginEv
FNL:16,893,894
FNA:16,21,_ZNSt6vectorI5CoordSaIS0_EE3endEv
FNL:17,98,100
FNA:17,5,_ZNSt12_Vector_baseI5CoordSaIS0_EE17_Vector_impl_dataC2Ev
FNL:18,992,993
FNA:18,44,_ZNKSt6vectorI5CoordSaIS0_EE4sizeEv
FNL:19,998,999
FNA:19,18,_ZNKSt6vectorI5CoordSaIS0_EE8max_sizeEv
FNF:20
FNH:20
DA:98,5
DA:99,5
DA:100,5
DA:136,5
DA:141,5
DA:142,5
DA:300,14
DA:301,14
DA:305,18
DA:306,18
DA:314,5
DA:366,5
DA:368,5
DA:369,5
DA:370,5
DA:377,9
DA:380,18
DA:385,5
DA:388,5
DA:389,5
DA:390,5
DA:504,9
DA:509,9
DA:531,5
DA:733,5
DA:735,5
DA:736,5
DA:738,5
DA:873,12
DA:874,12
DA:893,21
DA:894,21
DA:992,44
DA:993,44
DA:998,18
DA:999,18
DA:1128,11
DA:1131,11
DA:1235,9
DA:1238,9
DA:1300,9
DA:1301,9
DA:1906,9
DA:1908,9
DA:1909,0
DA:1911,9
DA:1912,9
DA:1926,18
DA:1931,18
DA:1933,18
DA:1934,18
LF:51
LH:50
end_of_record
TN:
SF:/usr/include/c++/14/bits/unordered_map.h
FNL:0,148,148
FNA:0,1,_ZNSt13unordered_mapIiSt6vectorI5CoordSaIS1_EESt4hashIiESt8equal_toIiESaISt4pairIKiS3_EEEC2Ev
FNL:1,332,333
FNA:1,1,_ZNSt13unordered_mapIiSt6vectorI5CoordSaIS1_EESt4hashIiESt8equal_toIiESaISt4pairIKiS3_EEE5beginEv
FNL:2,354,355
FNA:2,1,_ZNSt13unordered_mapIiSt6vectorI5CoordSaIS1_EESt4hashIiESt8equal_toIiESaISt4pairIKiS3_EEE3endEv
FNL:3,987,988
FNA:3,9,_ZNSt13unordered_mapIiSt6vectorI5CoordSaIS1_EESt4hashIiESt8equal_toIiESaISt4pairIKiS3_EEEixERS9_
FNF:4
FNH:4
DA:148,1
DA:332,1
DA:333,1
DA:354,1
DA:355,1
DA:987,9
DA:988,9
LF:7
LH:7
end_of_record
TN:
SF:/usr/include/c++/14/bits/vector.tcc
FNL:0,111,127
FNA:0,9,_ZNSt6vectorI5CoordSaIS0_EE12emplace_backIJS0_EEERS0_DpOT_
FNL:1,581,695
FNA:1,9,_ZNSt6vectorI5CoordSaIS0_EE17_M_realloc_appendIJS0_EEEvDpOT_
FNL:2,607,609
FNA:2,9,_ZZNSt6vectorI5CoordSaIS0_EE17_M_realloc_appendIJS0_EEEvDpOT_EN6_GuardC2EPS0_mRS1_
FNL:3,612,617
FNA:3,9,_ZZNSt6vectorI5CoordSaIS0_EE17_M_realloc_appendIJS0_EEEvDpOT_EN6_GuardD2Ev
FNF:4
FNH:4
DA:111,9
DA:114,9
DA:117,0
DA:119,0
DA:123,9
DA:125,9
DA:581,9
DA:590,9
DA:591,9
DA:592,0
DA:593,9
DA:594,9
DA:595,9
DA:596,9
DA:597,9
DA:607,9
DA:608,9
DA:609,9
DA:612,9
DA:614,9
DA:616,4
DA:617,9
DA:624,9
DA:634,18
DA:635,9
DA:647,9
DA:648,9
DA:649,9
DA:686,9
DA:687,9
DA:688,9
DA:692,9
DA:693,9
DA:694,9
DA:695,9
LF:35
LH:32
end_of_record
TN:
SF:/usr/include/c++/14/compare
FNL:0,1224,1243
FNA:0,0,_ZNKSt8__detail10_Synth3wayclIP5CoordS3_EEDaRKT_RKT0_QrqXltfL0p_fL0p0_RNS_18__boolean_testableEXltfL0p0_fL0p_RNS_18__boolean_testableEE
FNL:1,291,292
FNA:1,0,_ZStltSt15strong_orderingNSt9__cmp_cat8__unspecE
FNF:2
FNH:0
DA:291,0
DA:292,0
DA:1224,0
DA:1233,0
LF:4
LH:0
end_of_record
TN:
SF:/usr/include/c++/14/ext/aligned_buffer.h
FNL:0,104,107
FNA:0,24,_ZN9__gnu_cxx16__aligned_bufferISt4pairIKiSt6vectorI5CoordSaIS4_EEEE7_M_addrEv
FNL:1,110,113
FNA:1,8,_ZNK9__gnu_cxx16__aligned_bufferISt4pairIKiSt6vectorI5CoordSaIS4_EEEE7_M_addrEv
FNL:2,116,117
FNA:2,24,_ZN9__gnu_cxx16__aligned_bufferISt4pairIKiSt6vectorI5CoordSaIS4_EEEE6_M_ptrEv
FNL:3,120,121
FNA:3,8,_ZNK9__gnu_cxx16__aligned_bufferISt4pairIKiSt6vectorI5CoordSaIS4_EEEE6_M_ptrEv
FNF:4
FNH:4
DA:104,24
DA:106,24
DA:110,8
DA:112,8
DA:116,24
DA:117,24
DA:120,8
DA:121,8
LF:8
LH:8
end_of_record
TN:
SF:/usr/include/c++/14/new
FNL:0,179,180
FNA:0,19,_ZnwmPv
FNL:1,185,185
FNA:1,0,_ZdlPvS_
FNF:2
FNH:1
DA:179,19
DA:180,19
DA:185,0
LF:3
LH:2
end_of_record
TN:
SF:/usr/include/c++/14/tuple
FNL:0,201,202
FNA:0,5,_ZNSt10_Head_baseILm0ERKiLb0EEC2ES1_
FNL:1,242,242
FNA:1,5,_ZNSt10_Head_baseILm0ERKiLb0EE7_M_headERS2_
FNL:2,2427,2428
FNA:2,5,_ZSt12__get_helperILm0ERKiJEERT0_RSt11_Tuple_implIXT_EJS2_DpT1_EE
FNL:3,2443,2444
FNA:3,5,_ZSt3getILm0EJRKiEERNSt13tuple_elementIXT_ESt5tupleIJDpT0_EEE4typeERS6_
FNL:4,2872,2878
FNA:4,5,_ZNSt4pairIKiSt6vectorI5CoordSaIS2_EEEC2IJRS0_EJEEESt21piecewise_construct_tSt5tupleIJDpT_EES9_IJDpT0_EE
FNL:5,2884,2889
FNA:5,5,_ZNSt4pairIKiSt6vectorI5CoordSaIS2_EEEC2IJRS0_EJLm0EEJEJEEERSt5tupleIJDpT_EERS8_IJDpT1_EESt12_Index_tupleIJXspT0_EEESH_IJXspT2_EEE
FNL:6,556,556
FNA:6,5,_ZNSt11_Tuple_implILm0EJRKiEE7_M_headERS2_
FNL:7,566,568
FNA:7,5,_ZNSt11_Tuple_implILm0EJRKiEEC2ES1_
FNL:8,586,589
FNA:8,5,_ZNSt11_Tuple_implILm0EJRKiEEC2EOS2_
FNL:9,971,975
FNA:9,5,_ZNSt5tupleIJRKiEEC2ES1_Qcl15__constructibleIDpRKT_EE
FNL:10,995,995
FNA:10,5,_ZNSt5tupleIJRKiEEC2EOS2_
FNF:11
FNH:11
DA:201,5
DA:202,5
DA:242,5
DA:556,5
DA:566,5
DA:567,5
DA:568,5
DA:586,5
DA:588,5
DA:589,5
DA:971,5
DA:974,5
DA:975,5
DA:995,5
DA:2427,5
DA:2428,5
DA:2443,5
DA:2444,5
DA:2872,5
DA:2877,5
DA:2878,5
DA:2884,5
DA:2887,5
DA:2888,5
DA:2889,5
LF:25
LH:25
end_of_record
TN:
SF:/usr/include/c++/14/type_traits
FNL:0,3832,3839
FNA:0,4,_ZSt21is_constant_evaluatedv
FNF:1
FNH:1
DA:3832,4
DA:3835,4
LF:2
LH:2
end_of_record
TN:
SF:/usr/include/c++/14/x86_64-redhat-linux/bits/c++config.h
FNF:0
FNH:0
DA:2394,35
LF:1
LH:1
end_of_record
