TN:
SF:/home/monika/Documents/problems/12867번： N차원 여행/N-Dimension.cpp
FN:20,70,main
FN:9,18,_Z13stateToStringB5cxx11RKSt3mapIiiSt4lessIiESaISt4pairIKiiEEE
FNDA:8,main
FNDA:16,_Z13stateToStringB5cxx11RKSt3mapIiiSt4lessIiESaISt4pairIKiiEEE
FNF:2
FNH:2
DA:9,16
DA:11,16
DA:12,24
DA:14,8
DA:17,32
DA:18,16
DA:20,8
DA:22,8
DA:23,8
DA:25,8
DA:26,8
DA:27,8
DA:28,8
DA:29,16
DA:31,8
DA:34,8
DA:35,8
DA:37,8
DA:38,8
DA:39,8
DA:41,8
DA:43,16
DA:44,16
DA:46,8
DA:47,8
DA:49,8
DA:53,0
DA:54,0
DA:55,0
DA:57,8
DA:58,8
DA:60,0
DA:61,0
DA:64,8
DA:67,8
DA:68,8
DA:69,8
DA:70,16
LF:38
LH:33
end_of_record
TN:
SF:/usr/include/c++/14/bits/alloc_traits.h
FNF:0
FNH:0
DA:514,32
DA:515,24
DA:549,32
DA:550,32
DA:566,24
DA:577,24
DA:581,16
DA:593,16
DA:599,16
DA:626,16
DA:627,16
LF:11
LH:11
end_of_record
TN:
SF:/usr/include/c++/14/bits/allocator.h
FNF:0
FNH:0
DA:161,8
DA:165,16
DA:176,16
DA:182,72
DA:187,24
DA:196,32
DA:201,32
DA:208,32
LF:8
LH:8
end_of_record
TN:
SF:/usr/include/c++/14/bits/basic_ios.h
FNF:0
FNH:0
DA:311,8
DA:313,8
DA:314,8
LF:3
LH:3
end_of_record
TN:
SF:/usr/include/c++/14/bits/basic_string.h
FN:1728,1744,_ZNSt7__cxx1112basic_stringIcSt11char_traitsIcESaIcEE6assignIPcvEERS4_T_S8_
FN:285,289,_ZNSt7__cxx1112basic_stringIcSt11char_traitsIcESaIcEE10_M_disposeEv
FN:3755,3761,_ZSteqIcSt11char_traitsIcESaIcEEbRKNSt7__cxx1112basic_stringIT_T0_T1_EESA_
FN:430,436,_ZNSt7__cxx1112basic_stringIcSt11char_traitsIcESaIcEE7_S_copyEPcPKcm
FN:440,446,_ZNSt7__cxx1112basic_stringIcSt11char_traitsIcESaIcEE7_S_moveEPcPKcm
FN:552,558,_ZNSt7__cxx1112basic_stringIcSt11char_traitsIcESaIcEEC2ERKS4_
FN:858,918,_ZNSt7__cxx1112basic_stringIcSt11char_traitsIcESaIcEEaSEOS4_
FNDA:8,_ZNSt7__cxx1112basic_stringIcSt11char_traitsIcESaIcEE6assignIPcvEERS4_T_S8_
FNDA:56,_ZNSt7__cxx1112basic_stringIcSt11char_traitsIcESaIcEE10_M_disposeEv
FNDA:16,_ZSteqIcSt11char_traitsIcESaIcEEbRKNSt7__cxx1112basic_stringIT_T0_T1_EESA_
FNDA:32,_ZNSt7__cxx1112basic_stringIcSt11char_traitsIcESaIcEE7_S_copyEPcPKcm
FNDA:0,_ZNSt7__cxx1112basic_stringIcSt11char_traitsIcESaIcEE7_S_moveEPcPKcm
FNDA:16,_ZNSt7__cxx1112basic_stringIcSt11char_traitsIcESaIcEEC2ERKS4_
FNDA:8,_ZNSt7__cxx1112basic_stringIcSt11char_traitsIcESaIcEEaSEOS4_
FNF:7
FNH:6
DA:129,0
DA:131,0
DA:186,40
DA:197,24
DA:198,24
DA:217,0
DA:218,0
DA:222,56
DA:223,56
DA:227,192
DA:228,16
DA:232,24
DA:235,16
DA:243,88
DA:246,88
DA:254,0
DA:255,0
DA:259,56
DA:261,56
DA:262,8
DA:263,16
DA:267,88
DA:269,88
DA:271,88
DA:272,0
DA:285,56
DA:287,56
DA:288,0
DA:289,56
DA:293,0
DA:294,0
DA:342,0
DA:346,16
DA:347,16
DA:353,8
DA:368,0
DA:370,0
DA:402,8
DA:404,8
DA:405,0
DA:420,8
DA:422,8
DA:423,8
DA:430,32
DA:432,32
DA:433,0
DA:435,32
DA:436,32
DA:440,0
DA:442,0
DA:443,0
DA:445,0
DA:446,0
DA:482,16
DA:483,16
DA:527,8
DA:529,8
DA:531,8
DA:532,8
DA:552,16
DA:553,16
DA:554,16
DA:556,16
DA:558,16
DA:808,40
DA:809,40
DA:858,8
DA:861,8
DA:863,8
DA:872,8
DA:874,8
DA:879,8
DA:881,8
DA:882,8
DA:883,8
DA:889,0
DA:891,0
DA:896,0
DA:897,0
DA:903,0
DA:904,0
DA:905,0
DA:906,0
DA:908,0
DA:909,0
DA:912,0
DA:916,8
DA:917,8
DA:1076,40
DA:1077,16
DA:1083,40
DA:1084,24
DA:1180,16
DA:1182,16
DA:1222,8
DA:1223,8
DA:1265,8
DA:1269,8
DA:1272,8
DA:1728,8
DA:1739,8
DA:1740,8
DA:2653,16
DA:2654,16
DA:3755,16
DA:3759,16
DA:3760,16
DA:4616,16
DA:4617,16
LF:109
LH:78
end_of_record
TN:
SF:/usr/include/c++/14/bits/basic_string.tcc
FN:138,160,_ZNSt7__cxx1112basic_stringIcSt11char_traitsIcESaIcEE9_M_createERmm
FN:221,252,_ZNSt7__cxx1112basic_stringIcSt11char_traitsIcESaIcEE12_M_constructIPcEEvT_S7_St20forward_iterator_tag
FN:277,299,_ZNSt7__cxx1112basic_stringIcSt11char_traitsIcESaIcEE9_M_assignERKS4_
FN:325,345,_ZNSt7__cxx1112basic_stringIcSt11char_traitsIcESaIcEE9_M_mutateEmmPKcm
FN:511,552,_ZNSt7__cxx1112basic_stringIcSt11char_traitsIcESaIcEE10_M_replaceEmmPKcm
FNDA:0,_ZNSt7__cxx1112basic_stringIcSt11char_traitsIcESaIcEE9_M_createERmm
FNDA:16,_ZNSt7__cxx1112basic_stringIcSt11char_traitsIcESaIcEE12_M_constructIPcEEvT_S7_St20forward_iterator_tag
FNDA:8,_ZNSt7__cxx1112basic_stringIcSt11char_traitsIcESaIcEE9_M_assignERKS4_
FNDA:0,_ZNSt7__cxx1112basic_stringIcSt11char_traitsIcESaIcEE9_M_mutateEmmPKcm
FNDA:8,_ZNSt7__cxx1112basic_stringIcSt11char_traitsIcESaIcEE10_M_replaceEmmPKcm
FNF:5
FNH:3
DA:138,0
DA:143,0
DA:144,0
DA:149,0
DA:151,0
DA:153,0
DA:154,0
DA:159,0
DA:221,16
DA:225,16
DA:227,16
DA:229,0
DA:230,0
DA:239,16
DA:242,16
DA:245,16
DA:247,16
DA:249,16
DA:251,16
DA:252,16
DA:277,8
DA:280,8
DA:282,8
DA:283,8
DA:285,8
DA:287,0
DA:288,0
DA:289,0
DA:290,0
DA:291,0
DA:294,8
DA:295,0
DA:297,8
DA:299,8
DA:325,0
DA:329,0
DA:331,0
DA:332,0
DA:334,0
DA:335,0
DA:336,0
DA:337,0
DA:338,0
DA:339,0
DA:340,0
DA:342,0
DA:343,0
DA:344,0
DA:345,0
DA:511,8
DA:515,8
DA:517,8
DA:518,8
DA:520,8
DA:522,8
DA:524,8
DA:537,8
DA:539,8
DA:540,0
DA:541,8
DA:542,8
DA:545,0
DA:548,0
DA:550,8
DA:551,8
LF:65
LH:31
end_of_record
TN:
SF:/usr/include/c++/14/bits/char_traits.h
FNF:0
FNH:0
DA:343,56
DA:346,56
DA:350,24
DA:351,0
DA:366,0
DA:368,0
DA:371,0
DA:381,0
DA:407,0
DA:409,0
DA:412,0
DA:415,0
DA:419,32
DA:421,32
DA:424,24
DA:427,24
LF:16
LH:7
end_of_record
TN:
SF:/usr/include/c++/14/bits/functional_hash.h
FNF:0
FNH:0
DA:204,16
DA:206,16
LF:2
LH:2
end_of_record
TN:
SF:/usr/include/c++/14/bits/hashtable.h
FN:1727,1743,_ZNSt10_HashtableINSt7__cxx1112basic_stringIcSt11char_traitsIcESaIcEEES5_SaIS5_ENSt8__detail9_IdentityESt8equal_toIS5_ESt4hashIS5_ENS7_18_Mod_range_hashingENS7_20_Default_ranged_hashENS7_20_Prime_rehash_policyENS7_17_Hashtable_traitsILb1ELb1ELb1EEEE4findERKS5_
FN:2065,2087,_ZNKSt10_HashtableINSt7__cxx1112basic_stringIcSt11char_traitsIcESaIcEEES5_SaIS5_ENSt8__detail9_IdentityESt8equal_toIS5_ESt4hashIS5_ENS7_18_Mod_range_hashingENS7_20_Default_ranged_hashENS7_20_Prime_rehash_policyENS7_17_Hashtable_traitsILb1ELb1ELb1EEEE19_M_find_before_nodeEmRKS5_m
FN:2095,2117,_ZNKSt10_HashtableINSt7__cxx1112basic_stringIcSt11char_traitsIcESaIcEEES5_SaIS5_ENSt8__detail9_IdentityESt8equal_toIS5_ESt4hashIS5_ENS7_18_Mod_range_hashingENS7_20_Default_ranged_hashENS7_20_Prime_rehash_policyENS7_17_Hashtable_traitsILb1ELb1ELb1EEEE22_M_find_before_node_trIS5_EEPNS7_15_Hash_node_baseEmRKT_m
FN:2228,2252,_ZNSt10_HashtableINSt7__cxx1112basic_stringIcSt11char_traitsIcESaIcEEES5_SaIS5_ENSt8__detail9_IdentityESt8equal_toIS5_ESt4hashIS5_ENS7_18_Mod_range_hashingENS7_20_Default_ranged_hashENS7_20_Prime_rehash_policyENS7_17_Hashtable_traitsILb1ELb1ELb1EEEE21_M_insert_unique_nodeEmmPNS7_10_Hash_nodeIS5_Lb1EEEm
FN:2317,2346,_ZNSt10_HashtableINSt7__cxx1112basic_stringIcSt11char_traitsIcESaIcEEES5_SaIS5_ENSt8__detail9_IdentityESt8equal_toIS5_ESt4hashIS5_ENS7_18_Mod_range_hashingENS7_20_Default_ranged_hashENS7_20_Prime_rehash_policyENS7_17_Hashtable_traitsILb1ELb1ELb1EEEE16_M_insert_uniqueIRKS5_SL_NS7_10_AllocNodeISaINS7_10_Hash_nodeIS5_Lb1EEEEEEEESt4pairINS7_14_Node_iteratorIS5_Lb1ELb1EEEbEOT_OT0_RKT1_
FN:2584,2593,_ZNSt10_HashtableINSt7__cxx1112basic_stringIcSt11char_traitsIcESaIcEEES5_SaIS5_ENSt8__detail9_IdentityESt8equal_toIS5_ESt4hashIS5_ENS7_18_Mod_range_hashingENS7_20_Default_ranged_hashENS7_20_Prime_rehash_policyENS7_17_Hashtable_traitsILb1ELb1ELb1EEEE5clearEv
FN:2623,2657,_ZNSt10_HashtableINSt7__cxx1112basic_stringIcSt11char_traitsIcESaIcEEES5_SaIS5_ENSt8__detail9_IdentityESt8equal_toIS5_ESt4hashIS5_ENS7_18_Mod_range_hashingENS7_20_Default_ranged_hashENS7_20_Prime_rehash_policyENS7_17_Hashtable_traitsILb1ELb1ELb1EEEE9_M_rehashEmSt17integral_constantIbLb1EE
FN:316,316,_ZNSt10_HashtableINSt7__cxx1112basic_stringIcSt11char_traitsIcESaIcEEES5_SaIS5_ENSt8__detail9_IdentityESt8equal_toIS5_ESt4hashIS5_ENS7_18_Mod_range_hashingENS7_20_Default_ranged_hashENS7_20_Prime_rehash_policyENS7_17_Hashtable_traitsILb1ELb1ELb1EEEE12_Scoped_nodeD2Ev
FN:460,461,_ZNSt10_HashtableINSt7__cxx1112basic_stringIcSt11char_traitsIcESaIcEEES5_SaIS5_ENSt8__detail9_IdentityESt8equal_toIS5_ESt4hashIS5_ENS7_18_Mod_range_hashingENS7_20_Default_ranged_hashENS7_20_Prime_rehash_policyENS7_17_Hashtable_traitsILb1ELb1ELb1EEEE21_M_deallocate_bucketsEv
FN:841,865,_ZNSt10_HashtableINSt7__cxx1112basic_stringIcSt11char_traitsIcESaIcEEES5_SaIS5_ENSt8__detail9_IdentityESt8equal_toIS5_ESt4hashIS5_ENS7_18_Mod_range_hashingENS7_20_Default_ranged_hashENS7_20_Prime_rehash_policyENS7_17_Hashtable_traitsILb1ELb1ELb1EEEE22_M_insert_bucket_beginEmPNS7_10_Hash_nodeIS5_Lb1EEE
FNDA:8,_ZNSt10_HashtableINSt7__cxx1112basic_stringIcSt11char_traitsIcESaIcEEES5_SaIS5_ENSt8__detail9_IdentityESt8equal_toIS5_ESt4hashIS5_ENS7_18_Mod_range_hashingENS7_20_Default_ranged_hashENS7_20_Prime_rehash_policyENS7_17_Hashtable_traitsILb1ELb1ELb1EEEE4findERKS5_
FNDA:0,_ZNKSt10_HashtableINSt7__cxx1112basic_stringIcSt11char_traitsIcESaIcEEES5_SaIS5_ENSt8__detail9_IdentityESt8equal_toIS5_ESt4hashIS5_ENS7_18_Mod_range_hashingENS7_20_Default_ranged_hashENS7_20_Prime_rehash_policyENS7_17_Hashtable_traitsILb1ELb1ELb1EEEE19_M_find_before_nodeEmRKS5_m
FNDA:0,_ZNKSt10_HashtableINSt7__cxx1112basic_stringIcSt11char_traitsIcESaIcEEES5_SaIS5_ENSt8__detail9_IdentityESt8equal_toIS5_ESt4hashIS5_ENS7_18_Mod_range_hashingENS7_20_Default_ranged_hashENS7_20_Prime_rehash_policyENS7_17_Hashtable_traitsILb1ELb1ELb1EEEE22_M_find_before_node_trIS5_EEPNS7_15_Hash_node_baseEmRKT_m
FNDA:16,_ZNSt10_HashtableINSt7__cxx1112basic_stringIcSt11char_traitsIcESaIcEEES5_SaIS5_ENSt8__detail9_IdentityESt8equal_toIS5_ESt4hashIS5_ENS7_18_Mod_range_hashingENS7_20_Default_ranged_hashENS7_20_Prime_rehash_policyENS7_17_Hashtable_traitsILb1ELb1ELb1EEEE21_M_insert_unique_nodeEmmPNS7_10_Hash_nodeIS5_Lb1EEEm
FNDA:16,_ZNSt10_HashtableINSt7__cxx1112basic_stringIcSt11char_traitsIcESaIcEEES5_SaIS5_ENSt8__detail9_IdentityESt8equal_toIS5_ESt4hashIS5_ENS7_18_Mod_range_hashingENS7_20_Default_ranged_hashENS7_20_Prime_rehash_policyENS7_17_Hashtable_traitsILb1ELb1ELb1EEEE16_M_insert_uniqueIRKS5_SL_NS7_10_AllocNodeISaINS7_10_Hash_nodeIS5_Lb1EEEEEEEESt4pairINS7_14_Node_iteratorIS5_Lb1ELb1EEEbEOT_OT0_RKT1_
FNDA:8,_ZNSt10_HashtableINSt7__cxx1112basic_stringIcSt11char_traitsIcESaIcEEES5_SaIS5_ENSt8__detail9_IdentityESt8equal_toIS5_ESt4hashIS5_ENS7_18_Mod_range_hashingENS7_20_Default_ranged_hashENS7_20_Prime_rehash_policyENS7_17_Hashtable_traitsILb1ELb1ELb1EEEE5clearEv
FNDA:8,_ZNSt10_HashtableINSt7__cxx1112basic_stringIcSt11char_traitsIcESaIcEEES5_SaIS5_ENSt8__detail9_IdentityESt8equal_toIS5_ESt4hashIS5_ENS7_18_Mod_range_hashingENS7_20_Default_ranged_hashENS7_20_Prime_rehash_policyENS7_17_Hashtable_traitsILb1ELb1ELb1EEEE9_M_rehashEmSt17integral_constantIbLb1EE
FNDA:16,_ZNSt10_HashtableINSt7__cxx1112basic_stringIcSt11char_traitsIcESaIcEEES5_SaIS5_ENSt8__detail9_IdentityESt8equal_toIS5_ESt4hashIS5_ENS7_18_Mod_range_hashingENS7_20_Default_ranged_hashENS7_20_Prime_rehash_policyENS7_17_Hashtable_traitsILb1ELb1ELb1EEEE12_Scoped_nodeD2Ev
FNDA:16,_ZNSt10_HashtableINSt7__cxx1112basic_stringIcSt11char_traitsIcESaIcEEES5_SaIS5_ENSt8__detail9_IdentityESt8equal_toIS5_ESt4hashIS5_ENS7_18_Mod_range_hashingENS7_20_Default_ranged_hashENS7_20_Prime_rehash_policyENS7_17_Hashtable_traitsILb1ELb1ELb1EEEE21_M_deallocate_bucketsEv
FNDA:16,_ZNSt10_HashtableINSt7__cxx1112basic_stringIcSt11char_traitsIcESaIcEEES5_SaIS5_ENSt8__detail9_IdentityESt8equal_toIS5_ESt4hashIS5_ENS7_18_Mod_range_hashingENS7_20_Default_ranged_hashENS7_20_Prime_rehash_policyENS7_17_Hashtable_traitsILb1ELb1ELb1EEEE22_M_insert_bucket_beginEmPNS7_10_Hash_nodeIS5_Lb1EEE
FNF:10
FNH:8
DA:305,16
DA:306,16
DA:316,16
DA:421,16
DA:422,16
DA:439,8
DA:441,8
DA:443,0
DA:444,0
DA:447,8
DA:451,16
DA:453,16
DA:456,8
DA:460,16
DA:461,16
DA:473,40
DA:474,40
DA:539,8
DA:640,16
DA:641,8
DA:656,24
DA:657,24
DA:799,0
DA:800,0
DA:803,24
DA:804,8
DA:819,0
DA:822,0
DA:823,0
DA:824,0
DA:830,0
DA:833,0
DA:834,0
DA:835,0
DA:841,16
DA:843,16
DA:847,8
DA:848,8
DA:855,8
DA:856,8
DA:858,8
DA:861,0
DA:863,8
DA:865,16
DA:945,16
DA:947,16
DA:954,16
DA:959,16
DA:1658,8
DA:1671,8
DA:1672,8
DA:1673,8
DA:1727,8
DA:1732,8
DA:1734,16
DA:1735,8
DA:1736,0
DA:1737,8
DA:1740,0
DA:1741,0
DA:1742,0
DA:2065,0
DA:2071,0
DA:2072,0
DA:2075,0
DA:2078,0
DA:2081,0
DA:2095,0
DA:2101,0
DA:2102,0
DA:2105,0
DA:2108,0
DA:2111,0
DA:2228,16
DA:2234,16
DA:2236,16
DA:2239,16
DA:2241,8
DA:2242,8
DA:2245,16
DA:2246,16
DA:2249,16
DA:2250,16
DA:2251,16
DA:2252,16
DA:2317,16
DA:2323,16
DA:2324,16
DA:2325,24
DA:2326,8
DA:2327,0
DA:2329,16
DA:2330,16
DA:2332,16
DA:2333,16
DA:2334,0
DA:2336,16
DA:2343,16
DA:2344,16
DA:2345,16
DA:2346,16
DA:2584,8
DA:2588,8
DA:2589,8
DA:2590,8
DA:2591,8
DA:2592,8
DA:2593,8
DA:2623,8
DA:2627,8
DA:2628,8
DA:2629,8
DA:2630,8
DA:2631,8
DA:2633,0
DA:2635,0
DA:2636,0
DA:2638,0
DA:2639,0
DA:2640,0
DA:2641,0
DA:2642,0
DA:2647,0
DA:2648,0
DA:2654,8
DA:2655,8
DA:2656,8
DA:2657,8
LF:128
LH:87
end_of_record
TN:
SF:/usr/include/c++/14/bits/hashtable_policy.h
FN:2017,2036,_ZNSt8__detail16_Hashtable_allocISaINS_10_Hash_nodeINSt7__cxx1112basic_stringIcSt11char_traitsIcESaIcEEELb1EEEEE16_M_allocate_nodeIJRKS7_EEEPS8_DpOT_
FN:2058,2066,_ZNSt8__detail16_Hashtable_allocISaINS_10_Hash_nodeINSt7__cxx1112basic_stringIcSt11char_traitsIcESaIcEEELb1EEEEE19_M_deallocate_nodesEPS8_
FN:2070,2079,_ZNSt8__detail16_Hashtable_allocISaINS_10_Hash_nodeINSt7__cxx1112basic_stringIcSt11char_traitsIcESaIcEEELb1EEEEE19_M_allocate_bucketsEm
FN:954,959,_ZNSt8__detail12_Insert_baseINSt7__cxx1112basic_stringIcSt11char_traitsIcESaIcEEES6_SaIS6_ENS_9_IdentityESt8equal_toIS6_ESt4hashIS6_ENS_18_Mod_range_hashingENS_20_Default_ranged_hashENS_20_Prime_rehash_policyENS_17_Hashtable_traitsILb1ELb1ELb1EEEE6insertERKS6_
FNDA:16,_ZNSt8__detail16_Hashtable_allocISaINS_10_Hash_nodeINSt7__cxx1112basic_stringIcSt11char_traitsIcESaIcEEELb1EEEEE16_M_allocate_nodeIJRKS7_EEEPS8_DpOT_
FNDA:8,_ZNSt8__detail16_Hashtable_allocISaINS_10_Hash_nodeINSt7__cxx1112basic_stringIcSt11char_traitsIcESaIcEEELb1EEEEE19_M_deallocate_nodesEPS8_
FNDA:8,_ZNSt8__detail16_Hashtable_allocISaINS_10_Hash_nodeINSt7__cxx1112basic_stringIcSt11char_traitsIcESaIcEEELb1EEEEE19_M_allocate_bucketsEm
FNDA:16,_ZNSt8__detail12_Insert_baseINSt7__cxx1112basic_stringIcSt11char_traitsIcESaIcEEES6_SaIS6_ENS_9_IdentityESt8equal_toIS6_ESt4hashIS6_ENS_18_Mod_range_hashingENS_20_Default_ranged_hashENS_20_Prime_rehash_policyENS_17_Hashtable_traitsILb1ELb1ELb1EEEE6insertERKS6_
FNF:4
FNH:4
DA:171,16
DA:173,16
DA:248,16
DA:249,16
DA:253,16
DA:254,16
DA:319,24
DA:338,32
DA:339,32
DA:343,16
DA:344,16
DA:353,16
DA:354,16
DA:381,16
DA:386,32
DA:387,16
DA:399,32
DA:442,32
DA:443,32
DA:532,24
DA:534,24
DA:550,8
DA:551,8
DA:577,16
DA:578,16
DA:585,0
DA:586,0
DA:730,16
DA:731,16
DA:732,16
DA:736,16
DA:739,0
DA:954,16
DA:956,16
DA:957,16
DA:958,16
DA:1242,8
DA:1245,8
DA:1328,8
DA:1333,0
DA:1337,0
DA:1342,16
DA:1346,16
DA:1358,24
DA:1359,24
DA:1373,0
DA:1377,0
DA:1389,16
DA:1390,16
DA:1719,0
DA:1720,0
DA:1728,8
DA:1735,0
DA:1742,8
DA:1747,8
DA:1755,8
DA:1759,0
DA:1761,0
DA:1765,0
DA:1768,0
DA:1942,8
DA:1970,8
DA:2017,16
DA:2020,16
DA:2021,16
DA:2022,16
DA:2025,16
DA:2026,16
DA:2028,16
DA:2030,0
DA:2032,0
DA:2033,0
DA:2034,0
DA:2040,16
DA:2042,0
DA:2043,0
DA:2044,16
DA:2048,16
DA:2051,16
DA:2052,16
DA:2053,16
DA:2058,8
DA:2060,24
DA:2062,16
DA:2063,16
DA:2064,16
DA:2066,8
DA:2070,8
DA:2073,8
DA:2075,8
DA:2076,8
DA:2077,8
DA:2078,8
DA:2083,8
DA:2088,8
DA:2089,8
DA:2090,8
DA:2091,8
LF:98
LH:78
end_of_record
TN:
SF:/usr/include/c++/14/bits/new_allocator.h
FN:126,152,_ZNSt15__new_allocatorIPNSt8__detail15_Hash_node_baseEE8allocateEmPKv
FNDA:8,_ZNSt15__new_allocatorIPNSt8__detail15_Hash_node_baseEE8allocateEmPKv
FNF:1
FNH:1
DA:126,32
DA:134,8
DA:138,0
DA:139,0
DA:140,0
DA:151,32
DA:156,32
DA:172,32
LF:8
LH:5
end_of_record
TN:
SF:/usr/include/c++/14/bits/stl_construct.h
FNF:0
FNH:0
DA:80,16
DA:88,16
DA:94,24
DA:97,24
LF:4
LH:4
end_of_record
TN:
SF:/usr/include/c++/14/bits/stl_function.h
FNF:0
FNH:0
DA:374,16
DA:375,16
DA:404,0
DA:405,0
DA:448,8
DA:454,8
DA:1179,8
DA:1180,8
LF:8
LH:6
end_of_record
TN:
SF:/usr/include/c++/14/bits/stl_iterator_base_funcs.h
FNF:0
FNH:0
DA:100,16
DA:106,16
DA:148,16
DA:151,16
LF:4
LH:4
end_of_record
TN:
SF:/usr/include/c++/14/bits/stl_map.h
FN:504,520,_ZNSt3mapIiiSt4lessIiESaISt4pairIKiiEEEixERS3_
FNDA:8,_ZNSt3mapIiiSt4lessIiESaISt4pairIKiiEEEixERS3_
FNF:1
FNH:1
DA:197,8
DA:314,8
DA:377,16
DA:378,16
DA:386,8
DA:387,8
DA:395,16
DA:396,16
DA:504,8
DA:509,8
DA:511,8
DA:513,8
DA:514,8
DA:515,8
DA:519,8
DA:1117,0
DA:1118,0
DA:1307,8
DA:1308,16
LF:19
LH:17
end_of_record
TN:
SF:/usr/include/c++/14/bits/stl_pair.h
FNF:0
FNH:0
DA:428,0
DA:442,8
DA:444,16
DA:492,8
DA:494,8
LF:5
LH:4
end_of_record
TN:
SF:/usr/include/c++/14/bits/stl_tree.h
FN:1249,1253,_ZNSt8_Rb_treeIiSt4pairIKiiESt10_Select1stIS2_ESt4lessIiESaIS2_EE5clearEv
FN:1636,1640,_ZNSt8_Rb_treeIiSt4pairIKiiESt10_Select1stIS2_ESt4lessIiESaIS2_EE10_Auto_nodeD2Ev
FN:1651,1656,_ZNSt8_Rb_treeIiSt4pairIKiiESt10_Select1stIS2_ESt4lessIiESaIS2_EE10_Auto_node9_M_insertES0_IPSt18_Rb_tree_node_baseSB_E
FN:1926,1937,_ZNSt8_Rb_treeIiSt4pairIKiiESt10_Select1stIS2_ESt4lessIiESaIS2_EE8_M_eraseEPSt13_Rb_tree_nodeIS2_E
FN:2009,2033,_ZNSt8_Rb_treeIiSt4pairIKiiESt10_Select1stIS2_ESt4lessIiESaIS2_EE11equal_rangeERS1_
FN:2104,2128,_ZNSt8_Rb_treeIiSt4pairIKiiESt10_Select1stIS2_ESt4lessIiESaIS2_EE24_M_get_insert_unique_posERS1_
FN:2206,2257,_ZNSt8_Rb_treeIiSt4pairIKiiESt10_Select1stIS2_ESt4lessIiESaIS2_EE29_M_get_insert_hint_unique_posESt23_Rb_tree_const_iteratorIS2_ERS1_
FN:2373,2385,_ZNSt8_Rb_treeIiSt4pairIKiiESt10_Select1stIS2_ESt4lessIiESaIS2_EE14_M_insert_nodeEPSt18_Rb_tree_node_baseSA_PSt13_Rb_tree_nodeIS2_E
FN:2454,2463,_ZNSt8_Rb_treeIiSt4pairIKiiESt10_Select1stIS2_ESt4lessIiESaIS2_EE22_M_emplace_hint_uniqueIJRKSt21piecewise_construct_tSt5tupleIJRS1_EESD_IJEEEEESt17_Rb_tree_iteratorIS2_ESt23_Rb_tree_const_iteratorIS2_EDpOT_
FN:2485,2494,_ZNSt8_Rb_treeIiSt4pairIKiiESt10_Select1stIS2_ESt4lessIiESaIS2_EE12_M_erase_auxESt23_Rb_tree_const_iteratorIS2_E
FN:2499,2507,_ZNSt8_Rb_treeIiSt4pairIKiiESt10_Select1stIS2_ESt4lessIiESaIS2_EE12_M_erase_auxESt23_Rb_tree_const_iteratorIS2_ESA_
FN:2512,2519,_ZNSt8_Rb_treeIiSt4pairIKiiESt10_Select1stIS2_ESt4lessIiESaIS2_EE5eraseERS1_
FNDA:0,_ZNSt8_Rb_treeIiSt4pairIKiiESt10_Select1stIS2_ESt4lessIiESaIS2_EE5clearEv
FNDA:8,_ZNSt8_Rb_treeIiSt4pairIKiiESt10_Select1stIS2_ESt4lessIiESaIS2_EE10_Auto_nodeD2Ev
FNDA:8,_ZNSt8_Rb_treeIiSt4pairIKiiESt10_Select1stIS2_ESt4lessIiESaIS2_EE10_Auto_node9_M_insertES0_IPSt18_Rb_tree_node_baseSB_E
FNDA:16,_ZNSt8_Rb_treeIiSt4pairIKiiESt10_Select1stIS2_ESt4lessIiESaIS2_EE8_M_eraseEPSt13_Rb_tree_nodeIS2_E
FNDA:0,_ZNSt8_Rb_treeIiSt4pairIKiiESt10_Select1stIS2_ESt4lessIiESaIS2_EE11equal_rangeERS1_
FNDA:8,_ZNSt8_Rb_treeIiSt4pairIKiiESt10_Select1stIS2_ESt4lessIiESaIS2_EE24_M_get_insert_unique_posERS1_
FNDA:8,_ZNSt8_Rb_treeIiSt4pairIKiiESt10_Select1stIS2_ESt4lessIiESaIS2_EE29_M_get_insert_hint_unique_posESt23_Rb_tree_const_iteratorIS2_ERS1_
FNDA:8,_ZNSt8_Rb_treeIiSt4pairIKiiESt10_Select1stIS2_ESt4lessIiESaIS2_EE14_M_insert_nodeEPSt18_Rb_tree_node_baseSA_PSt13_Rb_tree_nodeIS2_E
FNDA:8,_ZNSt8_Rb_treeIiSt4pairIKiiESt10_Select1stIS2_ESt4lessIiESaIS2_EE22_M_emplace_hint_uniqueIJRKSt21piecewise_construct_tSt5tupleIJRS1_EESD_IJEEEEESt17_Rb_tree_iteratorIS2_ESt23_Rb_tree_const_iteratorIS2_EDpOT_
FNDA:0,_ZNSt8_Rb_treeIiSt4pairIKiiESt10_Select1stIS2_ESt4lessIiESaIS2_EE12_M_erase_auxESt23_Rb_tree_const_iteratorIS2_E
FNDA:0,_ZNSt8_Rb_treeIiSt4pairIKiiESt10_Select1stIS2_ESt4lessIiESaIS2_EE12_M_erase_auxESt23_Rb_tree_const_iteratorIS2_ESA_
FNDA:0,_ZNSt8_Rb_treeIiSt4pairIKiiESt10_Select1stIS2_ESt4lessIiESaIS2_EE5eraseERS1_
FNF:12
FNH:7
DA:142,8
DA:169,8
DA:170,8
DA:171,8
DA:172,8
DA:202,8
DA:204,8
DA:205,8
DA:206,8
DA:207,8
DA:231,24
DA:235,16
DA:269,40
DA:270,8
DA:274,0
DA:281,0
DA:283,0
DA:296,0
DA:298,0
DA:299,0
DA:311,8
DA:343,16
DA:346,8
DA:347,8
DA:350,8
DA:351,8
DA:355,8
DA:362,8
DA:364,8
DA:365,8
DA:369,0
DA:371,0
DA:372,0
DA:392,0
DA:546,16
DA:558,8
DA:559,16
DA:562,8
DA:563,8
DA:588,8
DA:593,8
DA:607,8
DA:609,8
DA:610,8
DA:616,8
DA:622,8
DA:627,8
DA:629,8
DA:630,0
DA:631,0
DA:658,8
DA:665,8
DA:669,8
DA:732,24
DA:733,24
DA:736,24
DA:737,24
DA:747,32
DA:748,32
DA:755,8
DA:773,8
DA:777,8
DA:778,8
DA:785,8
DA:786,8
DA:794,0
DA:926,8
DA:981,8
DA:982,8
DA:993,8
DA:994,8
DA:997,16
DA:998,16
DA:1001,8
DA:1002,8
DA:1005,16
DA:1006,16
DA:1029,8
DA:1030,8
DA:1249,0
DA:1251,0
DA:1252,0
DA:1253,0
DA:1266,8
DA:1267,16
DA:1631,8
DA:1632,8
DA:1633,8
DA:1636,8
DA:1638,8
DA:1639,0
DA:1640,8
DA:1647,8
DA:1648,8
DA:1651,8
DA:1653,8
DA:1654,8
DA:1655,8
DA:1926,16
DA:1930,24
DA:1932,8
DA:1933,8
DA:1934,8
DA:1935,8
DA:1937,16
DA:1943,8
DA:1947,8
DA:1948,0
DA:1949,0
DA:1951,0
DA:1952,8
DA:1975,0
DA:1979,0
DA:1980,0
DA:1981,0
DA:1983,0
DA:2009,0
DA:2012,0
DA:2013,0
DA:2014,0
DA:2016,0
DA:2017,0
DA:2018,0
DA:2019,0
DA:2022,0
DA:2023,0
DA:2024,0
DA:2025,0
DA:2026,0
DA:2027,0
DA:2028,0
DA:2031,0
DA:2032,0
DA:2104,8
DA:2108,8
DA:2109,8
DA:2110,8
DA:2111,8
DA:2113,0
DA:2114,0
DA:2115,0
DA:2117,8
DA:2118,8
DA:2120,8
DA:2121,8
DA:2123,0
DA:2125,0
DA:2126,0
DA:2127,0
DA:2206,8
DA:2210,8
DA:2214,8
DA:2216,8
DA:2217,8
DA:2218,0
DA:2220,8
DA:2222,0
DA:2225,0
DA:2226,0
DA:2227,0
DA:2228,0
DA:2230,0
DA:2231,0
DA:2233,0
DA:2236,0
DA:2238,0
DA:2241,0
DA:2242,0
DA:2243,0
DA:2244,0
DA:2246,0
DA:2247,0
DA:2249,0
DA:2252,0
DA:2256,0
DA:2373,8
DA:2377,8
DA:2378,8
DA:2381,8
DA:2382,8
DA:2383,8
DA:2384,8
DA:2454,8
DA:2458,8
DA:2459,8
DA:2460,8
DA:2461,8
DA:2462,0
DA:2463,8
DA:2485,0
DA:2490,0
DA:2491,0
DA:2492,0
DA:2493,0
DA:2494,0
DA:2499,0
DA:2502,0
DA:2503,0
DA:2505,0
DA:2506,0
DA:2507,0
DA:2512,0
DA:2515,0
DA:2516,0
DA:2517,0
DA:2518,0
LF:206
LH:118
end_of_record
TN:
SF:/usr/include/c++/14/bits/unordered_set.h
FNF:0
FNH:0
DA:104,16
DA:142,8
DA:341,8
DA:342,8
DA:428,16
DA:429,16
DA:657,8
DA:658,8
LF:8
LH:8
end_of_record
TN:
SF:/usr/include/c++/14/ext/aligned_buffer.h
FNF:0
FNH:0
DA:65,16
DA:73,0
DA:77,8
DA:104,32
DA:106,32
DA:110,16
DA:112,16
DA:116,32
DA:117,32
DA:120,16
DA:121,16
LF:11
LH:10
end_of_record
TN:
SF:/usr/include/c++/14/ext/alloc_traits.h
FNF:0
FNH:0
DA:97,16
DA:98,16
LF:2
LH:2
end_of_record
TN:
SF:/usr/include/c++/14/istream
FNF:0
FNH:0
DA:197,8
DA:198,8
LF:2
LH:2
end_of_record
TN:
SF:/usr/include/c++/14/sstream
FNF:0
FNH:0
DA:930,16
DA:931,16
LF:2
LH:2
end_of_record
TN:
SF:/usr/include/c++/14/streambuf
FNF:0
FNH:0
LF:0
LH:0
end_of_record
TN:
SF:/usr/include/c++/14/tuple
FNF:0
FNH:0
DA:201,8
DA:202,8
DA:242,8
DA:556,8
DA:566,8
DA:567,8
DA:586,8
DA:588,8
DA:971,8
DA:974,8
DA:995,8
DA:2427,8
DA:2428,8
DA:2443,8
DA:2444,8
DA:2872,8
DA:2877,8
DA:2884,8
DA:2887,8
DA:2888,8
LF:20
LH:20
end_of_record
