TN:
SF:/home/monika/Documents/problems/19894번： Отчет об ошибках/main.cpp
FNL:0,29,40
FNA:0,0,_ZZ4mainENKUlRKSt3setIiSt4lessIiESaIiEEE_clES5_
FNL:1,9,69
FNA:1,0,main
FNF:2
FNH:0
DA:9,0
DA:11,0
DA:12,0
DA:15,0
DA:16,0
DA:18,0
DA:20,0
DA:23,0
DA:25,0
DA:26,0
DA:29,0
DA:31,0
DA:32,0
DA:34,0
DA:36,0
DA:39,0
DA:40,0
DA:42,0
DA:43,0
DA:44,0
DA:45,0
DA:46,0
DA:48,0
DA:50,0
DA:51,0
DA:52,0
DA:53,0
DA:54,0
DA:56,0
DA:57,0
DA:58,0
DA:60,0
DA:62,0
DA:63,0
DA:65,0
DA:68,0
DA:69,0
LF:37
LH:0
end_of_record
TN:
SF:/usr/include/c++/14/bits/alloc_traits.h
FNF:0
FNH:0
DA:515,0
DA:550,0
DA:577,0
DA:581,0
DA:599,0
DA:601,0
DA:627,0
DA:767,0
DA:993,0
DA:994,0
LF:10
LH:0
end_of_record
TN:
SF:/usr/include/c++/14/bits/allocator.h
FNF:0
FNH:0
DA:161,0
DA:166,0
DA:176,0
DA:182,0
DA:189,0
DA:191,0
DA:192,0
DA:193,0
DA:196,0
DA:203,0
DA:205,0
DA:206,0
DA:208,0
DA:215,0
LF:14
LH:0
end_of_record
TN:
SF:/usr/include/c++/14/bits/move.h
FNL:0,137,138
FNA:0,0,_ZSt4moveIRSaISt13_Rb_tree_nodeIiEEEONSt16remove_referenceIT_E4typeEOS5_
FNA:0,0,_ZSt4moveIRSt4pairIiiEEONSt16remove_referenceIT_E4typeEOS4_
FNL:1,51,52
FNA:1,0,_ZSt11__addressofIKSt8_Rb_treeISt4pairIiiES2_St9_IdentityIS2_ESt4lessIS2_ESaIS2_EEEPT_RSA_
FNA:1,0,_ZSt11__addressofIKSt8_Rb_treeIiiSt9_IdentityIiESt4lessIiESaIiEEEPT_RS8_
FNA:1,0,_ZSt11__addressofIiEPT_RS0_
FNL:2,71,72
FNA:2,0,_ZSt7forwardIRKSt4pairIiiEEOT_RNSt16remove_referenceIS4_E4typeE
FNA:2,0,_ZSt7forwardIRKiEOT_RNSt16remove_referenceIS2_E4typeE
FNA:2,0,_ZSt7forwardIRPSt13_Rb_tree_nodeISt4pairIiiEEEOT_RNSt16remove_referenceIS6_E4typeE
FNA:2,0,_ZSt7forwardIRPSt13_Rb_tree_nodeIiEEOT_RNSt16remove_referenceIS4_E4typeE
FNA:2,0,_ZSt7forwardIRPSt18_Rb_tree_node_baseEOT_RNSt16remove_referenceIS3_E4typeE
FNA:2,0,_ZSt7forwardIRSt17_Rb_tree_iteratorISt4pairIiiEEEOT_RNSt16remove_referenceIS5_E4typeE
FNA:2,0,_ZSt7forwardIRbEOT_RNSt16remove_referenceIS1_E4typeE
FNA:2,0,_ZSt7forwardIRiEOT_RNSt16remove_referenceIS1_E4typeE
FNA:2,0,_ZSt7forwardISt17_Rb_tree_iteratorISt4pairIiiEEEOT_RNSt16remove_referenceIS4_E4typeE
FNA:2,0,_ZSt7forwardISt4pairIiiEEOT_RNSt16remove_referenceIS2_E4typeE
FNA:2,0,_ZSt7forwardIbEOT_RNSt16remove_referenceIS0_E4typeE
FNF:3
FNH:0
DA:51,0
DA:52,0
DA:71,0
DA:72,0
DA:137,0
DA:138,0
LF:6
LH:0
end_of_record
TN:
SF:/usr/include/c++/14/bits/new_allocator.h
FNL:0,126,152
FNA:0,0,_ZNSt15__new_allocatorISt13_Rb_tree_nodeISt4pairIiiEEE8allocateEmPKv
FNA:0,0,_ZNSt15__new_allocatorISt13_Rb_tree_nodeIiEE8allocateEmPKv
FNA:0,0,_ZNSt15__new_allocatorIiE8allocateEmPKv
FNL:1,156,173
FNA:1,0,_ZNSt15__new_allocatorISt13_Rb_tree_nodeISt4pairIiiEEE10deallocateEPS3_m
FNA:1,0,_ZNSt15__new_allocatorISt13_Rb_tree_nodeIiEE10deallocateEPS1_m
FNA:1,0,_ZNSt15__new_allocatorIiE10deallocateEPim
FNF:2
FNH:0
DA:88,0
DA:92,0
DA:126,0
DA:134,0
DA:138,0
DA:139,0
DA:140,0
DA:151,0
DA:156,0
DA:172,0
DA:233,0
LF:11
LH:0
end_of_record
TN:
SF:/usr/include/c++/14/bits/stl_algobase.h
FNL:0,1040,1040
FNA:0,0,_ZSt17__size_to_integerm
FNL:1,1140,1153
FNA:1,0,_ZSt10__fill_n_aIPimiET_S1_T0_RKT1_St26random_access_iterator_tag
FNL:2,1175,1182
FNA:2,0,_ZSt6fill_nIPimiET_S1_T0_RKT1_
FNL:3,233,241
FNA:3,0,_ZSt3minImERKT_S2_S2_
FNL:4,947,953
FNA:4,0,_ZSt9__fill_a1IPiiEN9__gnu_cxx11__enable_ifIXsrSt11__is_scalarIT0_E7__valueEvE6__typeET_S8_RKS4_
FNL:5,997,998
FNA:5,0,_ZSt8__fill_aIPiiEvT_S1_RKT0_
FNF:6
FNH:0
DA:233,0
DA:238,0
DA:239,0
DA:240,0
DA:947,0
DA:950,0
DA:951,0
DA:952,0
DA:953,0
DA:997,0
DA:998,0
DA:1040,0
DA:1140,0
DA:1146,0
DA:1147,0
DA:1151,0
DA:1152,0
DA:1175,0
DA:1180,0
DA:1181,0
LF:20
LH:0
end_of_record
TN:
SF:/usr/include/c++/14/bits/stl_construct.h
FNL:0,109,120
FNA:0,0,_ZSt10_ConstructIiJEEvPT_DpOT0_
FNL:1,146,153
FNA:1,0,_ZSt8_DestroyIiEvPT_
FNL:2,160,164
FNA:2,0,_ZNSt12_Destroy_auxILb0EE9__destroyIPiEEvT_S3_
FNL:3,172,172
FNA:3,0,_ZNSt12_Destroy_auxILb1EE9__destroyIPiEEvT_S3_
FNL:4,182,197
FNA:4,0,_ZSt8_DestroyIPiEvT_S1_
FNL:5,80,89
FNA:5,0,_ZSt10destroy_atISt4pairIiiEEvPT_
FNA:5,0,_ZSt10destroy_atIiEvPT_
FNL:6,94,97
FNA:6,0,_ZSt12construct_atISt4pairIiiEJRKS1_EEDTgsnwcvPvLi0E_T_pispcl7declvalIT0_EEEEPS5_DpOS6_
FNA:6,0,_ZSt12construct_atISt4pairIiiEJS1_EEDTgsnwcvPvLi0E_T_pispcl7declvalIT0_EEEEPS3_DpOS4_
FNA:6,0,_ZSt12construct_atIiJEEDTgsnwcvPvLi0E_T_pispcl7declvalIT0_EEEEPS1_DpOS2_
FNA:6,0,_ZSt12construct_atIiJRKiEEDTgsnwcvPvLi0E_T_pispcl7declvalIT0_EEEEPS3_DpOS4_
FNF:7
FNH:0
DA:80,0
DA:88,0
DA:89,0
DA:94,0
DA:97,0
DA:109,0
DA:112,0
DA:115,0
DA:116,0
DA:119,0
DA:146,0
DA:149,0
DA:153,0
DA:160,0
DA:162,0
DA:163,0
DA:164,0
DA:172,0
DA:182,0
DA:192,0
DA:193,0
DA:196,0
LF:22
LH:0
end_of_record
TN:
SF:/usr/include/c++/14/bits/stl_function.h
FNL:0,1159,1160
FNA:0,0,_ZNKSt9_IdentityISt4pairIiiEEclERS1_
FNL:1,1163,1164
FNA:1,0,_ZNKSt9_IdentityISt4pairIiiEEclERKS1_
FNA:1,0,_ZNKSt9_IdentityIiEclERKi
FNL:2,404,405
FNA:2,0,_ZNKSt4lessISt4pairIiiEEclERKS1_S4_
FNA:2,0,_ZNKSt4lessIiEclERKiS2_
FNF:3
FNH:0
DA:404,0
DA:405,0
DA:1159,0
DA:1160,0
DA:1163,0
DA:1164,0
LF:6
LH:0
end_of_record
TN:
SF:/usr/include/c++/14/bits/stl_iterator_base_types.h
FNF:0
FNH:0
DA:240,0
LF:1
LH:0
end_of_record
TN:
SF:/usr/include/c++/14/bits/stl_pair.h
FNL:0,1023,1028
FNA:0,0,_ZStssIiiiiENSt26common_comparison_categoryIJDTclL_ZNSt8__detail11__synth3wayEEcl7declvalIRT_EEcl7declvalIRT1_EEEEDTclL_ZNS1_11__synth3wayEEcl7declvalIRT0_EEcl7declvalIRT2_EEEEEE4typeERKSt4pairIS2_S7_ERKSE_IS4_S9_E
FNL:1,428,432
FNA:1,0,_ZNSt4pairIPSt18_Rb_tree_node_baseS1_EC2ERKS1_S4_Qcl16_S_constructibleIRKT_RKT0_EE
FNL:2,442,445
FNA:2,0,_ZNSt4pairIPSt18_Rb_tree_node_baseS1_EC2IRPSt13_Rb_tree_nodeIS_IiiEERS1_EEOT_OT0_
FNA:2,0,_ZNSt4pairIPSt18_Rb_tree_node_baseS1_EC2IRPSt13_Rb_tree_nodeIiERS1_EEOT_OT0_
FNA:2,0,_ZNSt4pairIPSt18_Rb_tree_node_baseS1_EC2IRS1_S4_EEOT_OT0_
FNA:2,0,_ZNSt4pairISt17_Rb_tree_iteratorIS_IiiEEbEC2IS2_bEEOT_OT0_
FNA:2,0,_ZNSt4pairISt23_Rb_tree_const_iteratorIS_IiiEEbEC2IRSt17_Rb_tree_iteratorIS1_ERbEEOT_OT0_
FNA:2,0,_ZNSt4pairIiiEC2IRiS2_EEOT_OT0_
FNF:3
FNH:0
DA:428,0
DA:431,0
DA:432,0
DA:442,0
DA:444,0
DA:445,0
DA:1023,0
DA:1025,0
DA:1026,0
DA:1027,0
LF:10
LH:0
end_of_record
TN:
SF:/usr/include/c++/14/bits/stl_set.h
FNL:0,169,169
FNA:0,0,_ZNSt3setISt4pairIiiESt4lessIS1_ESaIS1_EEC2Ev
FNL:1,225,225
FNA:1,0,_ZNSt3setISt4pairIiiESt4lessIS1_ESaIS1_EEC2ERKS5_
FNA:1,0,_ZNSt3setIiSt4lessIiESaIiEEC2ERKS3_
FNL:2,245,249
FNA:2,0,_ZNSt3setIiSt4lessIiESaIiEEC2ESt16initializer_listIiERKS1_RKS2_
FNL:3,283,283
FNA:3,0,_ZNSt3setISt4pairIiiESt4lessIS1_ESaIS1_EED2Ev
FNA:3,0,_ZNSt3setIiSt4lessIiESaIiEED2Ev
FNL:4,300,300
FNA:4,0,_ZNSt3setISt4pairIiiESt4lessIS1_ESaIS1_EEaSERKS5_
FNA:4,0,_ZNSt3setIiSt4lessIiESaIiEEaSERKS3_
FNL:5,346,347
FNA:5,0,_ZNKSt3setISt4pairIiiESt4lessIS1_ESaIS1_EE5beginEv
FNL:6,355,356
FNA:6,0,_ZNKSt3setISt4pairIiiESt4lessIS1_ESaIS1_EE3endEv
FNA:6,0,_ZNKSt3setIiSt4lessIiESaIiEE3endEv
FNL:7,421,422
FNA:7,0,_ZNKSt3setISt4pairIiiESt4lessIS1_ESaIS1_EE4sizeEv
FNL:8,520,525
FNA:8,0,_ZNSt3setISt4pairIiiESt4lessIS1_ESaIS1_EE6insertEOS1_
FNL:9,800,801
FNA:9,0,_ZNKSt3setIiSt4lessIiESaIiEE4findERKi
FNF:10
FNH:0
DA:169,0
DA:225,0
DA:245,0
DA:248,0
DA:249,0
DA:283,0
DA:300,0
DA:346,0
DA:347,0
DA:355,0
DA:356,0
DA:421,0
DA:422,0
DA:520,0
DA:523,0
DA:524,0
DA:800,0
DA:801,0
LF:18
LH:0
end_of_record
TN:
SF:/usr/include/c++/14/bits/stl_tree.h
FNL:0,1001,1002
FNA:0,0,_ZNSt8_Rb_treeIiiSt9_IdentityIiESt4lessIiESaIiEE3endEv
FNL:1,1005,1006
FNA:1,0,_ZNKSt8_Rb_treeISt4pairIiiES1_St9_IdentityIS1_ESt4lessIS1_ESaIS1_EE3endEv
FNA:1,0,_ZNKSt8_Rb_treeIiiSt9_IdentityIiESt4lessIiESaIiEE3endEv
FNL:2,1029,1030
FNA:2,0,_ZNKSt8_Rb_treeISt4pairIiiES1_St9_IdentityIS1_ESt4lessIS1_ESaIS1_EE4sizeEv
FNA:2,0,_ZNKSt8_Rb_treeIiiSt9_IdentityIiESt4lessIiESaIiEE4sizeEv
FNL:3,108,112
FNA:3,0,_ZNSt18_Rb_tree_node_base10_S_minimumEPS_
FNL:4,1096,1101
FNA:4,0,_ZNSt8_Rb_treeIiiSt9_IdentityIiESt4lessIiESaIiEE22_M_insert_range_uniqueIPKiEENSt9enable_ifIXsrSt7is_sameIiNSt15iterator_traitsIT_E10value_typeEE5valueEvE4typeESC_SC_
FNL:5,122,126
FNA:5,0,_ZNSt18_Rb_tree_node_base10_S_maximumEPS_
FNL:6,1249,1253
FNA:6,0,_ZNSt8_Rb_treeISt4pairIiiES1_St9_IdentityIS1_ESt4lessIS1_ESaIS1_EE5clearEv
FNA:6,0,_ZNSt8_Rb_treeIiiSt9_IdentityIiESt4lessIiESaIiEE5clearEv
FNL:7,142,146
FNA:7,0,_ZNSt20_Rb_tree_key_compareISt4lessISt4pairIiiEEEC2Ev
FNL:8,148,150
FNA:8,0,_ZNSt20_Rb_tree_key_compareISt4lessISt4pairIiiEEEC2ERKS3_
FNA:8,0,_ZNSt20_Rb_tree_key_compareISt4lessIiEEC2ERKS1_
FNL:9,169,173
FNA:9,0,_ZNSt15_Rb_tree_headerC2Ev
FNL:10,1774,1804
FNA:10,0,_ZNSt8_Rb_treeISt4pairIiiES1_St9_IdentityIS1_ESt4lessIS1_ESaIS1_EEaSERKS7_
FNA:10,0,_ZNSt8_Rb_treeIiiSt9_IdentityIiESt4lessIiESaIiEEaSERKS5_
FNL:11,1814,1833
FNA:11,0,_ZNSt8_Rb_treeISt4pairIiiES1_St9_IdentityIS1_ESt4lessIS1_ESaIS1_EE10_M_insert_IS1_NS7_11_Alloc_nodeEEESt17_Rb_tree_iteratorIS1_EPSt18_Rb_tree_node_baseSD_OT_RT0_
FNA:11,0,_ZNSt8_Rb_treeIiiSt9_IdentityIiESt4lessIiESaIiEE10_M_insert_IRKiNS5_11_Alloc_nodeEEESt17_Rb_tree_iteratorIiEPSt18_Rb_tree_node_baseSD_OT_RT0_
FNL:12,1888,1921
FNA:12,0,_ZNSt8_Rb_treeISt4pairIiiES1_St9_IdentityIS1_ESt4lessIS1_ESaIS1_EE7_M_copyILb0ENS7_11_Alloc_nodeEEEPSt13_Rb_tree_nodeIS1_ESC_PSt18_Rb_tree_node_baseRT0_
FNA:12,0,_ZNSt8_Rb_treeISt4pairIiiES1_St9_IdentityIS1_ESt4lessIS1_ESaIS1_EE7_M_copyILb0ENS7_20_Reuse_or_alloc_nodeEEEPSt13_Rb_tree_nodeIS1_ESC_PSt18_Rb_tree_node_baseRT0_
FNA:12,0,_ZNSt8_Rb_treeIiiSt9_IdentityIiESt4lessIiESaIiEE7_M_copyILb0ENS5_11_Alloc_nodeEEEPSt13_Rb_tree_nodeIiESA_PSt18_Rb_tree_node_baseRT0_
FNA:12,0,_ZNSt8_Rb_treeIiiSt9_IdentityIiESt4lessIiESaIiEE7_M_copyILb0ENS5_20_Reuse_or_alloc_nodeEEEPSt13_Rb_tree_nodeIiESA_PSt18_Rb_tree_node_baseRT0_
FNL:13,1926,1937
FNA:13,0,_ZNSt8_Rb_treeISt4pairIiiES1_St9_IdentityIS1_ESt4lessIS1_ESaIS1_EE8_M_eraseEPSt13_Rb_tree_nodeIS1_E
FNA:13,0,_ZNSt8_Rb_treeIiiSt9_IdentityIiESt4lessIiESaIiEE8_M_eraseEPSt13_Rb_tree_nodeIiE
FNL:14,1959,1969
FNA:14,0,_ZNKSt8_Rb_treeIiiSt9_IdentityIiESt4lessIiESaIiEE14_M_lower_boundEPKSt13_Rb_tree_nodeIiEPKSt18_Rb_tree_node_baseRKi
FNL:15,202,208
FNA:15,0,_ZNSt15_Rb_tree_header8_M_resetEv
FNL:16,2104,2128
FNA:16,0,_ZNSt8_Rb_treeISt4pairIiiES1_St9_IdentityIS1_ESt4lessIS1_ESaIS1_EE24_M_get_insert_unique_posERKS1_
FNA:16,0,_ZNSt8_Rb_treeIiiSt9_IdentityIiESt4lessIiESaIiEE24_M_get_insert_unique_posERKi
FNL:17,2158,2178
FNA:17,0,_ZNSt8_Rb_treeISt4pairIiiES1_St9_IdentityIS1_ESt4lessIS1_ESaIS1_EE16_M_insert_uniqueIS1_EES0_ISt17_Rb_tree_iteratorIS1_EbEOT_
FNL:18,2206,2257
FNA:18,0,_ZNSt8_Rb_treeIiiSt9_IdentityIiESt4lessIiESaIiEE29_M_get_insert_hint_unique_posESt23_Rb_tree_const_iteratorIiERKi
FNL:19,2267,2284
FNA:19,0,_ZNSt8_Rb_treeIiiSt9_IdentityIiESt4lessIiESaIiEE17_M_insert_unique_IRKiNS5_11_Alloc_nodeEEESt17_Rb_tree_iteratorIiESt23_Rb_tree_const_iteratorIiEOT_RT0_
FNL:20,230,231
FNA:20,0,_ZNSt13_Rb_tree_nodeISt4pairIiiEE9_M_valptrEv
FNA:20,0,_ZNSt13_Rb_tree_nodeIiE9_M_valptrEv
FNL:21,234,235
FNA:21,0,_ZNKSt13_Rb_tree_nodeISt4pairIiiEE9_M_valptrEv
FNA:21,0,_ZNKSt13_Rb_tree_nodeIiE9_M_valptrEv
FNL:22,2538,2545
FNA:22,0,_ZNKSt8_Rb_treeIiiSt9_IdentityIiESt4lessIiESaIiEE4findERKi
FNL:23,269,270
FNA:23,0,_ZNSt17_Rb_tree_iteratorISt4pairIiiEEC2EPSt18_Rb_tree_node_base
FNA:23,0,_ZNSt17_Rb_tree_iteratorIiEC2EPSt18_Rb_tree_node_base
FNL:24,281,285
FNA:24,0,_ZNSt17_Rb_tree_iteratorIiEppEv
FNL:25,296,300
FNA:25,0,_ZNSt17_Rb_tree_iteratorISt4pairIiiEEmmEv
FNA:25,0,_ZNSt17_Rb_tree_iteratorIiEmmEv
FNL:26,311,312
FNA:26,0,_ZSteqRKSt17_Rb_tree_iteratorISt4pairIiiEES4_
FNA:26,0,_ZSteqRKSt17_Rb_tree_iteratorIiES2_
FNL:27,343,344
FNA:27,0,_ZNSt23_Rb_tree_const_iteratorISt4pairIiiEEC2EPKSt18_Rb_tree_node_base
FNA:27,0,_ZNSt23_Rb_tree_const_iteratorIiEC2EPKSt18_Rb_tree_node_base
FNL:28,346,347
FNA:28,0,_ZNSt23_Rb_tree_const_iteratorISt4pairIiiEEC2ERKSt17_Rb_tree_iteratorIS1_E
FNA:28,0,_ZNSt23_Rb_tree_const_iteratorIiEC2ERKSt17_Rb_tree_iteratorIiE
FNL:29,350,351
FNA:29,0,_ZNKSt23_Rb_tree_const_iteratorIiE13_M_const_castEv
FNL:30,354,355
FNA:30,0,_ZNKSt23_Rb_tree_const_iteratorISt4pairIiiEEdeEv
FNL:31,362,366
FNA:31,0,_ZNSt23_Rb_tree_const_iteratorISt4pairIiiEEppEv
FNL:32,392,393
FNA:32,0,_ZSteqRKSt23_Rb_tree_const_iteratorISt4pairIiiEES4_
FNA:32,0,_ZSteqRKSt23_Rb_tree_const_iteratorIiES2_
FNL:33,441,453
FNA:33,0,_ZNSt8_Rb_treeISt4pairIiiES1_St9_IdentityIS1_ESt4lessIS1_ESaIS1_EE20_Reuse_or_alloc_nodeC2ERS7_
FNA:33,0,_ZNSt8_Rb_treeIiiSt9_IdentityIiESt4lessIiESaIiEE20_Reuse_or_alloc_nodeC2ERS5_
FNL:34,459,460
FNA:34,0,_ZNSt8_Rb_treeISt4pairIiiES1_St9_IdentityIS1_ESt4lessIS1_ESaIS1_EE20_Reuse_or_alloc_nodeD2Ev
FNA:34,0,_ZNSt8_Rb_treeIiiSt9_IdentityIiESt4lessIiESaIiEE20_Reuse_or_alloc_nodeD2Ev
FNL:35,464,475
FNA:35,0,_ZNSt8_Rb_treeISt4pairIiiES1_St9_IdentityIS1_ESt4lessIS1_ESaIS1_EE20_Reuse_or_alloc_nodeclIRKS1_EEPSt13_Rb_tree_nodeIS1_EOT_
FNA:35,0,_ZNSt8_Rb_treeIiiSt9_IdentityIiESt4lessIiESaIiEE20_Reuse_or_alloc_nodeclIRKiEEPSt13_Rb_tree_nodeIiEOT_
FNL:36,479,510
FNA:36,0,_ZNSt8_Rb_treeISt4pairIiiES1_St9_IdentityIS1_ESt4lessIS1_ESaIS1_EE20_Reuse_or_alloc_node10_M_extractEv
FNA:36,0,_ZNSt8_Rb_treeIiiSt9_IdentityIiESt4lessIiESaIiEE20_Reuse_or_alloc_node10_M_extractEv
FNL:37,521,522
FNA:37,0,_ZNSt8_Rb_treeISt4pairIiiES1_St9_IdentityIS1_ESt4lessIS1_ESaIS1_EE11_Alloc_nodeC2ERS7_
FNA:37,0,_ZNSt8_Rb_treeIiiSt9_IdentityIiESt4lessIiESaIiEE11_Alloc_nodeC2ERS5_
FNL:38,526,527
FNA:38,0,_ZNKSt8_Rb_treeISt4pairIiiES1_St9_IdentityIS1_ESt4lessIS1_ESaIS1_EE11_Alloc_nodeclIRKS1_EEPSt13_Rb_tree_nodeIS1_EOT_
FNA:38,0,_ZNKSt8_Rb_treeISt4pairIiiES1_St9_IdentityIS1_ESt4lessIS1_ESaIS1_EE11_Alloc_nodeclIS1_EEPSt13_Rb_tree_nodeIS1_EOT_
FNA:38,0,_ZNKSt8_Rb_treeIiiSt9_IdentityIiESt4lessIiESaIiEE11_Alloc_nodeclIRKiEEPSt13_Rb_tree_nodeIiEOT_
FNL:39,545,546
FNA:39,0,_ZNSt8_Rb_treeISt4pairIiiES1_St9_IdentityIS1_ESt4lessIS1_ESaIS1_EE21_M_get_Node_allocatorEv
FNA:39,0,_ZNSt8_Rb_treeIiiSt9_IdentityIiESt4lessIiESaIiEE21_M_get_Node_allocatorEv
FNL:40,549,550
FNA:40,0,_ZNKSt8_Rb_treeISt4pairIiiES1_St9_IdentityIS1_ESt4lessIS1_ESaIS1_EE21_M_get_Node_allocatorEv
FNA:40,0,_ZNKSt8_Rb_treeIiiSt9_IdentityIiESt4lessIiESaIiEE21_M_get_Node_allocatorEv
FNL:41,558,559
FNA:41,0,_ZNSt8_Rb_treeISt4pairIiiES1_St9_IdentityIS1_ESt4lessIS1_ESaIS1_EE11_M_get_nodeEv
FNA:41,0,_ZNSt8_Rb_treeIiiSt9_IdentityIiESt4lessIiESaIiEE11_M_get_nodeEv
FNL:42,562,563
FNA:42,0,_ZNSt8_Rb_treeISt4pairIiiES1_St9_IdentityIS1_ESt4lessIS1_ESaIS1_EE11_M_put_nodeEPSt13_Rb_tree_nodeIS1_E
FNA:42,0,_ZNSt8_Rb_treeIiiSt9_IdentityIiESt4lessIiESaIiEE11_M_put_nodeEPSt13_Rb_tree_nodeIiE
FNL:43,588,603
FNA:43,0,_ZNSt8_Rb_treeISt4pairIiiES1_St9_IdentityIS1_ESt4lessIS1_ESaIS1_EE17_M_construct_nodeIJRKS1_EEEvPSt13_Rb_tree_nodeIS1_EDpOT_
FNA:43,0,_ZNSt8_Rb_treeISt4pairIiiES1_St9_IdentityIS1_ESt4lessIS1_ESaIS1_EE17_M_construct_nodeIJS1_EEEvPSt13_Rb_tree_nodeIS1_EDpOT_
FNA:43,0,_ZNSt8_Rb_treeIiiSt9_IdentityIiESt4lessIiESaIiEE17_M_construct_nodeIJRKiEEEvPSt13_Rb_tree_nodeIiEDpOT_
FNL:44,607,612
FNA:44,0,_ZNSt8_Rb_treeISt4pairIiiES1_St9_IdentityIS1_ESt4lessIS1_ESaIS1_EE14_M_create_nodeIJRKS1_EEEPSt13_Rb_tree_nodeIS1_EDpOT_
FNA:44,0,_ZNSt8_Rb_treeISt4pairIiiES1_St9_IdentityIS1_ESt4lessIS1_ESaIS1_EE14_M_create_nodeIJS1_EEEPSt13_Rb_tree_nodeIS1_EDpOT_
FNA:44,0,_ZNSt8_Rb_treeIiiSt9_IdentityIiESt4lessIiESaIiEE14_M_create_nodeIJRKiEEEPSt13_Rb_tree_nodeIiEDpOT_
FNL:45,616,624
FNA:45,0,_ZNSt8_Rb_treeISt4pairIiiES1_St9_IdentityIS1_ESt4lessIS1_ESaIS1_EE15_M_destroy_nodeEPSt13_Rb_tree_nodeIS1_E
FNA:45,0,_ZNSt8_Rb_treeIiiSt9_IdentityIiESt4lessIiESaIiEE15_M_destroy_nodeEPSt13_Rb_tree_nodeIiE
FNL:46,627,631
FNA:46,0,_ZNSt8_Rb_treeISt4pairIiiES1_St9_IdentityIS1_ESt4lessIS1_ESaIS1_EE12_M_drop_nodeEPSt13_Rb_tree_nodeIS1_E
FNA:46,0,_ZNSt8_Rb_treeIiiSt9_IdentityIiESt4lessIiESaIiEE12_M_drop_nodeEPSt13_Rb_tree_nodeIiE
FNL:47,635,648
FNA:47,0,_ZNSt8_Rb_treeISt4pairIiiES1_St9_IdentityIS1_ESt4lessIS1_ESaIS1_EE13_M_clone_nodeILb0ENS7_11_Alloc_nodeEEEPSt13_Rb_tree_nodeIS1_ESC_RT0_
FNA:47,0,_ZNSt8_Rb_treeISt4pairIiiES1_St9_IdentityIS1_ESt4lessIS1_ESaIS1_EE13_M_clone_nodeILb0ENS7_20_Reuse_or_alloc_nodeEEEPSt13_Rb_tree_nodeIS1_ESC_RT0_
FNA:47,0,_ZNSt8_Rb_treeIiiSt9_IdentityIiESt4lessIiESaIiEE13_M_clone_nodeILb0ENS5_11_Alloc_nodeEEEPSt13_Rb_tree_nodeIiESA_RT0_
FNA:47,0,_ZNSt8_Rb_treeIiiSt9_IdentityIiESt4lessIiESaIiEE13_M_clone_nodeILb0ENS5_20_Reuse_or_alloc_nodeEEEPSt13_Rb_tree_nodeIiESA_RT0_
FNL:48,665,670
FNA:48,0,_ZNSt8_Rb_treeISt4pairIiiES1_St9_IdentityIS1_ESt4lessIS1_ESaIS1_EE13_Rb_tree_implIS5_Lb1EEC2Ev
FNL:49,672,676
FNA:49,0,_ZNSt8_Rb_treeISt4pairIiiES1_St9_IdentityIS1_ESt4lessIS1_ESaIS1_EE13_Rb_tree_implIS5_Lb1EEC2ERKS9_
FNA:49,0,_ZNSt8_Rb_treeIiiSt9_IdentityIiESt4lessIiESaIiEE13_Rb_tree_implIS3_Lb1EEC2ERKS7_
FNL:50,698,700
FNA:50,0,_ZNSt8_Rb_treeIiiSt9_IdentityIiESt4lessIiESaIiEE13_Rb_tree_implIS3_Lb1EEC2ERKS3_OSaISt13_Rb_tree_nodeIiEE
FNL:51,708,709
FNA:51,0,_ZNSt8_Rb_treeISt4pairIiiES1_St9_IdentityIS1_ESt4lessIS1_ESaIS1_EE7_M_rootEv
FNA:51,0,_ZNSt8_Rb_treeIiiSt9_IdentityIiESt4lessIiESaIiEE7_M_rootEv
FNL:52,712,713
FNA:52,0,_ZNKSt8_Rb_treeISt4pairIiiES1_St9_IdentityIS1_ESt4lessIS1_ESaIS1_EE7_M_rootEv
FNA:52,0,_ZNKSt8_Rb_treeIiiSt9_IdentityIiESt4lessIiESaIiEE7_M_rootEv
FNL:53,716,717
FNA:53,0,_ZNSt8_Rb_treeISt4pairIiiES1_St9_IdentityIS1_ESt4lessIS1_ESaIS1_EE11_M_leftmostEv
FNA:53,0,_ZNSt8_Rb_treeIiiSt9_IdentityIiESt4lessIiESaIiEE11_M_leftmostEv
FNL:54,724,725
FNA:54,0,_ZNSt8_Rb_treeISt4pairIiiES1_St9_IdentityIS1_ESt4lessIS1_ESaIS1_EE12_M_rightmostEv
FNA:54,0,_ZNSt8_Rb_treeIiiSt9_IdentityIiESt4lessIiESaIiEE12_M_rightmostEv
FNL:55,732,733
FNA:55,0,_ZNKSt8_Rb_treeISt4pairIiiES1_St9_IdentityIS1_ESt4lessIS1_ESaIS1_EE9_M_mbeginEv
FNA:55,0,_ZNKSt8_Rb_treeIiiSt9_IdentityIiESt4lessIiESaIiEE9_M_mbeginEv
FNL:56,736,737
FNA:56,0,_ZNSt8_Rb_treeISt4pairIiiES1_St9_IdentityIS1_ESt4lessIS1_ESaIS1_EE8_M_beginEv
FNA:56,0,_ZNSt8_Rb_treeIiiSt9_IdentityIiESt4lessIiESaIiEE8_M_beginEv
FNL:57,740,744
FNA:57,0,_ZNKSt8_Rb_treeIiiSt9_IdentityIiESt4lessIiESaIiEE8_M_beginEv
FNL:58,747,748
FNA:58,0,_ZNSt8_Rb_treeISt4pairIiiES1_St9_IdentityIS1_ESt4lessIS1_ESaIS1_EE6_M_endEv
FNA:58,0,_ZNSt8_Rb_treeIiiSt9_IdentityIiESt4lessIiESaIiEE6_M_endEv
FNL:59,751,752
FNA:59,0,_ZNKSt8_Rb_treeIiiSt9_IdentityIiESt4lessIiESaIiEE6_M_endEv
FNL:60,755,774
FNA:60,0,_ZNSt8_Rb_treeISt4pairIiiES1_St9_IdentityIS1_ESt4lessIS1_ESaIS1_EE6_S_keyEPKSt13_Rb_tree_nodeIS1_E
FNA:60,0,_ZNSt8_Rb_treeIiiSt9_IdentityIiESt4lessIiESaIiEE6_S_keyEPKSt13_Rb_tree_nodeIiE
FNL:61,777,778
FNA:61,0,_ZNSt8_Rb_treeISt4pairIiiES1_St9_IdentityIS1_ESt4lessIS1_ESaIS1_EE7_S_leftEPSt18_Rb_tree_node_base
FNA:61,0,_ZNSt8_Rb_treeIiiSt9_IdentityIiESt4lessIiESaIiEE7_S_leftEPSt18_Rb_tree_node_base
FNL:62,781,782
FNA:62,0,_ZNSt8_Rb_treeIiiSt9_IdentityIiESt4lessIiESaIiEE7_S_leftEPKSt18_Rb_tree_node_base
FNL:63,785,786
FNA:63,0,_ZNSt8_Rb_treeISt4pairIiiES1_St9_IdentityIS1_ESt4lessIS1_ESaIS1_EE8_S_rightEPSt18_Rb_tree_node_base
FNA:63,0,_ZNSt8_Rb_treeIiiSt9_IdentityIiESt4lessIiESaIiEE8_S_rightEPSt18_Rb_tree_node_base
FNL:64,789,790
FNA:64,0,_ZNSt8_Rb_treeIiiSt9_IdentityIiESt4lessIiESaIiEE8_S_rightEPKSt18_Rb_tree_node_base
FNL:65,793,794
FNA:65,0,_ZNSt8_Rb_treeISt4pairIiiES1_St9_IdentityIS1_ESt4lessIS1_ESaIS1_EE6_S_keyEPKSt18_Rb_tree_node_base
FNA:65,0,_ZNSt8_Rb_treeIiiSt9_IdentityIiESt4lessIiESaIiEE6_S_keyEPKSt18_Rb_tree_node_base
FNL:66,797,798
FNA:66,0,_ZNSt8_Rb_treeISt4pairIiiES1_St9_IdentityIS1_ESt4lessIS1_ESaIS1_EE10_S_minimumEPSt18_Rb_tree_node_base
FNA:66,0,_ZNSt8_Rb_treeIiiSt9_IdentityIiESt4lessIiESaIiEE10_S_minimumEPSt18_Rb_tree_node_base
FNL:67,805,806
FNA:67,0,_ZNSt8_Rb_treeISt4pairIiiES1_St9_IdentityIS1_ESt4lessIS1_ESaIS1_EE10_S_maximumEPSt18_Rb_tree_node_base
FNA:67,0,_ZNSt8_Rb_treeIiiSt9_IdentityIiESt4lessIiESaIiEE10_S_maximumEPSt18_Rb_tree_node_base
FNL:68,885,893
FNA:68,0,_ZNSt8_Rb_treeISt4pairIiiES1_St9_IdentityIS1_ESt4lessIS1_ESaIS1_EE7_M_copyILb0ENS7_11_Alloc_nodeEEEPSt13_Rb_tree_nodeIS1_ERKS7_RT0_
FNA:68,0,_ZNSt8_Rb_treeISt4pairIiiES1_St9_IdentityIS1_ESt4lessIS1_ESaIS1_EE7_M_copyILb0ENS7_20_Reuse_or_alloc_nodeEEEPSt13_Rb_tree_nodeIS1_ERKS7_RT0_
FNA:68,0,_ZNSt8_Rb_treeIiiSt9_IdentityIiESt4lessIiESaIiEE7_M_copyILb0ENS5_11_Alloc_nodeEEEPSt13_Rb_tree_nodeIiERKS5_RT0_
FNA:68,0,_ZNSt8_Rb_treeIiiSt9_IdentityIiESt4lessIiESaIiEE7_M_copyILb0ENS5_20_Reuse_or_alloc_nodeEEEPSt13_Rb_tree_nodeIiERKS5_RT0_
FNL:69,896,900
FNA:69,0,_ZNSt8_Rb_treeISt4pairIiiES1_St9_IdentityIS1_ESt4lessIS1_ESaIS1_EE7_M_copyERKS7_
FNA:69,0,_ZNSt8_Rb_treeIiiSt9_IdentityIiESt4lessIiESaIiEE7_M_copyERKS5_
FNL:70,926,926
FNA:70,0,_ZNSt8_Rb_treeISt4pairIiiES1_St9_IdentityIS1_ESt4lessIS1_ESaIS1_EEC2Ev
FNL:71,929,931
FNA:71,0,_ZNSt8_Rb_treeIiiSt9_IdentityIiESt4lessIiESaIiEEC2ERKS3_RKS4_
FNL:72,933,938
FNA:72,0,_ZNSt8_Rb_treeISt4pairIiiES1_St9_IdentityIS1_ESt4lessIS1_ESaIS1_EEC2ERKS7_
FNA:72,0,_ZNSt8_Rb_treeIiiSt9_IdentityIiESt4lessIiESaIiEEC2ERKS5_
FNL:73,981,982
FNA:73,0,_ZNSt8_Rb_treeISt4pairIiiES1_St9_IdentityIS1_ESt4lessIS1_ESaIS1_EED2Ev
FNA:73,0,_ZNSt8_Rb_treeIiiSt9_IdentityIiESt4lessIiESaIiEED2Ev
FNL:74,993,994
FNA:74,0,_ZNSt8_Rb_treeISt4pairIiiES1_St9_IdentityIS1_ESt4lessIS1_ESaIS1_EE5beginEv
FNA:74,0,_ZNSt8_Rb_treeIiiSt9_IdentityIiESt4lessIiESaIiEE5beginEv
FNL:75,997,998
FNA:75,0,_ZNKSt8_Rb_treeISt4pairIiiES1_St9_IdentityIS1_ESt4lessIS1_ESaIS1_EE5beginEv
FNF:76
FNH:0
DA:108,0
DA:110,0
DA:111,0
DA:122,0
DA:124,0
DA:125,0
DA:142,0
DA:146,0
DA:148,0
DA:150,0
DA:169,0
DA:170,0
DA:171,0
DA:172,0
DA:173,0
DA:202,0
DA:204,0
DA:205,0
DA:206,0
DA:207,0
DA:208,0
DA:230,0
DA:231,0
DA:234,0
DA:235,0
DA:269,0
DA:270,0
DA:281,0
DA:283,0
DA:284,0
DA:296,0
DA:298,0
DA:299,0
DA:311,0
DA:312,0
DA:343,0
DA:344,0
DA:346,0
DA:347,0
DA:350,0
DA:351,0
DA:354,0
DA:355,0
DA:362,0
DA:364,0
DA:365,0
DA:392,0
DA:393,0
DA:441,0
DA:442,0
DA:444,0
DA:446,0
DA:448,0
DA:449,0
DA:452,0
DA:453,0
DA:459,0
DA:460,0
DA:464,0
DA:466,0
DA:467,0
DA:469,0
DA:470,0
DA:471,0
DA:474,0
DA:479,0
DA:481,0
DA:482,0
DA:484,0
DA:485,0
DA:486,0
DA:488,0
DA:490,0
DA:492,0
DA:494,0
DA:496,0
DA:497,0
DA:499,0
DA:500,0
DA:504,0
DA:507,0
DA:509,0
DA:521,0
DA:522,0
DA:526,0
DA:527,0
DA:545,0
DA:546,0
DA:549,0
DA:550,0
DA:558,0
DA:559,0
DA:562,0
DA:563,0
DA:588,0
DA:592,0
DA:593,0
DA:603,0
DA:607,0
DA:609,0
DA:610,0
DA:611,0
DA:616,0
DA:621,0
DA:622,0
DA:624,0
DA:627,0
DA:629,0
DA:630,0
DA:631,0
DA:635,0
DA:643,0
DA:644,0
DA:645,0
DA:646,0
DA:647,0
DA:665,0
DA:669,0
DA:670,0
DA:672,0
DA:673,0
DA:674,0
DA:675,0
DA:676,0
DA:698,0
DA:699,0
DA:700,0
DA:708,0
DA:709,0
DA:712,0
DA:713,0
DA:716,0
DA:717,0
DA:724,0
DA:725,0
DA:732,0
DA:733,0
DA:736,0
DA:737,0
DA:740,0
DA:743,0
DA:747,0
DA:748,0
DA:751,0
DA:752,0
DA:755,0
DA:773,0
DA:777,0
DA:778,0
DA:781,0
DA:782,0
DA:785,0
DA:786,0
DA:789,0
DA:790,0
DA:793,0
DA:794,0
DA:797,0
DA:798,0
DA:805,0
DA:806,0
DA:885,0
DA:888,0
DA:889,0
DA:890,0
DA:891,0
DA:892,0
DA:896,0
DA:898,0
DA:899,0
DA:926,0
DA:929,0
DA:931,0
DA:933,0
DA:934,0
DA:936,0
DA:937,0
DA:938,0
DA:981,0
DA:982,0
DA:993,0
DA:994,0
DA:997,0
DA:998,0
DA:1001,0
DA:1002,0
DA:1005,0
DA:1006,0
DA:1029,0
DA:1030,0
DA:1096,0
DA:1098,0
DA:1099,0
DA:1100,0
DA:1101,0
DA:1249,0
DA:1251,0
DA:1252,0
DA:1253,0
DA:1774,0
DA:1777,0
DA:1781,0
DA:1783,0
DA:1784,0
DA:1785,0
DA:1786,0
DA:1790,0
DA:1796,0
DA:1797,0
DA:1799,0
DA:1800,0
DA:1801,0
DA:1803,0
DA:1814,0
DA:1823,0
DA:1824,0
DA:1827,0
DA:1829,0
DA:1830,0
DA:1831,0
DA:1832,0
DA:1888,0
DA:1892,0
DA:1893,0
DA:1897,0
DA:1898,0
DA:1899,0
DA:1900,0
DA:1901,0
DA:1903,0
DA:1905,0
DA:1906,0
DA:1907,0
DA:1908,0
DA:1909,0
DA:1911,0
DA:1912,0
DA:1915,0
DA:1917,0
DA:1918,0
DA:1920,0
DA:1926,0
DA:1930,0
DA:1932,0
DA:1933,0
DA:1934,0
DA:1935,0
DA:1937,0
DA:1959,0
DA:1963,0
DA:1964,0
DA:1965,0
DA:1967,0
DA:1968,0
DA:2104,0
DA:2108,0
DA:2109,0
DA:2110,0
DA:2111,0
DA:2113,0
DA:2114,0
DA:2115,0
DA:2117,0
DA:2118,0
DA:2120,0
DA:2121,0
DA:2123,0
DA:2125,0
DA:2126,0
DA:2127,0
DA:2158,0
DA:2167,0
DA:2169,0
DA:2171,0
DA:2172,0
DA:2174,0
DA:2177,0
DA:2206,0
DA:2210,0
DA:2214,0
DA:2216,0
DA:2217,0
DA:2218,0
DA:2220,0
DA:2222,0
DA:2225,0
DA:2226,0
DA:2227,0
DA:2228,0
DA:2230,0
DA:2231,0
DA:2233,0
DA:2236,0
DA:2238,0
DA:2241,0
DA:2242,0
DA:2243,0
DA:2244,0
DA:2246,0
DA:2247,0
DA:2249,0
DA:2252,0
DA:2256,0
DA:2267,0
DA:2277,0
DA:2279,0
DA:2280,0
DA:2282,0
DA:2283,0
DA:2538,0
DA:2541,0
DA:2542,0
DA:2543,0
DA:2544,0
LF:314
LH:0
end_of_record
TN:
SF:/usr/include/c++/14/bits/stl_uninitialized.h
FNL:0,637,651
FNA:0,0,_ZNSt27__uninitialized_default_n_1ILb0EE18__uninit_default_nIPimEET_S3_T0_
FNL:1,660,671
FNA:1,0,_ZNSt27__uninitialized_default_n_1ILb1EE18__uninit_default_nIPimEET_S3_T0_
FNL:2,696,713
FNA:2,0,_ZSt25__uninitialized_default_nIPimET_S1_T0_
FNL:3,777,779
FNA:3,0,_ZSt27__uninitialized_default_n_aIPimiET_S1_T0_RSaIT1_E
FNF:4
FNH:0
DA:637,0
DA:639,0
DA:642,0
DA:643,0
DA:644,0
DA:660,0
DA:662,0
DA:665,0
DA:666,0
DA:667,0
DA:668,0
DA:670,0
DA:696,0
DA:699,0
DA:701,0
DA:707,0
DA:712,0
DA:777,0
DA:779,0
LF:19
LH:0
end_of_record
TN:
SF:/usr/include/c++/14/bits/stl_vector.h
FNL:0,1128,1132
FNA:0,0,_ZNSt6vectorIiSaIiEEixEm
FNL:1,145,147
FNA:1,0,_ZNSt12_Vector_baseIiSaIiEE12_Vector_implC2ERKS0_
FNL:2,1717,1722
FNA:2,0,_ZNSt6vectorIiSaIiEE21_M_default_initializeEm
FNL:3,1917,1923
FNA:3,0,_ZNSt6vectorIiSaIiEE17_S_check_init_lenEmRKS0_
FNL:4,1926,1935
FNA:4,0,_ZNSt6vectorIiSaIiEE11_S_max_sizeERKS0_
FNL:5,300,301
FNA:5,0,_ZNSt12_Vector_baseIiSaIiEE19_M_get_Tp_allocatorEv
FNL:6,332,334
FNA:6,0,_ZNSt12_Vector_baseIiSaIiEEC2EmRKS0_
FNL:7,366,370
FNA:7,0,_ZNSt12_Vector_baseIiSaIiEED2Ev
FNL:8,377,381
FNA:8,0,_ZNSt12_Vector_baseIiSaIiEE11_M_allocateEm
FNL:9,385,390
FNA:9,0,_ZNSt12_Vector_baseIiSaIiEE13_M_deallocateEPim
FNL:10,396,401
FNA:10,0,_ZNSt12_Vector_baseIiSaIiEE17_M_create_storageEm
FNL:11,556,558
FNA:11,0,_ZNSt6vectorIiSaIiEEC2EmRKS0_
FNL:12,733,738
FNA:12,0,_ZNSt6vectorIiSaIiEED2Ev
FNL:13,98,100
FNA:13,0,_ZNSt12_Vector_baseIiSaIiEE17_Vector_impl_dataC2Ev
FNF:14
FNH:0
DA:98,0
DA:99,0
DA:100,0
DA:145,0
DA:146,0
DA:147,0
DA:300,0
DA:301,0
DA:332,0
DA:333,0
DA:334,0
DA:366,0
DA:368,0
DA:369,0
DA:370,0
DA:377,0
DA:380,0
DA:385,0
DA:388,0
DA:389,0
DA:390,0
DA:396,0
DA:398,0
DA:399,0
DA:400,0
DA:401,0
DA:556,0
DA:557,0
DA:558,0
DA:733,0
DA:735,0
DA:736,0
DA:738,0
DA:1128,0
DA:1131,0
DA:1717,0
DA:1719,0
DA:1720,0
DA:1721,0
DA:1722,0
DA:1917,0
DA:1919,0
DA:1920,0
DA:1922,0
DA:1926,0
DA:1931,0
DA:1933,0
DA:1934,0
LF:48
LH:0
end_of_record
TN:
SF:/usr/include/c++/14/compare
FNL:0,1224,1243
FNA:0,0,_ZNKSt8__detail10_Synth3wayclIiiEEDaRKT_RKT0_QrqXltfL0p_fL0p0_RNS_18__boolean_testableEXltfL0p0_fL0p_RNS_18__boolean_testableEE
FNL:1,282,283
FNA:1,0,_ZSteqSt15strong_orderingNSt9__cmp_cat8__unspecE
FNL:2,291,292
FNA:2,0,_ZStltSt15strong_orderingNSt9__cmp_cat8__unspecE
FNF:3
FNH:0
DA:282,0
DA:283,0
DA:291,0
DA:292,0
DA:1224,0
DA:1233,0
LF:6
LH:0
end_of_record
TN:
SF:/usr/include/c++/14/ext/aligned_buffer.h
FNL:0,64,65
FNA:0,0,_ZN9__gnu_cxx16__aligned_membufISt4pairIiiEE7_M_addrEv
FNA:0,0,_ZN9__gnu_cxx16__aligned_membufIiE7_M_addrEv
FNL:1,68,69
FNA:1,0,_ZNK9__gnu_cxx16__aligned_membufISt4pairIiiEE7_M_addrEv
FNA:1,0,_ZNK9__gnu_cxx16__aligned_membufIiE7_M_addrEv
FNL:2,72,73
FNA:2,0,_ZN9__gnu_cxx16__aligned_membufISt4pairIiiEE6_M_ptrEv
FNA:2,0,_ZN9__gnu_cxx16__aligned_membufIiE6_M_ptrEv
FNL:3,76,77
FNA:3,0,_ZNK9__gnu_cxx16__aligned_membufISt4pairIiiEE6_M_ptrEv
FNA:3,0,_ZNK9__gnu_cxx16__aligned_membufIiE6_M_ptrEv
FNF:4
FNH:0
DA:64,0
DA:65,0
DA:68,0
DA:69,0
DA:72,0
DA:73,0
DA:76,0
DA:77,0
LF:8
LH:0
end_of_record
TN:
SF:/usr/include/c++/14/ext/alloc_traits.h
FNF:0
FNH:0
DA:98,0
DA:106,0
DA:118,0
LF:3
LH:0
end_of_record
TN:
SF:/usr/include/c++/14/initializer_list
FNL:0,69,69
FNA:0,0,_ZNKSt16initializer_listIiE4sizeEv
FNL:1,73,73
FNA:1,0,_ZNKSt16initializer_listIiE5beginEv
FNL:2,77,77
FNA:2,0,_ZNKSt16initializer_listIiE3endEv
FNF:3
FNH:0
DA:69,0
DA:73,0
DA:77,0
LF:3
LH:0
end_of_record
TN:
SF:/usr/include/c++/14/new
FNL:0,179,180
FNA:0,0,_ZnwmPv
FNF:1
FNH:0
DA:179,0
DA:180,0
LF:2
LH:0
end_of_record
TN:
SF:/usr/include/c++/14/type_traits
FNL:0,3832,3839
FNA:0,0,_ZSt21is_constant_evaluatedv
FNF:1
FNH:0
DA:3832,0
DA:3835,0
LF:2
LH:0
end_of_record
TN:
SF:/usr/include/c++/14/x86_64-redhat-linux/bits/c++config.h
FNF:0
FNH:0
DA:2394,0
LF:1
LH:0
end_of_record
