TN:
SF:/home/monika/Documents/problems/16594번： A Study on Groups/main.cpp
FNL:0,8,67
FNA:0,1,main
FNF:1
FNH:1
DA:8,1
DA:10,1
DA:11,1
DA:14,1
DA:16,1
DA:18,6
DA:20,5
DA:23,1
DA:25,0
DA:26,0
DA:28,0
DA:31,0
DA:33,0
DA:36,1
DA:38,1
DA:39,2
DA:41,1
DA:44,1
DA:45,1
DA:47,1
DA:48,1
DA:49,1
DA:51,1
DA:52,2
DA:54,1
DA:55,1
DA:58,1
DA:60,0
DA:61,0
DA:64,1
DA:66,1
DA:67,1
LF:32
LH:25
end_of_record
TN:
SF:/usr/include/c++/14/bit
FNL:0,201,243
FNA:0,1,_ZSt13__countl_zeroImEiT_
FNL:1,371,375
FNA:1,1,_ZSt11__bit_widthImEiT_
FNF:2
FNH:2
DA:201,1
DA:204,1
DA:206,1
DA:207,0
DA:209,1
DA:210,1
DA:211,1
DA:220,1
DA:221,1
DA:371,1
DA:373,1
DA:374,1
LF:12
LH:11
end_of_record
TN:
SF:/usr/include/c++/14/bits/alloc_traits.h
FNF:0
FNH:0
DA:515,2
DA:550,2
DA:993,2
DA:994,2
LF:4
LH:4
end_of_record
TN:
SF:/usr/include/c++/14/bits/allocator.h
FNF:0
FNH:0
DA:161,2
DA:166,4
DA:182,4
DA:189,2
DA:191,0
DA:192,0
DA:193,0
DA:196,2
DA:203,2
DA:205,0
DA:206,0
DA:208,2
LF:12
LH:7
end_of_record
TN:
SF:/usr/include/c++/14/bits/cpp_type_traits.h
FNL:0,608,609
FNA:0,4,_ZSt12__miter_baseIN9__gnu_cxx17__normal_iteratorIPxSt6vectorIxSaIxEEEEET_S7_
FNF:1
FNH:1
DA:608,4
DA:609,4
LF:2
LH:2
end_of_record
TN:
SF:/usr/include/c++/14/bits/move.h
FNL:0,137,138
FNA:0,11,_ZSt4moveIRxEONSt16remove_referenceIT_E4typeEOS2_
FNL:1,226,237
FNA:1,0,_ZSt4swapIxENSt9enable_ifIXsrSt6__and_IJSt6__not_ISt15__is_tuple_likeIT_EESt21is_move_constructibleIS4_ESt18is_move_assignableIS4_EEE5valueEvE4typeERS4_SE_
FNL:2,51,52
FNA:2,1,_ZSt11__addressofIxEPT_RS0_
FNL:3,71,72
FNA:3,0,_ZSt7forwardIRxEOT_RNSt16remove_referenceIS1_E4typeE
FNF:4
FNH:2
DA:51,1
DA:52,1
DA:71,0
DA:72,0
DA:137,11
DA:138,11
DA:226,0
DA:234,0
DA:235,0
DA:236,0
DA:237,0
LF:11
LH:4
end_of_record
TN:
SF:/usr/include/c++/14/bits/new_allocator.h
FNL:0,126,152
FNA:0,2,_ZNSt15__new_allocatorIxE8allocateEmPKv
FNL:1,156,173
FNA:1,2,_ZNSt15__new_allocatorIxE10deallocateEPxm
FNF:2
FNH:2
DA:88,2
DA:92,4
DA:126,2
DA:134,2
DA:138,0
DA:139,0
DA:140,0
DA:151,2
DA:156,2
DA:172,2
DA:233,2
LF:11
LH:8
end_of_record
TN:
SF:/usr/include/c++/14/bits/predefined_ops.h
FNL:0,108,109
FNA:0,3,_ZN9__gnu_cxx5__ops15__val_comp_iterENS0_15_Iter_less_iterE
FNL:1,44,45
FNA:1,4,_ZNK9__gnu_cxx5__ops15_Iter_less_iterclINS_17__normal_iteratorIPxSt6vectorIxSaIxEEEES8_EEbT_T0_
FNL:2,50,51
FNA:2,1,_ZN9__gnu_cxx5__ops16__iter_less_iterEv
FNL:3,68,69
FNA:3,0,_ZNK9__gnu_cxx5__ops14_Iter_less_valclINS_17__normal_iteratorIPxSt6vectorIxSaIxEEEExEEbT_RT0_
FNL:4,97,98
FNA:4,6,_ZNK9__gnu_cxx5__ops14_Val_less_iterclIxNS_17__normal_iteratorIPxSt6vectorIxSaIxEEEEEEbRT_T0_
FNF:5
FNH:4
DA:44,4
DA:45,4
DA:50,1
DA:51,1
DA:68,0
DA:69,0
DA:97,6
DA:98,6
DA:108,3
DA:109,3
LF:10
LH:8
end_of_record
TN:
SF:/usr/include/c++/14/bits/stl_algo.h
FNL:0,1589,1597
FNA:0,0,_ZSt13__heap_selectIN9__gnu_cxx17__normal_iteratorIPxSt6vectorIxSaIxEEEENS0_5__ops15_Iter_less_iterEEvT_S9_S9_T0_
FNL:1,1750,1764
FNA:1,3,_ZSt25__unguarded_linear_insertIN9__gnu_cxx17__normal_iteratorIPxSt6vectorIxSaIxEEEENS0_5__ops14_Val_less_iterEEvT_T0_
FNL:2,1770,1788
FNA:2,1,_ZSt16__insertion_sortIN9__gnu_cxx17__normal_iteratorIPxSt6vectorIxSaIxEEEENS0_5__ops15_Iter_less_iterEEvT_S9_T0_
FNL:3,1794,1800
FNA:3,0,_ZSt26__unguarded_insertion_sortIN9__gnu_cxx17__normal_iteratorIPxSt6vectorIxSaIxEEEENS0_5__ops15_Iter_less_iterEEvT_S9_T0_
FNL:4,1812,1823
FNA:4,1,_ZSt22__final_insertion_sortIN9__gnu_cxx17__normal_iteratorIPxSt6vectorIxSaIxEEEENS0_5__ops15_Iter_less_iterEEvT_S9_T0_
FNL:5,1829,1845
FNA:5,0,_ZSt21__unguarded_partitionIN9__gnu_cxx17__normal_iteratorIPxSt6vectorIxSaIxEEEENS0_5__ops15_Iter_less_iterEET_S9_S9_S9_T0_
FNL:6,1851,1858
FNA:6,0,_ZSt27__unguarded_partition_pivotIN9__gnu_cxx17__normal_iteratorIPxSt6vectorIxSaIxEEEENS0_5__ops15_Iter_less_iterEET_S9_S9_T0_
FNL:7,1863,1870
FNA:7,0,_ZSt14__partial_sortIN9__gnu_cxx17__normal_iteratorIPxSt6vectorIxSaIxEEEENS0_5__ops15_Iter_less_iterEEvT_S9_S9_T0_
FNL:8,1876,1893
FNA:8,1,_ZSt16__introsort_loopIN9__gnu_cxx17__normal_iteratorIPxSt6vectorIxSaIxEEEElNS0_5__ops15_Iter_less_iterEEvT_S9_T0_T1_
FNL:9,1900,1910
FNA:9,1,_ZSt6__sortIN9__gnu_cxx17__normal_iteratorIPxSt6vectorIxSaIxEEEENS0_5__ops15_Iter_less_iterEEvT_S9_T0_
FNL:10,4762,4773
FNA:10,1,_ZSt4sortIN9__gnu_cxx17__normal_iteratorIPxSt6vectorIxSaIxEEEEEvT_S7_
FNL:11,85,103
FNA:11,0,_ZSt22__move_median_to_firstIN9__gnu_cxx17__normal_iteratorIPxSt6vectorIxSaIxEEEENS0_5__ops15_Iter_less_iterEEvT_S9_S9_S9_T0_
FNF:12
FNH:6
DA:85,0
DA:88,0
DA:90,0
DA:91,0
DA:92,0
DA:93,0
DA:95,0
DA:97,0
DA:98,0
DA:99,0
DA:100,0
DA:102,0
DA:103,0
DA:1589,0
DA:1593,0
DA:1594,0
DA:1595,0
DA:1596,0
DA:1597,0
DA:1750,3
DA:1754,3
DA:1755,3
DA:1756,3
DA:1757,6
DA:1759,3
DA:1760,3
DA:1761,3
DA:1763,3
DA:1764,3
DA:1770,1
DA:1773,1
DA:1775,5
DA:1777,4
DA:1780,1
DA:1781,1
DA:1782,1
DA:1785,3
DA:1786,3
DA:1794,0
DA:1797,0
DA:1798,0
DA:1799,0
DA:1800,0
DA:1812,1
DA:1815,1
DA:1817,0
DA:1818,0
DA:1822,1
DA:1823,1
DA:1829,0
DA:1835,0
DA:1836,0
DA:1837,0
DA:1838,0
DA:1839,0
DA:1840,0
DA:1841,0
DA:1842,0
DA:1843,0
DA:1851,0
DA:1854,0
DA:1855,0
DA:1857,0
DA:1863,0
DA:1868,0
DA:1869,0
DA:1870,0
DA:1876,1
DA:1880,1
DA:1882,0
DA:1884,0
DA:1885,0
DA:1887,0
DA:1889,0
DA:1890,0
DA:1891,0
DA:1900,1
DA:1903,1
DA:1905,1
DA:1906,1
DA:1908,1
DA:1910,1
DA:4762,1
DA:4772,1
DA:4773,1
LF:85
LH:34
end_of_record
TN:
SF:/usr/include/c++/14/bits/stl_algobase.h
FNL:0,1040,1040
FNA:0,1,_ZSt17__size_to_integerm
FNL:1,1140,1153
FNA:1,1,_ZSt10__fill_n_aIPxmxET_S1_T0_RKT1_St26random_access_iterator_tag
FNL:2,1175,1182
FNA:2,1,_ZSt6fill_nIPxmxET_S1_T0_RKT1_
FNL:3,1544,1557
FNA:3,1,_ZSt4__lgIlET_S0_
FNL:4,155,187
FNA:4,0,_ZSt9iter_swapIN9__gnu_cxx17__normal_iteratorIPxSt6vectorIxSaIxEEEES6_EvT_T0_
FNL:5,233,241
FNA:5,2,_ZSt3minImERKT_S2_S2_
FNL:6,316,318
FNA:6,2,_ZSt12__niter_baseIPxET_S1_
FNL:7,346,347
FNA:7,1,_ZSt12__niter_wrapIN9__gnu_cxx17__normal_iteratorIPxSt6vectorIxSaIxEEEES2_ET_S7_T0_
FNL:8,353,354
FNA:8,1,_ZSt12__niter_wrapIPxET_RKS1_S1_
FNL:9,398,408
FNA:9,1,_ZNSt11__copy_moveILb0ELb0ESt26random_access_iterator_tagE8__copy_mISt16reverse_iteratorIPxES4_EET0_T_S7_S6_
FNL:10,437,438
FNA:10,0,_ZNSt11__copy_moveILb1ELb0ESt26random_access_iterator_tagE12__assign_oneIxxEEvPT_PT0_
FNL:11,512,522
FNA:11,1,_ZSt14__copy_move_a2ILb0ESt16reverse_iteratorIPxES1_ET1_T0_S4_S3_
FNL:12,547,548
FNA:12,1,_ZSt14__copy_move_a1ILb0ESt16reverse_iteratorIPxES1_ET1_T0_S4_S3_
FNL:13,553,559
FNA:13,1,_ZSt13__copy_move_aILb0ESt16reverse_iteratorIN9__gnu_cxx17__normal_iteratorIPxSt6vectorIxSaIxEEEEES3_ET1_T0_SA_S9_
FNL:14,642,652
FNA:14,1,_ZSt4copyISt16reverse_iteratorIN9__gnu_cxx17__normal_iteratorIPxSt6vectorIxSaIxEEEEES3_ET0_T_SA_S9_
FNL:15,745,752
FNA:15,0,_ZNSt20__copy_move_backwardILb1ELb0ESt26random_access_iterator_tagE13__copy_move_bIPxS3_EET0_T_S5_S4_
FNL:16,762,771
FNA:16,1,_ZNSt20__copy_move_backwardILb1ELb1ESt26random_access_iterator_tagE13__copy_move_bIxxEEPT0_PT_S6_S4_
FNL:17,777,790
FNA:17,1,_ZSt23__copy_move_backward_a2ILb1EPxS0_ET1_T0_S2_S1_
FNL:18,795,796
FNA:18,1,_ZSt23__copy_move_backward_a1ILb1EPxS0_ET1_T0_S2_S1_
FNL:19,823,829
FNA:19,1,_ZSt22__copy_move_backward_aILb1EN9__gnu_cxx17__normal_iteratorIPxSt6vectorIxSaIxEEEES6_ET1_T0_S8_S7_
FNL:20,913,925
FNA:20,1,_ZSt13move_backwardIN9__gnu_cxx17__normal_iteratorIPxSt6vectorIxSaIxEEEES6_ET0_T_S8_S7_
FNL:21,947,953
FNA:21,1,_ZSt9__fill_a1IPxxEN9__gnu_cxx11__enable_ifIXsrSt11__is_scalarIT0_E7__valueEvE6__typeET_S8_RKS4_
FNL:22,997,998
FNA:22,1,_ZSt8__fill_aIPxxEvT_S1_RKT0_
FNF:23
FNH:20
DA:155,0
DA:185,0
DA:187,0
DA:233,2
DA:238,2
DA:239,0
DA:240,2
DA:316,2
DA:318,2
DA:346,1
DA:347,1
DA:353,1
DA:354,1
DA:398,1
DA:401,6
DA:403,5
DA:404,5
DA:405,5
DA:407,1
DA:437,0
DA:438,0
DA:512,1
DA:516,1
DA:518,0
DA:521,1
DA:547,1
DA:548,1
DA:553,1
DA:555,2
DA:556,1
DA:557,2
DA:558,2
DA:642,1
DA:651,1
DA:745,0
DA:748,0
DA:749,0
DA:750,0
DA:751,0
DA:762,1
DA:764,1
DA:765,1
DA:766,1
DA:767,0
DA:769,0
DA:770,1
DA:777,1
DA:781,1
DA:783,0
DA:787,1
DA:789,1
DA:795,1
DA:796,1
DA:823,1
DA:825,1
DA:828,1
DA:913,1
DA:922,1
DA:924,1
DA:947,1
DA:950,1
DA:951,5
DA:952,4
DA:953,1
DA:997,1
DA:998,1
DA:1040,1
DA:1140,1
DA:1146,1
DA:1147,0
DA:1151,1
DA:1152,1
DA:1175,1
DA:1180,1
DA:1181,2
DA:1544,1
DA:1547,1
LF:77
LH:61
end_of_record
TN:
SF:/usr/include/c++/14/bits/stl_construct.h
FNL:0,109,120
FNA:0,1,_ZSt10_ConstructIxJEEvPT_DpOT0_
FNA:0,0,_ZSt10_ConstructIxJRxEEvPT_DpOT0_
FNL:1,146,153
FNA:1,0,_ZSt8_DestroyIxEvPT_
FNL:2,160,164
FNA:2,0,_ZNSt12_Destroy_auxILb0EE9__destroyIPxEEvT_S3_
FNL:3,172,172
FNA:3,2,_ZNSt12_Destroy_auxILb1EE9__destroyIPxEEvT_S3_
FNL:4,182,197
FNA:4,2,_ZSt8_DestroyIPxEvT_S1_
FNL:5,80,89
FNA:5,0,_ZSt10destroy_atIxEvPT_
FNL:6,94,97
FNA:6,0,_ZSt12construct_atIxJEEDTgsnwcvPvLi0E_T_pispcl7declvalIT0_EEEEPS1_DpOS2_
FNA:6,0,_ZSt12construct_atIxJRxEEDTgsnwcvPvLi0E_T_pispcl7declvalIT0_EEEEPS2_DpOS3_
FNF:7
FNH:3
DA:80,0
DA:88,0
DA:89,0
DA:94,0
DA:97,0
DA:109,1
DA:112,1
DA:115,0
DA:116,0
DA:119,1
DA:146,0
DA:149,0
DA:153,0
DA:160,0
DA:162,0
DA:163,0
DA:164,0
DA:172,2
DA:182,2
DA:192,2
DA:193,0
DA:196,2
LF:22
LH:7
end_of_record
TN:
SF:/usr/include/c++/14/bits/stl_heap.h
FNL:0,135,147
FNA:0,0,_ZSt11__push_heapIN9__gnu_cxx17__normal_iteratorIPxSt6vectorIxSaIxEEEElxNS0_5__ops14_Iter_less_valEEvT_T0_SA_T1_RT2_
FNL:1,224,249
FNA:1,0,_ZSt13__adjust_heapIN9__gnu_cxx17__normal_iteratorIPxSt6vectorIxSaIxEEEElxNS0_5__ops15_Iter_less_iterEEvT_T0_SA_T1_T2_
FNL:2,254,267
FNA:2,0,_ZSt10__pop_heapIN9__gnu_cxx17__normal_iteratorIPxSt6vectorIxSaIxEEEENS0_5__ops15_Iter_less_iterEEvT_S9_S9_RT0_
FNL:3,340,362
FNA:3,0,_ZSt11__make_heapIN9__gnu_cxx17__normal_iteratorIPxSt6vectorIxSaIxEEEENS0_5__ops15_Iter_less_iterEEvT_S9_RT0_
FNL:4,419,427
FNA:4,0,_ZSt11__sort_heapIN9__gnu_cxx17__normal_iteratorIPxSt6vectorIxSaIxEEEENS0_5__ops15_Iter_less_iterEEvT_S9_RT0_
FNF:5
FNH:0
DA:135,0
DA:139,0
DA:140,0
DA:142,0
DA:143,0
DA:144,0
DA:146,0
DA:147,0
DA:224,0
DA:227,0
DA:228,0
DA:229,0
DA:231,0
DA:232,0
DA:234,0
DA:235,0
DA:236,0
DA:238,0
DA:240,0
DA:241,0
DA:243,0
DA:247,0
DA:248,0
DA:249,0
DA:254,0
DA:262,0
DA:263,0
DA:264,0
DA:265,0
DA:266,0
DA:267,0
DA:340,0
DA:348,0
DA:349,0
DA:351,0
DA:352,0
DA:353,0
DA:355,0
DA:356,0
DA:358,0
DA:359,0
DA:360,0
DA:419,0
DA:422,0
DA:424,0
DA:425,0
DA:427,0
LF:47
LH:0
end_of_record
TN:
SF:/usr/include/c++/14/bits/stl_iterator.h
FNL:0,1067,1068
FNA:0,7,_ZN9__gnu_cxx17__normal_iteratorIPxSt6vectorIxSaIxEEEC2ERKS1_
FNL:1,1090,1091
FNA:1,28,_ZNK9__gnu_cxx17__normal_iteratorIPxSt6vectorIxSaIxEEEdeEv
FNL:2,1100,1104
FNA:2,4,_ZN9__gnu_cxx17__normal_iteratorIPxSt6vectorIxSaIxEEEppEv
FNL:3,1114,1118
FNA:3,6,_ZN9__gnu_cxx17__normal_iteratorIPxSt6vectorIxSaIxEEEmmEv
FNL:4,1138,1139
FNA:4,3,_ZNK9__gnu_cxx17__normal_iteratorIPxSt6vectorIxSaIxEEEplEl
FNL:5,1148,1149
FNA:5,0,_ZNK9__gnu_cxx17__normal_iteratorIPxSt6vectorIxSaIxEEEmiEl
FNL:6,1153,1154
FNA:6,28,_ZNK9__gnu_cxx17__normal_iteratorIPxSt6vectorIxSaIxEEE4baseEv
FNL:7,1188,1194
FNA:7,7,_ZN9__gnu_cxxeqIPxSt6vectorIxSaIxEEEEbRKNS_17__normal_iteratorIT_T0_EESA_QrqXeqcldtfL0p_4baseEcldtfL0p0_4baseERSt14convertible_toIbEE
FNL:8,1199,1202
FNA:8,0,_ZN9__gnu_cxxssIPxSt6vectorIxSaIxEEEEDTclL_ZNSt8__detail11__synth3wayEEcl7declvalIRT_EEcl7declvalIS7_EEEERKNS_17__normal_iteratorIS6_T0_EESD_
FNL:9,1325,1328
FNA:9,4,_ZN9__gnu_cxxmiIPxSt6vectorIxSaIxEEEENS_17__normal_iteratorIT_T0_E15difference_typeERKS8_SB_
FNL:10,1348,1350
FNA:10,6,_ZSt12__niter_baseIPxSt6vectorIxSaIxEEET_N9__gnu_cxx17__normal_iteratorIS4_T0_EE
FNL:11,188,191
FNA:11,4,_ZNSt16reverse_iteratorIN9__gnu_cxx17__normal_iteratorIPxSt6vectorIxSaIxEEEEEC2ES6_
FNA:11,2,_ZNSt16reverse_iteratorIPxEC2ES0_
FNL:12,197,200
FNA:12,18,_ZNSt16reverse_iteratorIN9__gnu_cxx17__normal_iteratorIPxSt6vectorIxSaIxEEEEEC2ERKS7_
FNA:12,4,_ZNSt16reverse_iteratorIPxEC2ERKS1_
FNL:13,241,243
FNA:13,6,_ZNKSt16reverse_iteratorIN9__gnu_cxx17__normal_iteratorIPxSt6vectorIxSaIxEEEEE4baseEv
FNA:13,2,_ZNKSt16reverse_iteratorIPxE4baseEv
FNL:14,257,261
FNA:14,0,_ZNKSt16reverse_iteratorIN9__gnu_cxx17__normal_iteratorIPxSt6vectorIxSaIxEEEEEdeEv
FNA:14,5,_ZNKSt16reverse_iteratorIPxEdeEv
FNL:15,289,293
FNA:15,0,_ZNSt16reverse_iteratorIN9__gnu_cxx17__normal_iteratorIPxSt6vectorIxSaIxEEEEEppEv
FNA:15,5,_ZNSt16reverse_iteratorIPxEppEv
FNL:16,586,589
FNA:16,0,_ZSteqIN9__gnu_cxx17__normal_iteratorIPxSt6vectorIxSaIxEEEEEbRKSt16reverse_iteratorIT_ESB_QrqXeqcldtfL0p_4baseEcldtfL0p0_4baseERSt14convertible_toIbEE
FNL:17,618,621
FNA:17,1,_ZStmiIN9__gnu_cxx17__normal_iteratorIPxSt6vectorIxSaIxEEEES6_EDTmicldtfp0_4baseEcldtfp_4baseEERKSt16reverse_iteratorIT_ERKS8_IT0_E
FNA:17,1,_ZStmiIPxS0_EDTmicldtfp0_4baseEcldtfp_4baseEERKSt16reverse_iteratorIT_ERKS2_IT0_E
FNL:18,635,636
FNA:18,2,_ZSt23__make_reverse_iteratorIN9__gnu_cxx17__normal_iteratorIPxSt6vectorIxSaIxEEEEESt16reverse_iteratorIT_ES8_
FNA:18,2,_ZSt23__make_reverse_iteratorIPxESt16reverse_iteratorIT_ES2_
FNL:19,660,662
FNA:19,2,_ZSt12__niter_baseIN9__gnu_cxx17__normal_iteratorIPxSt6vectorIxSaIxEEEEEDTcl23__make_reverse_iteratorcl12__niter_basecldtfp_4baseEEEESt16reverse_iteratorIT_E
FNL:20,672,674
FNA:20,2,_ZSt12__miter_baseIN9__gnu_cxx17__normal_iteratorIPxSt6vectorIxSaIxEEEEEDTcl23__make_reverse_iteratorcl12__miter_basecldtfp_4baseEEEESt16reverse_iteratorIT_E
FNF:21
FNH:18
DA:188,6
DA:190,6
DA:191,6
DA:197,22
DA:199,22
DA:200,22
DA:241,8
DA:243,8
DA:257,5
DA:259,5
DA:260,5
DA:289,5
DA:291,5
DA:292,5
DA:586,0
DA:589,0
DA:618,2
DA:621,2
DA:635,4
DA:636,4
DA:660,2
DA:662,2
DA:672,2
DA:674,2
DA:1067,7
DA:1068,7
DA:1090,28
DA:1091,28
DA:1100,4
DA:1102,4
DA:1103,4
DA:1114,6
DA:1116,6
DA:1117,6
DA:1138,3
DA:1139,3
DA:1148,0
DA:1149,0
DA:1153,28
DA:1154,28
DA:1188,7
DA:1194,7
DA:1199,0
DA:1202,0
DA:1325,4
DA:1328,4
DA:1348,6
DA:1350,6
LF:48
LH:42
end_of_record
TN:
SF:/usr/include/c++/14/bits/stl_iterator_base_funcs.h
FNF:0
FNH:0
DA:106,1
DA:151,2
DA:152,3
LF:3
LH:3
end_of_record
TN:
SF:/usr/include/c++/14/bits/stl_iterator_base_types.h
FNF:0
FNH:0
DA:240,3
LF:1
LH:1
end_of_record
TN:
SF:/usr/include/c++/14/bits/stl_uninitialized.h
FNL:0,113,128
FNA:0,0,_ZSt16__do_uninit_copyISt16reverse_iteratorIN9__gnu_cxx17__normal_iteratorIPxSt6vectorIxSaIxEEEEES3_ET0_T_SA_S9_
FNL:1,145,147
FNA:1,1,_ZNSt20__uninitialized_copyILb1EE13__uninit_copyISt16reverse_iteratorIN9__gnu_cxx17__normal_iteratorIPxSt6vectorIxSaIxEEEEES5_EET0_T_SC_SB_
FNL:2,163,186
FNA:2,1,_ZSt18uninitialized_copyISt16reverse_iteratorIN9__gnu_cxx17__normal_iteratorIPxSt6vectorIxSaIxEEEEES3_ET0_T_SA_S9_
FNL:3,366,374
FNA:3,1,_ZSt22__uninitialized_copy_aISt16reverse_iteratorIN9__gnu_cxx17__normal_iteratorIPxSt6vectorIxSaIxEEEEES3_xET0_T_SA_S9_RSaIT1_E
FNL:4,637,651
FNA:4,0,_ZNSt27__uninitialized_default_n_1ILb0EE18__uninit_default_nIPxmEET_S3_T0_
FNL:5,660,671
FNA:5,1,_ZNSt27__uninitialized_default_n_1ILb1EE18__uninit_default_nIPxmEET_S3_T0_
FNL:6,696,713
FNA:6,1,_ZSt25__uninitialized_default_nIPxmET_S1_T0_
FNL:7,777,779
FNA:7,1,_ZSt27__uninitialized_default_n_aIPxmxET_S1_T0_RSaIT1_E
FNF:8
FNH:6
DA:113,0
DA:116,0
DA:119,0
DA:120,0
DA:121,0
DA:145,1
DA:147,1
DA:163,1
DA:174,1
DA:181,1
DA:185,1
DA:366,1
DA:370,1
DA:371,0
DA:373,1
DA:637,0
DA:639,0
DA:642,0
DA:643,0
DA:644,0
DA:660,1
DA:662,1
DA:665,1
DA:666,1
DA:667,1
DA:668,1
DA:670,1
DA:696,1
DA:699,1
DA:701,0
DA:707,1
DA:712,1
DA:777,1
DA:779,1
LF:34
LH:22
end_of_record
TN:
SF:/usr/include/c++/14/bits/stl_vector.h
FNL:0,1128,1132
FNA:0,7,_ZNSt6vectorIxSaIxEEixEm
FNL:1,145,147
FNA:1,2,_ZNSt12_Vector_baseIxSaIxEE12_Vector_implC2ERKS0_
FNL:2,1689,1700
FNA:2,1,_ZNSt6vectorIxSaIxEE19_M_range_initializeISt16reverse_iteratorIN9__gnu_cxx17__normal_iteratorIPxS1_EEEEEvT_S9_St20forward_iterator_tag
FNL:3,1717,1722
FNA:3,1,_ZNSt6vectorIxSaIxEE21_M_default_initializeEm
FNL:4,1917,1923
FNA:4,2,_ZNSt6vectorIxSaIxEE17_S_check_init_lenEmRKS0_
FNL:5,1926,1935
FNA:5,2,_ZNSt6vectorIxSaIxEE11_S_max_sizeERKS0_
FNL:6,300,301
FNA:6,5,_ZNSt12_Vector_baseIxSaIxEE19_M_get_Tp_allocatorEv
FNL:7,320,321
FNA:7,1,_ZNSt12_Vector_baseIxSaIxEEC2ERKS0_
FNL:8,332,334
FNA:8,1,_ZNSt12_Vector_baseIxSaIxEEC2EmRKS0_
FNL:9,366,370
FNA:9,2,_ZNSt12_Vector_baseIxSaIxEED2Ev
FNL:10,377,381
FNA:10,2,_ZNSt12_Vector_baseIxSaIxEE11_M_allocateEm
FNL:11,385,390
FNA:11,2,_ZNSt12_Vector_baseIxSaIxEE13_M_deallocateEPxm
FNL:12,396,401
FNA:12,1,_ZNSt12_Vector_baseIxSaIxEE17_M_create_storageEm
FNL:13,556,558
FNA:13,1,_ZNSt6vectorIxSaIxEEC2EmRKS0_
FNL:14,707,713
FNA:14,1,_ZNSt6vectorIxSaIxEEC2ISt16reverse_iteratorIN9__gnu_cxx17__normal_iteratorIPxS1_EEEvEET_S9_RKS0_
FNL:15,733,738
FNA:15,2,_ZNSt6vectorIxSaIxEED2Ev
FNL:16,873,874
FNA:16,2,_ZNSt6vectorIxSaIxEE5beginEv
FNL:17,893,894
FNA:17,2,_ZNSt6vectorIxSaIxEE3endEv
FNL:18,913,914
FNA:18,1,_ZNSt6vectorIxSaIxEE6rbeginEv
FNL:19,933,934
FNA:19,1,_ZNSt6vectorIxSaIxEE4rendEv
FNL:20,98,100
FNA:20,2,_ZNSt12_Vector_baseIxSaIxEE17_Vector_impl_dataC2Ev
FNF:21
FNH:21
DA:98,2
DA:99,2
DA:100,2
DA:145,2
DA:146,2
DA:147,2
DA:300,5
DA:301,5
DA:320,1
DA:321,1
DA:332,1
DA:333,1
DA:334,1
DA:366,2
DA:368,2
DA:369,2
DA:370,2
DA:377,2
DA:380,4
DA:385,2
DA:388,2
DA:389,2
DA:390,2
DA:396,1
DA:398,1
DA:399,1
DA:400,1
DA:401,1
DA:556,1
DA:557,1
DA:558,1
DA:707,1
DA:709,1
DA:711,1
DA:712,1
DA:713,1
DA:733,2
DA:735,2
DA:736,2
DA:738,2
DA:873,2
DA:874,2
DA:893,2
DA:894,2
DA:913,1
DA:914,1
DA:933,1
DA:934,1
DA:1128,7
DA:1131,7
DA:1689,1
DA:1692,1
DA:1694,1
DA:1695,1
DA:1696,1
DA:1697,1
DA:1699,1
DA:1700,1
DA:1717,1
DA:1719,1
DA:1720,1
DA:1721,1
DA:1722,1
DA:1917,2
DA:1919,2
DA:1920,0
DA:1922,2
DA:1926,2
DA:1931,2
DA:1933,2
DA:1934,2
LF:71
LH:70
end_of_record
TN:
SF:/usr/include/c++/14/compare
FNL:0,1224,1243
FNA:0,0,_ZNKSt8__detail10_Synth3wayclIPxS2_EEDaRKT_RKT0_QrqXltfL0p_fL0p0_RNS_18__boolean_testableEXltfL0p0_fL0p_RNS_18__boolean_testableEE
FNL:1,291,292
FNA:1,0,_ZStltSt15strong_orderingNSt9__cmp_cat8__unspecE
FNF:2
FNH:0
DA:291,0
DA:292,0
DA:1224,0
DA:1233,0
LF:4
LH:0
end_of_record
TN:
SF:/usr/include/c++/14/new
FNL:0,179,180
FNA:0,1,_ZnwmPv
FNF:1
FNH:1
DA:179,1
DA:180,1
LF:2
LH:2
end_of_record
TN:
SF:/usr/include/c++/14/type_traits
FNL:0,3832,3839
FNA:0,4,_ZSt21is_constant_evaluatedv
FNF:1
FNH:1
DA:3832,4
DA:3835,4
LF:2
LH:2
end_of_record
TN:
SF:/usr/include/c++/14/x86_64-redhat-linux/bits/c++config.h
FNF:0
FNH:0
DA:2394,7
LF:1
LH:1
end_of_record
