TN:
SF:/home/monika/Documents/problems/15143번： Atomic Mass/main.cpp
FNL:0,9,52
FNA:0,0,main
FNF:1
FNH:0
DA:9,0
DA:11,0
DA:12,0
DA:13,0
DA:14,0
DA:16,0
DA:18,0
DA:20,0
DA:21,0
DA:24,0
DA:25,0
DA:29,0
DA:31,0
DA:32,0
DA:33,0
DA:35,0
DA:39,0
DA:41,0
DA:42,0
DA:45,0
DA:46,0
DA:47,0
DA:48,0
DA:50,0
DA:51,0
DA:52,0
LF:26
LH:0
end_of_record
TN:
SF:/usr/include/c++/14/bits/alloc_traits.h
FNF:0
FNH:0
DA:514,0
DA:515,0
DA:549,0
DA:550,0
DA:566,0
DA:577,0
DA:593,0
DA:599,0
DA:626,0
DA:627,0
LF:10
LH:0
end_of_record
TN:
SF:/usr/include/c++/14/bits/allocator.h
FNF:0
FNH:0
DA:161,0
DA:165,0
DA:176,0
DA:182,0
DA:187,0
DA:196,0
DA:201,0
DA:208,0
LF:8
LH:0
end_of_record
TN:
SF:/usr/include/c++/14/bits/basic_string.h
FNL:0,1572,1579
FNA:0,0,_ZNSt7__cxx1112basic_stringIcSt11char_traitsIcESaIcEE9push_backEc
FNL:1,285,289
FNA:1,0,_ZNSt7__cxx1112basic_stringIcSt11char_traitsIcESaIcEE10_M_disposeEv
FNL:2,3755,3761
FNA:2,0,_ZSteqIcSt11char_traitsIcESaIcEEbRKNSt7__cxx1112basic_stringIT_T0_T1_EESA_
FNL:3,430,436
FNA:3,0,_ZNSt7__cxx1112basic_stringIcSt11char_traitsIcESaIcEE7_S_copyEPcPKcm
FNL:4,552,558
FNA:4,0,_ZNSt7__cxx1112basic_stringIcSt11char_traitsIcESaIcEEC2ERKS4_
FNF:5
FNH:0
DA:129,0
DA:131,0
DA:186,0
DA:197,0
DA:198,0
DA:217,0
DA:218,0
DA:222,0
DA:223,0
DA:227,0
DA:228,0
DA:232,0
DA:235,0
DA:243,0
DA:246,0
DA:254,0
DA:255,0
DA:259,0
DA:261,0
DA:262,0
DA:267,0
DA:269,0
DA:271,0
DA:272,0
DA:285,0
DA:287,0
DA:288,0
DA:289,0
DA:293,0
DA:294,0
DA:342,0
DA:346,0
DA:347,0
DA:353,0
DA:430,0
DA:432,0
DA:433,0
DA:435,0
DA:436,0
DA:482,0
DA:483,0
DA:527,0
DA:529,0
DA:531,0
DA:532,0
DA:552,0
DA:553,0
DA:554,0
DA:556,0
DA:558,0
DA:808,0
DA:809,0
DA:1076,0
DA:1077,0
DA:1083,0
DA:1084,0
DA:1180,0
DA:1182,0
DA:1265,0
DA:1269,0
DA:1272,0
DA:1572,0
DA:1574,0
DA:1575,0
DA:1576,0
DA:1577,0
DA:1578,0
DA:1579,0
DA:2653,0
DA:2654,0
DA:3755,0
DA:3759,0
DA:3760,0
DA:4616,0
DA:4617,0
LF:75
LH:0
end_of_record
TN:
SF:/usr/include/c++/14/bits/basic_string.tcc
FNL:0,138,160
FNA:0,0,_ZNSt7__cxx1112basic_stringIcSt11char_traitsIcESaIcEE9_M_createERmm
FNL:1,221,252
FNA:1,0,_ZNSt7__cxx1112basic_stringIcSt11char_traitsIcESaIcEE12_M_constructIPcEEvT_S7_St20forward_iterator_tag
FNL:2,325,345
FNA:2,0,_ZNSt7__cxx1112basic_stringIcSt11char_traitsIcESaIcEE9_M_mutateEmmPKcm
FNF:3
FNH:0
DA:138,0
DA:143,0
DA:144,0
DA:149,0
DA:151,0
DA:153,0
DA:154,0
DA:159,0
DA:221,0
DA:225,0
DA:227,0
DA:229,0
DA:230,0
DA:239,0
DA:242,0
DA:245,0
DA:247,0
DA:249,0
DA:251,0
DA:252,0
DA:325,0
DA:329,0
DA:331,0
DA:332,0
DA:334,0
DA:335,0
DA:336,0
DA:337,0
DA:338,0
DA:339,0
DA:340,0
DA:342,0
DA:343,0
DA:344,0
DA:345,0
LF:35
LH:0
end_of_record
TN:
SF:/usr/include/c++/14/bits/char_traits.h
FNF:0
FNH:0
DA:343,0
DA:346,0
DA:350,0
DA:351,0
DA:366,0
DA:368,0
DA:371,0
DA:381,0
DA:419,0
DA:421,0
DA:424,0
DA:427,0
LF:12
LH:0
end_of_record
TN:
SF:/usr/include/c++/14/bits/functional_hash.h
FNF:0
FNH:0
DA:204,0
DA:206,0
LF:2
LH:0
end_of_record
TN:
SF:/usr/include/c++/14/bits/hashtable.h
FNL:0,2065,2087
FNA:0,0,_ZNKSt10_HashtableINSt7__cxx1112basic_stringIcSt11char_traitsIcESaIcEEESt4pairIKS5_dESaIS8_ENSt8__detail10_Select1stESt8equal_toIS5_ESt4hashIS5_ENSA_18_Mod_range_hashingENSA_20_Default_ranged_hashENSA_20_Prime_rehash_policyENSA_17_Hashtable_traitsILb1ELb0ELb1EEEE19_M_find_before_nodeEmRS7_m
FNL:1,2228,2252
FNA:1,0,_ZNSt10_HashtableINSt7__cxx1112basic_stringIcSt11char_traitsIcESaIcEEESt4pairIKS5_dESaIS8_ENSt8__detail10_Select1stESt8equal_toIS5_ESt4hashIS5_ENSA_18_Mod_range_hashingENSA_20_Default_ranged_hashENSA_20_Prime_rehash_policyENSA_17_Hashtable_traitsILb1ELb0ELb1EEEE21_M_insert_unique_nodeEmmPNSA_10_Hash_nodeIS8_Lb1EEEm
FNL:2,2584,2593
FNA:2,0,_ZNSt10_HashtableINSt7__cxx1112basic_stringIcSt11char_traitsIcESaIcEEESt4pairIKS5_dESaIS8_ENSt8__detail10_Select1stESt8equal_toIS5_ESt4hashIS5_ENSA_18_Mod_range_hashingENSA_20_Default_ranged_hashENSA_20_Prime_rehash_policyENSA_17_Hashtable_traitsILb1ELb0ELb1EEEE5clearEv
FNL:3,2623,2657
FNA:3,0,_ZNSt10_HashtableINSt7__cxx1112basic_stringIcSt11char_traitsIcESaIcEEESt4pairIKS5_dESaIS8_ENSt8__detail10_Select1stESt8equal_toIS5_ESt4hashIS5_ENSA_18_Mod_range_hashingENSA_20_Default_ranged_hashENSA_20_Prime_rehash_policyENSA_17_Hashtable_traitsILb1ELb0ELb1EEEE9_M_rehashEmSt17integral_constantIbLb1EE
FNL:4,316,316
FNA:4,0,_ZNSt10_HashtableINSt7__cxx1112basic_stringIcSt11char_traitsIcESaIcEEESt4pairIKS5_dESaIS8_ENSt8__detail10_Select1stESt8equal_toIS5_ESt4hashIS5_ENSA_18_Mod_range_hashingENSA_20_Default_ranged_hashENSA_20_Prime_rehash_policyENSA_17_Hashtable_traitsILb1ELb0ELb1EEEE12_Scoped_nodeD2Ev
FNL:5,460,461
FNA:5,0,_ZNSt10_HashtableINSt7__cxx1112basic_stringIcSt11char_traitsIcESaIcEEESt4pairIKS5_dESaIS8_ENSt8__detail10_Select1stESt8equal_toIS5_ESt4hashIS5_ENSA_18_Mod_range_hashingENSA_20_Default_ranged_hashENSA_20_Prime_rehash_policyENSA_17_Hashtable_traitsILb1ELb0ELb1EEEE21_M_deallocate_bucketsEv
FNL:6,841,865
FNA:6,0,_ZNSt10_HashtableINSt7__cxx1112basic_stringIcSt11char_traitsIcESaIcEEESt4pairIKS5_dESaIS8_ENSt8__detail10_Select1stESt8equal_toIS5_ESt4hashIS5_ENSA_18_Mod_range_hashingENSA_20_Default_ranged_hashENSA_20_Prime_rehash_policyENSA_17_Hashtable_traitsILb1ELb0ELb1EEEE22_M_insert_bucket_beginEmPNSA_10_Hash_nodeIS8_Lb1EEE
FNF:7
FNH:0
DA:310,0
DA:311,0
DA:312,0
DA:316,0
DA:421,0
DA:422,0
DA:439,0
DA:441,0
DA:443,0
DA:444,0
DA:447,0
DA:451,0
DA:453,0
DA:456,0
DA:460,0
DA:461,0
DA:473,0
DA:474,0
DA:539,0
DA:799,0
DA:800,0
DA:803,0
DA:804,0
DA:819,0
DA:822,0
DA:823,0
DA:824,0
DA:841,0
DA:843,0
DA:847,0
DA:848,0
DA:855,0
DA:856,0
DA:858,0
DA:861,0
DA:863,0
DA:865,0
DA:1658,0
DA:1671,0
DA:1672,0
DA:1673,0
DA:2065,0
DA:2071,0
DA:2072,0
DA:2075,0
DA:2078,0
DA:2081,0
DA:2228,0
DA:2234,0
DA:2236,0
DA:2239,0
DA:2241,0
DA:2242,0
DA:2245,0
DA:2246,0
DA:2249,0
DA:2250,0
DA:2251,0
DA:2252,0
DA:2584,0
DA:2588,0
DA:2589,0
DA:2590,0
DA:2591,0
DA:2592,0
DA:2593,0
DA:2623,0
DA:2627,0
DA:2628,0
DA:2629,0
DA:2630,0
DA:2631,0
DA:2633,0
DA:2635,0
DA:2636,0
DA:2638,0
DA:2639,0
DA:2640,0
DA:2641,0
DA:2642,0
DA:2647,0
DA:2648,0
DA:2654,0
DA:2655,0
DA:2656,0
DA:2657,0
LF:86
LH:0
end_of_record
TN:
SF:/usr/include/c++/14/bits/hashtable_policy.h
FNL:0,2017,2036
FNA:0,0,_ZNSt8__detail16_Hashtable_allocISaINS_10_Hash_nodeISt4pairIKNSt7__cxx1112basic_stringIcSt11char_traitsIcESaIcEEEdELb1EEEEE16_M_allocate_nodeIJRKSt21piecewise_construct_tSt5tupleIJRS9_EESI_IJEEEEEPSB_DpOT_
FNL:1,2058,2066
FNA:1,0,_ZNSt8__detail16_Hashtable_allocISaINS_10_Hash_nodeISt4pairIKNSt7__cxx1112basic_stringIcSt11char_traitsIcESaIcEEEdELb1EEEEE19_M_deallocate_nodesEPSB_
FNL:2,2070,2079
FNA:2,0,_ZNSt8__detail16_Hashtable_allocISaINS_10_Hash_nodeISt4pairIKNSt7__cxx1112basic_stringIcSt11char_traitsIcESaIcEEEdELb1EEEEE19_M_allocate_bucketsEm
FNL:3,832,853
FNA:3,0,_ZNSt8__detail9_Map_baseINSt7__cxx1112basic_stringIcSt11char_traitsIcESaIcEEESt4pairIKS6_dESaIS9_ENS_10_Select1stESt8equal_toIS6_ESt4hashIS6_ENS_18_Mod_range_hashingENS_20_Default_ranged_hashENS_20_Prime_rehash_policyENS_17_Hashtable_traitsILb1ELb0ELb1EEELb1EEixERS8_
FNF:4
FNH:0
DA:112,0
DA:113,0
DA:319,0
DA:339,0
DA:344,0
DA:349,0
DA:381,0
DA:386,0
DA:387,0
DA:399,0
DA:442,0
DA:443,0
DA:450,0
DA:451,0
DA:532,0
DA:534,0
DA:550,0
DA:551,0
DA:577,0
DA:578,0
DA:585,0
DA:586,0
DA:730,0
DA:731,0
DA:732,0
DA:736,0
DA:739,0
DA:832,0
DA:837,0
DA:838,0
DA:839,0
DA:840,0
DA:841,0
DA:843,0
DA:846,0
DA:847,0
DA:850,0
DA:851,0
DA:852,0
DA:853,0
DA:1242,0
DA:1245,0
DA:1328,0
DA:1333,0
DA:1337,0
DA:1358,0
DA:1359,0
DA:1373,0
DA:1377,0
DA:1389,0
DA:1390,0
DA:1719,0
DA:1720,0
DA:1728,0
DA:1735,0
DA:1742,0
DA:1759,0
DA:1761,0
DA:1942,0
DA:1970,0
DA:2017,0
DA:2020,0
DA:2021,0
DA:2022,0
DA:2025,0
DA:2026,0
DA:2028,0
DA:2030,0
DA:2032,0
DA:2033,0
DA:2034,0
DA:2040,0
DA:2042,0
DA:2043,0
DA:2044,0
DA:2048,0
DA:2051,0
DA:2052,0
DA:2053,0
DA:2058,0
DA:2060,0
DA:2062,0
DA:2063,0
DA:2064,0
DA:2066,0
DA:2070,0
DA:2073,0
DA:2075,0
DA:2076,0
DA:2077,0
DA:2078,0
DA:2083,0
DA:2088,0
DA:2089,0
DA:2090,0
DA:2091,0
LF:96
LH:0
end_of_record
TN:
SF:/usr/include/c++/14/bits/ios_base.h
FNL:0,1104,1108
FNA:0,0,_ZSt5fixedRSt8ios_base
FNF:1
FNH:0
DA:84,0
DA:85,0
DA:89,0
DA:90,0
DA:104,0
DA:105,0
DA:109,0
DA:110,0
DA:726,0
DA:728,0
DA:729,0
DA:730,0
DA:731,0
DA:761,0
DA:763,0
DA:764,0
DA:765,0
DA:1104,0
DA:1106,0
DA:1107,0
LF:20
LH:0
end_of_record
TN:
SF:/usr/include/c++/14/bits/new_allocator.h
FNL:0,126,152
FNA:0,0,_ZNSt15__new_allocatorIPNSt8__detail15_Hash_node_baseEE8allocateEmPKv
FNF:1
FNH:0
DA:126,0
DA:134,0
DA:138,0
DA:139,0
DA:140,0
DA:151,0
DA:156,0
DA:172,0
LF:8
LH:0
end_of_record
TN:
SF:/usr/include/c++/14/bits/stl_construct.h
FNF:0
FNH:0
DA:80,0
DA:88,0
DA:94,0
DA:97,0
LF:4
LH:0
end_of_record
TN:
SF:/usr/include/c++/14/bits/stl_function.h
FNF:0
FNH:0
DA:374,0
DA:375,0
LF:2
LH:0
end_of_record
TN:
SF:/usr/include/c++/14/bits/stl_iterator_base_funcs.h
FNF:0
FNH:0
DA:100,0
DA:106,0
DA:148,0
DA:151,0
LF:4
LH:0
end_of_record
TN:
SF:/usr/include/c++/14/bits/stl_pair.h
FNF:0
FNH:0
DA:284,0
LF:1
LH:0
end_of_record
TN:
SF:/usr/include/c++/14/bits/unordered_map.h
FNF:0
FNH:0
DA:109,0
DA:148,0
DA:987,0
DA:988,0
LF:4
LH:0
end_of_record
TN:
SF:/usr/include/c++/14/ext/aligned_buffer.h
FNF:0
FNH:0
DA:106,0
DA:117,0
LF:2
LH:0
end_of_record
TN:
SF:/usr/include/c++/14/ext/alloc_traits.h
FNF:0
FNH:0
DA:97,0
DA:98,0
LF:2
LH:0
end_of_record
TN:
SF:/usr/include/c++/14/iomanip
FNF:0
FNH:0
DA:215,0
DA:217,0
LF:2
LH:0
end_of_record
TN:
SF:/usr/include/c++/14/istream
FNF:0
FNH:0
DA:220,0
DA:221,0
LF:2
LH:0
end_of_record
TN:
SF:/usr/include/c++/14/ostream
FNF:0
FNH:0
DA:135,0
DA:140,0
DA:228,0
DA:229,0
LF:4
LH:0
end_of_record
TN:
SF:/usr/include/c++/14/tuple
FNF:0
FNH:0
DA:201,0
DA:202,0
DA:242,0
DA:556,0
DA:566,0
DA:567,0
DA:586,0
DA:588,0
DA:971,0
DA:974,0
DA:995,0
DA:2427,0
DA:2428,0
DA:2443,0
DA:2444,0
DA:2872,0
DA:2877,0
DA:2884,0
DA:2887,0
DA:2888,0
LF:20
LH:0
end_of_record
