TN:
SF:/home/monika/Documents/problems/19622번： 회의실 배정 3/main.cpp
FNL:0,11,52
FNA:0,1,main
FNL:1,25,26
FNA:1,10,_ZZ4mainENKUlRK7MeetingS1_E_clES1_S1_
FNF:2
FNH:2
DA:11,1
DA:13,1
DA:14,1
DA:17,1
DA:19,1
DA:20,7
DA:22,6
DA:25,1
DA:26,10
DA:28,1
DA:30,0
DA:31,0
DA:34,1
DA:36,0
DA:37,0
DA:40,1
DA:41,1
DA:42,1
DA:44,5
DA:46,4
DA:49,1
DA:51,1
DA:52,1
LF:23
LH:19
end_of_record
TN:
SF:/usr/include/c++/14/bit
FNL:0,201,243
FNA:0,1,_ZSt13__countl_zeroImEiT_
FNL:1,371,375
FNA:1,1,_ZSt11__bit_widthImEiT_
FNF:2
FNH:2
DA:201,1
DA:204,1
DA:206,1
DA:207,0
DA:209,1
DA:210,1
DA:211,1
DA:220,1
DA:221,1
DA:371,1
DA:373,1
DA:374,1
LF:12
LH:11
end_of_record
TN:
SF:/usr/include/c++/14/bits/alloc_traits.h
FNF:0
FNH:0
DA:515,2
DA:550,2
DA:993,2
DA:994,2
LF:4
LH:4
end_of_record
TN:
SF:/usr/include/c++/14/bits/allocator.h
FNF:0
FNH:0
DA:161,2
DA:166,4
DA:182,4
DA:189,2
DA:191,0
DA:192,0
DA:193,0
DA:196,2
DA:203,2
DA:205,0
DA:206,0
DA:208,2
LF:12
LH:7
end_of_record
TN:
SF:/usr/include/c++/14/bits/cpp_type_traits.h
FNL:0,608,609
FNA:0,0,_ZSt12__miter_baseIN9__gnu_cxx17__normal_iteratorIP7MeetingSt6vectorIS2_SaIS2_EEEEET_S8_
FNF:1
FNH:0
DA:608,0
DA:609,0
LF:2
LH:0
end_of_record
TN:
SF:/usr/include/c++/14/bits/move.h
FNL:0,137,138
FNA:0,10,_ZSt4moveIR7MeetingEONSt16remove_referenceIT_E4typeEOS3_
FNA:0,5,_ZSt4moveIRN9__gnu_cxx5__ops15_Iter_comp_iterIZ4mainEUlRK7MeetingS5_E_EEEONSt16remove_referenceIT_E4typeEOSA_
FNA:0,7,_ZSt4moveIRZ4mainEUlRK7MeetingS2_E_EONSt16remove_referenceIT_E4typeEOS6_
FNL:1,226,237
FNA:1,0,_ZSt4swapI7MeetingENSt9enable_ifIXsrSt6__and_IJSt6__not_ISt15__is_tuple_likeIT_EESt21is_move_constructibleIS5_ESt18is_move_assignableIS5_EEE5valueEvE4typeERS5_SF_
FNL:2,51,52
FNA:2,1,_ZSt11__addressofI7MeetingEPT_RS1_
FNA:2,0,_ZSt11__addressofIxEPT_RS0_
FNL:3,71,72
FNA:3,0,_ZSt7forwardIRKxEOT_RNSt16remove_referenceIS2_E4typeE
FNF:4
FNH:2
DA:51,1
DA:52,1
DA:71,0
DA:72,0
DA:137,22
DA:138,22
DA:226,0
DA:234,0
DA:235,0
DA:236,0
DA:237,0
LF:11
LH:4
end_of_record
TN:
SF:/usr/include/c++/14/bits/new_allocator.h
FNL:0,126,152
FNA:0,1,_ZNSt15__new_allocatorI7MeetingE8allocateEmPKv
FNA:0,1,_ZNSt15__new_allocatorIxE8allocateEmPKv
FNL:1,156,173
FNA:1,1,_ZNSt15__new_allocatorI7MeetingE10deallocateEPS0_m
FNA:1,1,_ZNSt15__new_allocatorIxE10deallocateEPxm
FNF:2
FNH:2
DA:88,2
DA:92,4
DA:126,2
DA:134,2
DA:138,0
DA:139,0
DA:140,0
DA:151,2
DA:156,2
DA:172,2
DA:233,2
LF:11
LH:8
end_of_record
TN:
SF:/usr/include/c++/14/bits/predefined_ops.h
FNL:0,150,152
FNA:0,1,_ZN9__gnu_cxx5__ops15_Iter_comp_iterIZ4mainEUlRK7MeetingS4_E_EC2ES5_
FNL:1,157,158
FNA:1,5,_ZN9__gnu_cxx5__ops15_Iter_comp_iterIZ4mainEUlRK7MeetingS4_E_EclINS_17__normal_iteratorIPS2_St6vectorIS2_SaIS2_EEEESD_EEbT_T0_
FNL:2,164,165
FNA:2,1,_ZN9__gnu_cxx5__ops16__iter_comp_iterIZ4mainEUlRK7MeetingS4_E_EENS0_15_Iter_comp_iterIT_EES7_
FNL:3,195,196
FNA:3,0,_ZN9__gnu_cxx5__ops14_Iter_comp_valIZ4mainEUlRK7MeetingS4_E_EclINS_17__normal_iteratorIPS2_St6vectorIS2_SaIS2_EEEES2_EEbT_RT0_
FNL:4,231,233
FNA:4,5,_ZN9__gnu_cxx5__ops14_Val_comp_iterIZ4mainEUlRK7MeetingS4_E_EC2EONS0_15_Iter_comp_iterIS5_EE
FNL:5,239,240
FNA:5,5,_ZN9__gnu_cxx5__ops14_Val_comp_iterIZ4mainEUlRK7MeetingS4_E_EclIS2_NS_17__normal_iteratorIPS2_St6vectorIS2_SaIS2_EEEEEEbRT_T0_
FNL:6,252,253
FNA:6,5,_ZN9__gnu_cxx5__ops15__val_comp_iterIZ4mainEUlRK7MeetingS4_E_EENS0_14_Val_comp_iterIT_EENS0_15_Iter_comp_iterIS7_EE
FNF:7
FNH:6
DA:150,1
DA:151,1
DA:152,1
DA:157,5
DA:158,5
DA:164,1
DA:165,1
DA:195,0
DA:196,0
DA:231,5
DA:232,5
DA:233,5
DA:239,5
DA:240,5
DA:252,5
DA:253,5
LF:16
LH:14
end_of_record
TN:
SF:/usr/include/c++/14/bits/stl_algo.h
FNL:0,1589,1597
FNA:0,0,_ZSt13__heap_selectIN9__gnu_cxx17__normal_iteratorIP7MeetingSt6vectorIS2_SaIS2_EEEENS0_5__ops15_Iter_comp_iterIZ4mainEUlRKS2_SB_E_EEEvT_SE_SE_T0_
FNL:1,1750,1764
FNA:1,5,_ZSt25__unguarded_linear_insertIN9__gnu_cxx17__normal_iteratorIP7MeetingSt6vectorIS2_SaIS2_EEEENS0_5__ops14_Val_comp_iterIZ4mainEUlRKS2_SB_E_EEEvT_T0_
FNL:2,1770,1788
FNA:2,1,_ZSt16__insertion_sortIN9__gnu_cxx17__normal_iteratorIP7MeetingSt6vectorIS2_SaIS2_EEEENS0_5__ops15_Iter_comp_iterIZ4mainEUlRKS2_SB_E_EEEvT_SE_T0_
FNL:3,1794,1800
FNA:3,0,_ZSt26__unguarded_insertion_sortIN9__gnu_cxx17__normal_iteratorIP7MeetingSt6vectorIS2_SaIS2_EEEENS0_5__ops15_Iter_comp_iterIZ4mainEUlRKS2_SB_E_EEEvT_SE_T0_
FNL:4,1812,1823
FNA:4,1,_ZSt22__final_insertion_sortIN9__gnu_cxx17__normal_iteratorIP7MeetingSt6vectorIS2_SaIS2_EEEENS0_5__ops15_Iter_comp_iterIZ4mainEUlRKS2_SB_E_EEEvT_SE_T0_
FNL:5,1829,1845
FNA:5,0,_ZSt21__unguarded_partitionIN9__gnu_cxx17__normal_iteratorIP7MeetingSt6vectorIS2_SaIS2_EEEENS0_5__ops15_Iter_comp_iterIZ4mainEUlRKS2_SB_E_EEET_SE_SE_SE_T0_
FNL:6,1851,1858
FNA:6,0,_ZSt27__unguarded_partition_pivotIN9__gnu_cxx17__normal_iteratorIP7MeetingSt6vectorIS2_SaIS2_EEEENS0_5__ops15_Iter_comp_iterIZ4mainEUlRKS2_SB_E_EEET_SE_SE_T0_
FNL:7,1863,1870
FNA:7,0,_ZSt14__partial_sortIN9__gnu_cxx17__normal_iteratorIP7MeetingSt6vectorIS2_SaIS2_EEEENS0_5__ops15_Iter_comp_iterIZ4mainEUlRKS2_SB_E_EEEvT_SE_SE_T0_
FNL:8,1876,1893
FNA:8,1,_ZSt16__introsort_loopIN9__gnu_cxx17__normal_iteratorIP7MeetingSt6vectorIS2_SaIS2_EEEElNS0_5__ops15_Iter_comp_iterIZ4mainEUlRKS2_SB_E_EEEvT_SE_T0_T1_
FNL:9,1900,1910
FNA:9,1,_ZSt6__sortIN9__gnu_cxx17__normal_iteratorIP7MeetingSt6vectorIS2_SaIS2_EEEENS0_5__ops15_Iter_comp_iterIZ4mainEUlRKS2_SB_E_EEEvT_SE_T0_
FNL:10,4793,4806
FNA:10,1,_ZSt4sortIN9__gnu_cxx17__normal_iteratorIP7MeetingSt6vectorIS2_SaIS2_EEEEZ4mainEUlRKS2_S9_E_EvT_SB_T0_
FNL:11,85,103
FNA:11,0,_ZSt22__move_median_to_firstIN9__gnu_cxx17__normal_iteratorIP7MeetingSt6vectorIS2_SaIS2_EEEENS0_5__ops15_Iter_comp_iterIZ4mainEUlRKS2_SB_E_EEEvT_SE_SE_SE_T0_
FNF:12
FNH:6
DA:85,0
DA:88,0
DA:90,0
DA:91,0
DA:92,0
DA:93,0
DA:95,0
DA:97,0
DA:98,0
DA:99,0
DA:100,0
DA:102,0
DA:103,0
DA:1589,0
DA:1593,0
DA:1594,0
DA:1595,0
DA:1596,0
DA:1597,0
DA:1750,5
DA:1754,5
DA:1755,5
DA:1756,5
DA:1757,5
DA:1759,0
DA:1760,0
DA:1761,0
DA:1763,5
DA:1764,5
DA:1770,1
DA:1773,1
DA:1775,6
DA:1777,5
DA:1780,0
DA:1781,0
DA:1782,0
DA:1785,5
DA:1794,0
DA:1797,0
DA:1798,0
DA:1800,0
DA:1812,1
DA:1815,1
DA:1817,0
DA:1818,0
DA:1822,1
DA:1823,1
DA:1829,0
DA:1835,0
DA:1836,0
DA:1837,0
DA:1838,0
DA:1839,0
DA:1840,0
DA:1841,0
DA:1842,0
DA:1843,0
DA:1851,0
DA:1854,0
DA:1855,0
DA:1857,0
DA:1863,0
DA:1868,0
DA:1869,0
DA:1870,0
DA:1876,1
DA:1880,1
DA:1882,0
DA:1884,0
DA:1885,0
DA:1887,0
DA:1889,0
DA:1890,0
DA:1891,0
DA:1900,1
DA:1903,1
DA:1905,1
DA:1906,1
DA:1908,1
DA:1910,1
DA:4793,1
DA:4805,1
DA:4806,1
LF:83
LH:27
end_of_record
TN:
SF:/usr/include/c++/14/bits/stl_algobase.h
FNL:0,1040,1040
FNA:0,2,_ZSt17__size_to_integerm
FNL:1,1140,1153
FNA:1,1,_ZSt10__fill_n_aIP7MeetingmS0_ET_S2_T0_RKT1_St26random_access_iterator_tag
FNA:1,1,_ZSt10__fill_n_aIPxmxET_S1_T0_RKT1_St26random_access_iterator_tag
FNL:2,1175,1182
FNA:2,1,_ZSt6fill_nIP7MeetingmS0_ET_S2_T0_RKT1_
FNA:2,1,_ZSt6fill_nIPxmxET_S1_T0_RKT1_
FNL:3,1544,1557
FNA:3,1,_ZSt4__lgIlET_S0_
FNL:4,155,187
FNA:4,0,_ZSt9iter_swapIN9__gnu_cxx17__normal_iteratorIP7MeetingSt6vectorIS2_SaIS2_EEEES7_EvT_T0_
FNL:5,233,241
FNA:5,2,_ZSt3minImERKT_S2_S2_
FNL:6,257,265
FNA:6,5,_ZSt3maxIxERKT_S2_S2_
FNL:7,316,318
FNA:7,0,_ZSt12__niter_baseIP7MeetingET_S2_
FNL:8,346,347
FNA:8,0,_ZSt12__niter_wrapIN9__gnu_cxx17__normal_iteratorIP7MeetingSt6vectorIS2_SaIS2_EEEES3_ET_S8_T0_
FNL:9,437,438
FNA:9,0,_ZNSt11__copy_moveILb1ELb0ESt26random_access_iterator_tagE12__assign_oneI7MeetingS3_EEvPT_PT0_
FNL:10,745,752
FNA:10,0,_ZNSt20__copy_move_backwardILb1ELb0ESt26random_access_iterator_tagE13__copy_move_bIP7MeetingS4_EET0_T_S6_S5_
FNL:11,762,771
FNA:11,0,_ZNSt20__copy_move_backwardILb1ELb1ESt26random_access_iterator_tagE13__copy_move_bI7MeetingS3_EEPT0_PT_S7_S5_
FNL:12,777,790
FNA:12,0,_ZSt23__copy_move_backward_a2ILb1EP7MeetingS1_ET1_T0_S3_S2_
FNL:13,795,796
FNA:13,0,_ZSt23__copy_move_backward_a1ILb1EP7MeetingS1_ET1_T0_S3_S2_
FNL:14,823,829
FNA:14,0,_ZSt22__copy_move_backward_aILb1EN9__gnu_cxx17__normal_iteratorIP7MeetingSt6vectorIS2_SaIS2_EEEES7_ET1_T0_S9_S8_
FNL:15,913,925
FNA:15,0,_ZSt13move_backwardIN9__gnu_cxx17__normal_iteratorIP7MeetingSt6vectorIS2_SaIS2_EEEES7_ET0_T_S9_S8_
FNL:16,936,941
FNA:16,1,_ZSt9__fill_a1IP7MeetingS0_EN9__gnu_cxx11__enable_ifIXntsrSt11__is_scalarIT0_E7__valueEvE6__typeET_S9_RKS5_
FNL:17,947,953
FNA:17,1,_ZSt9__fill_a1IPxxEN9__gnu_cxx11__enable_ifIXsrSt11__is_scalarIT0_E7__valueEvE6__typeET_S8_RKS4_
FNL:18,997,998
FNA:18,1,_ZSt8__fill_aIP7MeetingS0_EvT_S2_RKT0_
FNA:18,1,_ZSt8__fill_aIPxxEvT_S1_RKT0_
FNF:19
FNH:9
DA:155,0
DA:185,0
DA:187,0
DA:233,2
DA:238,2
DA:239,0
DA:240,2
DA:257,5
DA:262,5
DA:263,4
DA:264,1
DA:316,0
DA:318,0
DA:346,0
DA:347,0
DA:437,0
DA:438,0
DA:745,0
DA:748,0
DA:749,0
DA:750,0
DA:751,0
DA:762,0
DA:764,0
DA:765,0
DA:766,0
DA:767,0
DA:769,0
DA:770,0
DA:777,0
DA:781,0
DA:783,0
DA:787,0
DA:789,0
DA:795,0
DA:796,0
DA:823,0
DA:825,0
DA:828,0
DA:913,0
DA:922,0
DA:924,0
DA:936,1
DA:939,6
DA:940,5
DA:941,1
DA:947,1
DA:950,1
DA:951,7
DA:952,6
DA:953,1
DA:997,2
DA:998,2
DA:1040,2
DA:1140,2
DA:1146,2
DA:1147,0
DA:1151,2
DA:1152,2
DA:1175,2
DA:1180,2
DA:1181,4
DA:1544,1
DA:1547,1
LF:64
LH:28
end_of_record
TN:
SF:/usr/include/c++/14/bits/stl_construct.h
FNL:0,109,120
FNA:0,1,_ZSt10_ConstructI7MeetingJEEvPT_DpOT0_
FNA:0,0,_ZSt10_ConstructIxJRKxEEvPT_DpOT0_
FNL:1,146,153
FNA:1,0,_ZSt8_DestroyI7MeetingEvPT_
FNA:1,0,_ZSt8_DestroyIxEvPT_
FNL:2,160,164
FNA:2,0,_ZNSt12_Destroy_auxILb0EE9__destroyIP7MeetingEEvT_S4_
FNA:2,0,_ZNSt12_Destroy_auxILb0EE9__destroyIPxEEvT_S3_
FNL:3,172,172
FNA:3,1,_ZNSt12_Destroy_auxILb1EE9__destroyIP7MeetingEEvT_S4_
FNA:3,1,_ZNSt12_Destroy_auxILb1EE9__destroyIPxEEvT_S3_
FNL:4,182,197
FNA:4,1,_ZSt8_DestroyIP7MeetingEvT_S2_
FNA:4,1,_ZSt8_DestroyIPxEvT_S1_
FNL:5,80,89
FNA:5,0,_ZSt10destroy_atI7MeetingEvPT_
FNA:5,0,_ZSt10destroy_atIxEvPT_
FNL:6,94,97
FNA:6,0,_ZSt12construct_atI7MeetingJEEDTgsnwcvPvLi0E_T_pispcl7declvalIT0_EEEEPS2_DpOS3_
FNA:6,0,_ZSt12construct_atIxJRKxEEDTgsnwcvPvLi0E_T_pispcl7declvalIT0_EEEEPS3_DpOS4_
FNF:7
FNH:3
DA:80,0
DA:88,0
DA:89,0
DA:94,0
DA:97,0
DA:109,1
DA:112,1
DA:115,0
DA:116,0
DA:119,1
DA:146,0
DA:149,0
DA:153,0
DA:160,0
DA:162,0
DA:163,0
DA:164,0
DA:172,2
DA:182,2
DA:192,2
DA:193,0
DA:196,2
LF:22
LH:7
end_of_record
TN:
SF:/usr/include/c++/14/bits/stl_heap.h
FNL:0,135,147
FNA:0,0,_ZSt11__push_heapIN9__gnu_cxx17__normal_iteratorIP7MeetingSt6vectorIS2_SaIS2_EEEElS2_NS0_5__ops14_Iter_comp_valIZ4mainEUlRKS2_SB_E_EEEvT_T0_SF_T1_RT2_
FNL:1,224,249
FNA:1,0,_ZSt13__adjust_heapIN9__gnu_cxx17__normal_iteratorIP7MeetingSt6vectorIS2_SaIS2_EEEElS2_NS0_5__ops15_Iter_comp_iterIZ4mainEUlRKS2_SB_E_EEEvT_T0_SF_T1_T2_
FNL:2,254,267
FNA:2,0,_ZSt10__pop_heapIN9__gnu_cxx17__normal_iteratorIP7MeetingSt6vectorIS2_SaIS2_EEEENS0_5__ops15_Iter_comp_iterIZ4mainEUlRKS2_SB_E_EEEvT_SE_SE_RT0_
FNL:3,340,362
FNA:3,0,_ZSt11__make_heapIN9__gnu_cxx17__normal_iteratorIP7MeetingSt6vectorIS2_SaIS2_EEEENS0_5__ops15_Iter_comp_iterIZ4mainEUlRKS2_SB_E_EEEvT_SE_RT0_
FNL:4,419,427
FNA:4,0,_ZSt11__sort_heapIN9__gnu_cxx17__normal_iteratorIP7MeetingSt6vectorIS2_SaIS2_EEEENS0_5__ops15_Iter_comp_iterIZ4mainEUlRKS2_SB_E_EEEvT_SE_RT0_
FNF:5
FNH:0
DA:135,0
DA:139,0
DA:140,0
DA:142,0
DA:143,0
DA:144,0
DA:146,0
DA:147,0
DA:224,0
DA:227,0
DA:228,0
DA:229,0
DA:231,0
DA:232,0
DA:234,0
DA:235,0
DA:236,0
DA:238,0
DA:240,0
DA:241,0
DA:243,0
DA:247,0
DA:248,0
DA:249,0
DA:254,0
DA:262,0
DA:263,0
DA:264,0
DA:265,0
DA:266,0
DA:267,0
DA:340,0
DA:348,0
DA:349,0
DA:351,0
DA:352,0
DA:353,0
DA:355,0
DA:356,0
DA:358,0
DA:359,0
DA:360,0
DA:419,0
DA:422,0
DA:424,0
DA:425,0
DA:427,0
LF:47
LH:0
end_of_record
TN:
SF:/usr/include/c++/14/bits/stl_iterator.h
FNL:0,1067,1068
FNA:0,3,_ZN9__gnu_cxx17__normal_iteratorIP7MeetingSt6vectorIS1_SaIS1_EEEC2ERKS2_
FNL:1,1090,1091
FNA:1,25,_ZNK9__gnu_cxx17__normal_iteratorIP7MeetingSt6vectorIS1_SaIS1_EEEdeEv
FNL:2,1100,1104
FNA:2,5,_ZN9__gnu_cxx17__normal_iteratorIP7MeetingSt6vectorIS1_SaIS1_EEEppEv
FNL:3,1114,1118
FNA:3,5,_ZN9__gnu_cxx17__normal_iteratorIP7MeetingSt6vectorIS1_SaIS1_EEEmmEv
FNL:4,1138,1139
FNA:4,1,_ZNK9__gnu_cxx17__normal_iteratorIP7MeetingSt6vectorIS1_SaIS1_EEEplEl
FNL:5,1148,1149
FNA:5,0,_ZNK9__gnu_cxx17__normal_iteratorIP7MeetingSt6vectorIS1_SaIS1_EEEmiEl
FNL:6,1153,1154
FNA:6,22,_ZNK9__gnu_cxx17__normal_iteratorIP7MeetingSt6vectorIS1_SaIS1_EEE4baseEv
FNL:7,1188,1194
FNA:7,8,_ZN9__gnu_cxxeqIP7MeetingSt6vectorIS1_SaIS1_EEEEbRKNS_17__normal_iteratorIT_T0_EESB_QrqXeqcldtfL0p_4baseEcldtfL0p0_4baseERSt14convertible_toIbEE
FNL:8,1199,1202
FNA:8,0,_ZN9__gnu_cxxssIP7MeetingSt6vectorIS1_SaIS1_EEEEDTclL_ZNSt8__detail11__synth3wayEEcl7declvalIRT_EEcl7declvalIS8_EEEERKNS_17__normal_iteratorIS7_T0_EESE_
FNL:9,1325,1328
FNA:9,3,_ZN9__gnu_cxxmiIP7MeetingSt6vectorIS1_SaIS1_EEEENS_17__normal_iteratorIT_T0_E15difference_typeERKS9_SC_
FNL:10,1348,1350
FNA:10,0,_ZSt12__niter_baseIP7MeetingSt6vectorIS0_SaIS0_EEET_N9__gnu_cxx17__normal_iteratorIS5_T0_EE
FNF:11
FNH:8
DA:1067,3
DA:1068,3
DA:1090,25
DA:1091,25
DA:1100,5
DA:1102,5
DA:1103,5
DA:1114,5
DA:1116,5
DA:1117,5
DA:1138,1
DA:1139,1
DA:1148,0
DA:1149,0
DA:1153,22
DA:1154,22
DA:1188,8
DA:1194,8
DA:1199,0
DA:1202,0
DA:1325,3
DA:1328,3
DA:1348,0
DA:1350,0
LF:24
LH:18
end_of_record
TN:
SF:/usr/include/c++/14/bits/stl_iterator_base_types.h
FNF:0
FNH:0
DA:240,2
LF:1
LH:1
end_of_record
TN:
SF:/usr/include/c++/14/bits/stl_uninitialized.h
FNL:0,261,275
FNA:0,0,_ZSt18__do_uninit_fill_nIPxmxET_S1_T0_RKT1_
FNL:1,292,294
FNA:1,1,_ZNSt22__uninitialized_fill_nILb1EE15__uninit_fill_nIPxmxEET_S3_T0_RKT1_
FNL:2,312,328
FNA:2,1,_ZSt20uninitialized_fill_nIPxmxET_S1_T0_RKT1_
FNL:3,465,473
FNA:3,1,_ZSt24__uninitialized_fill_n_aIPxmxxET_S1_T0_RKT1_RSaIT2_E
FNL:4,637,651
FNA:4,0,_ZNSt27__uninitialized_default_n_1ILb0EE18__uninit_default_nIP7MeetingmEET_S4_T0_
FNL:5,660,671
FNA:5,1,_ZNSt27__uninitialized_default_n_1ILb1EE18__uninit_default_nIP7MeetingmEET_S4_T0_
FNL:6,696,713
FNA:6,1,_ZSt25__uninitialized_default_nIP7MeetingmET_S2_T0_
FNL:7,777,779
FNA:7,1,_ZSt27__uninitialized_default_n_aIP7MeetingmS0_ET_S2_T0_RSaIT1_E
FNF:8
FNH:6
DA:261,0
DA:263,0
DA:266,0
DA:267,0
DA:268,0
DA:292,1
DA:294,1
DA:312,1
DA:319,1
DA:327,1
DA:465,1
DA:469,1
DA:470,0
DA:472,1
DA:637,0
DA:639,0
DA:642,0
DA:643,0
DA:644,0
DA:660,1
DA:662,1
DA:665,1
DA:666,1
DA:667,1
DA:668,1
DA:670,1
DA:696,1
DA:699,1
DA:701,0
DA:707,1
DA:712,1
DA:777,1
DA:779,1
LF:33
LH:21
end_of_record
TN:
SF:/usr/include/c++/14/bits/stl_vector.h
FNL:0,1128,1132
FNA:0,25,_ZNSt6vectorI7MeetingSaIS0_EEixEm
FNA:0,15,_ZNSt6vectorIxSaIxEEixEm
FNL:1,145,147
FNA:1,1,_ZNSt12_Vector_baseI7MeetingSaIS0_EE12_Vector_implC2ERKS1_
FNA:1,1,_ZNSt12_Vector_baseIxSaIxEE12_Vector_implC2ERKS0_
FNL:2,1706,1711
FNA:2,1,_ZNSt6vectorIxSaIxEE18_M_fill_initializeEmRKx
FNL:3,1717,1722
FNA:3,1,_ZNSt6vectorI7MeetingSaIS0_EE21_M_default_initializeEm
FNL:4,1917,1923
FNA:4,1,_ZNSt6vectorI7MeetingSaIS0_EE17_S_check_init_lenEmRKS1_
FNA:4,1,_ZNSt6vectorIxSaIxEE17_S_check_init_lenEmRKS0_
FNL:5,1926,1935
FNA:5,1,_ZNSt6vectorI7MeetingSaIS0_EE11_S_max_sizeERKS1_
FNA:5,1,_ZNSt6vectorIxSaIxEE11_S_max_sizeERKS0_
FNL:6,300,301
FNA:6,2,_ZNSt12_Vector_baseI7MeetingSaIS0_EE19_M_get_Tp_allocatorEv
FNA:6,2,_ZNSt12_Vector_baseIxSaIxEE19_M_get_Tp_allocatorEv
FNL:7,332,334
FNA:7,1,_ZNSt12_Vector_baseI7MeetingSaIS0_EEC2EmRKS1_
FNA:7,1,_ZNSt12_Vector_baseIxSaIxEEC2EmRKS0_
FNL:8,366,370
FNA:8,1,_ZNSt12_Vector_baseI7MeetingSaIS0_EED2Ev
FNA:8,1,_ZNSt12_Vector_baseIxSaIxEED2Ev
FNL:9,377,381
FNA:9,1,_ZNSt12_Vector_baseI7MeetingSaIS0_EE11_M_allocateEm
FNA:9,1,_ZNSt12_Vector_baseIxSaIxEE11_M_allocateEm
FNL:10,385,390
FNA:10,1,_ZNSt12_Vector_baseI7MeetingSaIS0_EE13_M_deallocateEPS0_m
FNA:10,1,_ZNSt12_Vector_baseIxSaIxEE13_M_deallocateEPxm
FNL:11,396,401
FNA:11,1,_ZNSt12_Vector_baseI7MeetingSaIS0_EE17_M_create_storageEm
FNA:11,1,_ZNSt12_Vector_baseIxSaIxEE17_M_create_storageEm
FNL:12,556,558
FNA:12,1,_ZNSt6vectorI7MeetingSaIS0_EEC2EmRKS1_
FNL:13,569,572
FNA:13,1,_ZNSt6vectorIxSaIxEEC2EmRKxRKS0_
FNL:14,733,738
FNA:14,1,_ZNSt6vectorI7MeetingSaIS0_EED2Ev
FNA:14,1,_ZNSt6vectorIxSaIxEED2Ev
FNL:15,873,874
FNA:15,1,_ZNSt6vectorI7MeetingSaIS0_EE5beginEv
FNL:16,893,894
FNA:16,1,_ZNSt6vectorI7MeetingSaIS0_EE3endEv
FNL:17,98,100
FNA:17,1,_ZNSt12_Vector_baseI7MeetingSaIS0_EE17_Vector_impl_dataC2Ev
FNA:17,1,_ZNSt12_Vector_baseIxSaIxEE17_Vector_impl_dataC2Ev
FNF:18
FNH:18
DA:98,2
DA:99,2
DA:100,2
DA:145,2
DA:146,2
DA:147,2
DA:300,4
DA:301,4
DA:332,2
DA:333,2
DA:334,2
DA:366,2
DA:368,2
DA:369,2
DA:370,2
DA:377,2
DA:380,4
DA:385,2
DA:388,2
DA:389,2
DA:390,2
DA:396,2
DA:398,2
DA:399,2
DA:400,2
DA:401,2
DA:556,1
DA:557,1
DA:558,1
DA:569,1
DA:571,1
DA:572,1
DA:733,2
DA:735,2
DA:736,2
DA:738,2
DA:873,1
DA:874,1
DA:893,1
DA:894,1
DA:1128,40
DA:1131,40
DA:1706,1
DA:1708,1
DA:1709,1
DA:1710,1
DA:1711,1
DA:1717,1
DA:1719,1
DA:1720,1
DA:1721,1
DA:1722,1
DA:1917,2
DA:1919,2
DA:1920,0
DA:1922,2
DA:1926,2
DA:1931,2
DA:1933,2
DA:1934,2
LF:60
LH:59
end_of_record
TN:
SF:/usr/include/c++/14/compare
FNL:0,1224,1243
FNA:0,0,_ZNKSt8__detail10_Synth3wayclIP7MeetingS3_EEDaRKT_RKT0_QrqXltfL0p_fL0p0_RNS_18__boolean_testableEXltfL0p0_fL0p_RNS_18__boolean_testableEE
FNL:1,291,292
FNA:1,0,_ZStltSt15strong_orderingNSt9__cmp_cat8__unspecE
FNF:2
FNH:0
DA:291,0
DA:292,0
DA:1224,0
DA:1233,0
LF:4
LH:0
end_of_record
TN:
SF:/usr/include/c++/14/new
FNL:0,179,180
FNA:0,1,_ZnwmPv
FNF:1
FNH:1
DA:179,1
DA:180,1
LF:2
LH:2
end_of_record
TN:
SF:/usr/include/c++/14/type_traits
FNL:0,3832,3839
FNA:0,2,_ZSt21is_constant_evaluatedv
FNF:1
FNH:1
DA:3832,2
DA:3835,2
LF:2
LH:2
end_of_record
TN:
SF:/usr/include/c++/14/x86_64-redhat-linux/bits/c++config.h
FNF:0
FNH:0
DA:2394,7
LF:1
LH:1
end_of_record
