TN:
SF:/home/monika/Documents/problems/17852번： Retribution!/main.cpp
FNL:0,21,26
FNA:0,8,_Z17euclideanDistanceRK5PointS1_
FNL:1,28,69
FNA:1,2,_Z14greedyMatchingRKSt6vectorI5PointSaIS0_EES4_
FNL:2,44,48
FNA:2,16,_ZZ14greedyMatchingRKSt6vectorI5PointSaIS0_EES4_ENKUlRK4PairS7_E_clES7_S7_
FNL:3,71,103
FNA:3,1,main
FNF:4
FNH:4
DA:21,8
DA:23,8
DA:24,8
DA:25,8
DA:28,2
DA:30,2
DA:31,2
DA:32,2
DA:33,2
DA:35,6
DA:37,12
DA:39,8
DA:40,8
DA:44,2
DA:46,16
DA:47,6
DA:48,0
DA:50,2
DA:51,2
DA:52,2
DA:53,2
DA:55,6
DA:57,6
DA:58,2
DA:59,4
DA:61,4
DA:62,4
DA:63,4
DA:64,4
DA:68,2
DA:69,2
DA:71,1
DA:73,1
DA:74,1
DA:77,1
DA:79,1
DA:80,3
DA:82,2
DA:85,1
DA:86,3
DA:88,2
DA:91,1
DA:92,3
DA:94,2
DA:97,1
DA:98,1
DA:99,1
DA:100,1
DA:102,1
DA:103,1
LF:50
LH:49
end_of_record
TN:
SF:/usr/include/c++/14/bit
FNL:0,201,243
FNA:0,2,_ZSt13__countl_zeroImEiT_
FNL:1,371,375
FNA:1,2,_ZSt11__bit_widthImEiT_
FNF:2
FNH:2
DA:201,2
DA:204,2
DA:206,2
DA:207,0
DA:209,2
DA:210,2
DA:211,2
DA:220,2
DA:221,2
DA:371,2
DA:373,2
DA:374,2
LF:12
LH:11
end_of_record
TN:
SF:/usr/include/c++/14/bits/alloc_traits.h
FNF:0
FNH:0
DA:515,9
DA:550,9
DA:577,8
DA:581,8
DA:599,0
DA:601,0
DA:993,5
DA:994,5
LF:8
LH:6
end_of_record
TN:
SF:/usr/include/c++/14/bits/allocator.h
FNF:0
FNH:0
DA:161,7
DA:166,10
DA:176,4
DA:182,14
DA:189,9
DA:191,0
DA:192,0
DA:193,0
DA:196,9
DA:203,9
DA:205,0
DA:206,0
DA:208,9
LF:13
LH:8
end_of_record
TN:
SF:/usr/include/c++/14/bits/cpp_type_traits.h
FNL:0,608,609
FNA:0,0,_ZSt12__miter_baseIN9__gnu_cxx17__normal_iteratorIP4PairSt6vectorIS2_SaIS2_EEEEET_S8_
FNF:1
FNH:0
DA:608,0
DA:609,0
LF:2
LH:0
end_of_record
TN:
SF:/usr/include/c++/14/bits/ios_base.h
FNL:0,104,105
FNA:0,1,_ZStoRRSt13_Ios_FmtflagsS_
FNL:1,109,110
FNA:1,1,_ZStaNRSt13_Ios_FmtflagsS_
FNL:2,1104,1108
FNA:2,1,_ZSt5fixedRSt8ios_base
FNL:3,726,732
FNA:3,1,_ZNSt8ios_base4setfESt13_Ios_FmtflagsS0_
FNL:4,84,85
FNA:4,2,_ZStanSt13_Ios_FmtflagsS_
FNL:5,89,90
FNA:5,1,_ZStorSt13_Ios_FmtflagsS_
FNL:6,99,100
FNA:6,1,_ZStcoSt13_Ios_Fmtflags
FNF:7
FNH:7
DA:84,2
DA:85,2
DA:89,1
DA:90,1
DA:99,1
DA:100,1
DA:104,1
DA:105,1
DA:109,1
DA:110,1
DA:726,1
DA:728,1
DA:729,1
DA:730,1
DA:731,1
DA:1104,1
DA:1106,1
DA:1107,1
LF:18
LH:18
end_of_record
TN:
SF:/usr/include/c++/14/bits/move.h
FNL:0,137,138
FNA:0,24,_ZSt4moveIR4PairEONSt16remove_referenceIT_E4typeEOS3_
FNA:0,6,_ZSt4moveIRN9__gnu_cxx5__ops15_Iter_comp_iterIZ14greedyMatchingRKSt6vectorI5PointSaIS4_EES8_EUlRK4PairSB_E_EEEONSt16remove_referenceIT_E4typeEOSG_
FNA:0,10,_ZSt4moveIRZ14greedyMatchingRKSt6vectorI5PointSaIS1_EES5_EUlRK4PairS8_E_EONSt16remove_referenceIT_E4typeEOSC_
FNL:1,226,237
FNA:1,0,_ZSt4swapI4PairENSt9enable_ifIXsrSt6__and_IJSt6__not_ISt15__is_tuple_likeIT_EESt21is_move_constructibleIS5_ESt18is_move_assignableIS5_EEE5valueEvE4typeERS5_SF_
FNL:2,51,52
FNA:2,0,_ZSt11__addressofI4PairEPT_RS1_
FNA:2,3,_ZSt11__addressofI5PointEPT_RS1_
FNA:2,12,_ZSt11__addressofImEPT_RS0_
FNL:3,71,72
FNA:3,24,_ZSt7forwardI4PairEOT_RNSt16remove_referenceIS1_E4typeE
FNF:4
FNH:3
DA:51,15
DA:52,15
DA:71,24
DA:72,24
DA:137,40
DA:138,40
DA:226,0
DA:234,0
DA:235,0
DA:236,0
DA:237,0
LF:11
LH:6
end_of_record
TN:
SF:/usr/include/c++/14/bits/new_allocator.h
FNL:0,126,152
FNA:0,2,_ZNSt15__new_allocatorI4PairE8allocateEmPKv
FNA:0,3,_ZNSt15__new_allocatorI5PointE8allocateEmPKv
FNA:0,4,_ZNSt15__new_allocatorImE8allocateEmPKv
FNL:1,156,173
FNA:1,2,_ZNSt15__new_allocatorI4PairE10deallocateEPS0_m
FNA:1,3,_ZNSt15__new_allocatorI5PointE10deallocateEPS0_m
FNA:1,4,_ZNSt15__new_allocatorImE10deallocateEPmm
FNF:2
FNH:2
DA:88,11
DA:92,10
DA:126,9
DA:134,9
DA:138,0
DA:139,0
DA:140,0
DA:151,9
DA:156,9
DA:172,9
DA:233,9
LF:11
LH:8
end_of_record
TN:
SF:/usr/include/c++/14/bits/predefined_ops.h
FNL:0,150,152
FNA:0,2,_ZN9__gnu_cxx5__ops15_Iter_comp_iterIZ14greedyMatchingRKSt6vectorI5PointSaIS3_EES7_EUlRK4PairSA_E_EC2ESB_
FNL:1,157,158
FNA:1,6,_ZN9__gnu_cxx5__ops15_Iter_comp_iterIZ14greedyMatchingRKSt6vectorI5PointSaIS3_EES7_EUlRK4PairSA_E_EclINS_17__normal_iteratorIPS8_S2_IS8_SaIS8_EEEESI_EEbT_T0_
FNL:2,164,165
FNA:2,2,_ZN9__gnu_cxx5__ops16__iter_comp_iterIZ14greedyMatchingRKSt6vectorI5PointSaIS3_EES7_EUlRK4PairSA_E_EENS0_15_Iter_comp_iterIT_EESD_
FNL:3,195,196
FNA:3,0,_ZN9__gnu_cxx5__ops14_Iter_comp_valIZ14greedyMatchingRKSt6vectorI5PointSaIS3_EES7_EUlRK4PairSA_E_EclINS_17__normal_iteratorIPS8_S2_IS8_SaIS8_EEEES8_EEbT_RT0_
FNL:4,231,233
FNA:4,6,_ZN9__gnu_cxx5__ops14_Val_comp_iterIZ14greedyMatchingRKSt6vectorI5PointSaIS3_EES7_EUlRK4PairSA_E_EC2EONS0_15_Iter_comp_iterISB_EE
FNL:5,239,240
FNA:5,10,_ZN9__gnu_cxx5__ops14_Val_comp_iterIZ14greedyMatchingRKSt6vectorI5PointSaIS3_EES7_EUlRK4PairSA_E_EclIS8_NS_17__normal_iteratorIPS8_S2_IS8_SaIS8_EEEEEEbRT_T0_
FNL:6,252,253
FNA:6,6,_ZN9__gnu_cxx5__ops15__val_comp_iterIZ14greedyMatchingRKSt6vectorI5PointSaIS3_EES7_EUlRK4PairSA_E_EENS0_14_Val_comp_iterIT_EENS0_15_Iter_comp_iterISD_EE
FNF:7
FNH:6
DA:150,2
DA:151,2
DA:152,2
DA:157,6
DA:158,6
DA:164,2
DA:165,2
DA:195,0
DA:196,0
DA:231,6
DA:232,6
DA:233,6
DA:239,10
DA:240,10
DA:252,6
DA:253,6
LF:16
LH:14
end_of_record
TN:
SF:/usr/include/c++/14/bits/ptr_traits.h
FNL:0,205,209
FNA:0,0,_ZSt12__to_addressI4PairEPT_S2_
FNA:0,0,_ZSt12__to_addressImEPT_S1_
FNL:1,241,242
FNA:1,0,_ZSt10to_addressImEPT_S1_
FNF:2
FNH:0
DA:205,0
DA:208,0
DA:241,0
DA:242,0
LF:4
LH:0
end_of_record
TN:
SF:/usr/include/c++/14/bits/stl_algo.h
FNL:0,1589,1597
FNA:0,0,_ZSt13__heap_selectIN9__gnu_cxx17__normal_iteratorIP4PairSt6vectorIS2_SaIS2_EEEENS0_5__ops15_Iter_comp_iterIZ14greedyMatchingRKS4_I5PointSaISA_EESE_EUlRKS2_SG_E_EEEvT_SJ_SJ_T0_
FNL:1,1750,1764
FNA:1,6,_ZSt25__unguarded_linear_insertIN9__gnu_cxx17__normal_iteratorIP4PairSt6vectorIS2_SaIS2_EEEENS0_5__ops14_Val_comp_iterIZ14greedyMatchingRKS4_I5PointSaISA_EESE_EUlRKS2_SG_E_EEEvT_T0_
FNL:2,1770,1788
FNA:2,2,_ZSt16__insertion_sortIN9__gnu_cxx17__normal_iteratorIP4PairSt6vectorIS2_SaIS2_EEEENS0_5__ops15_Iter_comp_iterIZ14greedyMatchingRKS4_I5PointSaISA_EESE_EUlRKS2_SG_E_EEEvT_SJ_T0_
FNL:3,1794,1800
FNA:3,0,_ZSt26__unguarded_insertion_sortIN9__gnu_cxx17__normal_iteratorIP4PairSt6vectorIS2_SaIS2_EEEENS0_5__ops15_Iter_comp_iterIZ14greedyMatchingRKS4_I5PointSaISA_EESE_EUlRKS2_SG_E_EEEvT_SJ_T0_
FNL:4,1812,1823
FNA:4,2,_ZSt22__final_insertion_sortIN9__gnu_cxx17__normal_iteratorIP4PairSt6vectorIS2_SaIS2_EEEENS0_5__ops15_Iter_comp_iterIZ14greedyMatchingRKS4_I5PointSaISA_EESE_EUlRKS2_SG_E_EEEvT_SJ_T0_
FNL:5,1829,1845
FNA:5,0,_ZSt21__unguarded_partitionIN9__gnu_cxx17__normal_iteratorIP4PairSt6vectorIS2_SaIS2_EEEENS0_5__ops15_Iter_comp_iterIZ14greedyMatchingRKS4_I5PointSaISA_EESE_EUlRKS2_SG_E_EEET_SJ_SJ_SJ_T0_
FNL:6,1851,1858
FNA:6,0,_ZSt27__unguarded_partition_pivotIN9__gnu_cxx17__normal_iteratorIP4PairSt6vectorIS2_SaIS2_EEEENS0_5__ops15_Iter_comp_iterIZ14greedyMatchingRKS4_I5PointSaISA_EESE_EUlRKS2_SG_E_EEET_SJ_SJ_T0_
FNL:7,1863,1870
FNA:7,0,_ZSt14__partial_sortIN9__gnu_cxx17__normal_iteratorIP4PairSt6vectorIS2_SaIS2_EEEENS0_5__ops15_Iter_comp_iterIZ14greedyMatchingRKS4_I5PointSaISA_EESE_EUlRKS2_SG_E_EEEvT_SJ_SJ_T0_
FNL:8,1876,1893
FNA:8,2,_ZSt16__introsort_loopIN9__gnu_cxx17__normal_iteratorIP4PairSt6vectorIS2_SaIS2_EEEElNS0_5__ops15_Iter_comp_iterIZ14greedyMatchingRKS4_I5PointSaISA_EESE_EUlRKS2_SG_E_EEEvT_SJ_T0_T1_
FNL:9,1900,1910
FNA:9,2,_ZSt6__sortIN9__gnu_cxx17__normal_iteratorIP4PairSt6vectorIS2_SaIS2_EEEENS0_5__ops15_Iter_comp_iterIZ14greedyMatchingRKS4_I5PointSaISA_EESE_EUlRKS2_SG_E_EEEvT_SJ_T0_
FNL:10,4793,4806
FNA:10,2,_ZSt4sortIN9__gnu_cxx17__normal_iteratorIP4PairSt6vectorIS2_SaIS2_EEEEZ14greedyMatchingRKS4_I5PointSaIS8_EESC_EUlRKS2_SE_E_EvT_SG_T0_
FNL:11,85,103
FNA:11,0,_ZSt22__move_median_to_firstIN9__gnu_cxx17__normal_iteratorIP4PairSt6vectorIS2_SaIS2_EEEENS0_5__ops15_Iter_comp_iterIZ14greedyMatchingRKS4_I5PointSaISA_EESE_EUlRKS2_SG_E_EEEvT_SJ_SJ_SJ_T0_
FNF:12
FNH:6
DA:85,0
DA:88,0
DA:90,0
DA:91,0
DA:92,0
DA:93,0
DA:95,0
DA:97,0
DA:98,0
DA:99,0
DA:100,0
DA:102,0
DA:103,0
DA:1589,0
DA:1593,0
DA:1594,0
DA:1595,0
DA:1596,0
DA:1597,0
DA:1750,6
DA:1754,6
DA:1755,6
DA:1756,6
DA:1757,10
DA:1759,4
DA:1760,4
DA:1761,4
DA:1763,6
DA:1764,6
DA:1770,2
DA:1773,2
DA:1775,8
DA:1777,6
DA:1780,0
DA:1781,0
DA:1782,0
DA:1785,6
DA:1794,0
DA:1797,0
DA:1798,0
DA:1800,0
DA:1812,2
DA:1815,2
DA:1817,0
DA:1818,0
DA:1822,2
DA:1823,2
DA:1829,0
DA:1835,0
DA:1836,0
DA:1837,0
DA:1838,0
DA:1839,0
DA:1840,0
DA:1841,0
DA:1842,0
DA:1843,0
DA:1851,0
DA:1854,0
DA:1855,0
DA:1857,0
DA:1863,0
DA:1868,0
DA:1869,0
DA:1870,0
DA:1876,2
DA:1880,2
DA:1882,0
DA:1884,0
DA:1885,0
DA:1887,0
DA:1889,0
DA:1890,0
DA:1891,0
DA:1900,2
DA:1903,2
DA:1905,2
DA:1906,2
DA:1908,2
DA:1910,2
DA:4793,2
DA:4805,2
DA:4806,2
LF:83
LH:30
end_of_record
TN:
SF:/usr/include/c++/14/bits/stl_algobase.h
FNL:0,1040,1040
FNA:0,3,_ZSt17__size_to_integerm
FNL:1,1140,1153
FNA:1,3,_ZSt10__fill_n_aIP5PointmS0_ET_S2_T0_RKT1_St26random_access_iterator_tag
FNL:2,1175,1182
FNA:2,3,_ZSt6fill_nIP5PointmS0_ET_S2_T0_RKT1_
FNL:3,1544,1557
FNA:3,2,_ZSt4__lgIlET_S0_
FNL:4,155,187
FNA:4,0,_ZSt9iter_swapIN9__gnu_cxx17__normal_iteratorIP4PairSt6vectorIS2_SaIS2_EEEES7_EvT_T0_
FNL:5,233,241
FNA:5,5,_ZSt3minImERKT_S2_S2_
FNL:6,257,265
FNA:6,0,_ZSt3maxImERKT_S2_S2_
FNL:7,316,318
FNA:7,6,_ZSt12__niter_baseIP4PairET_S2_
FNL:8,346,347
FNA:8,0,_ZSt12__niter_wrapIN9__gnu_cxx17__normal_iteratorIP4PairSt6vectorIS2_SaIS2_EEEES3_ET_S8_T0_
FNL:9,437,438
FNA:9,0,_ZNSt11__copy_moveILb1ELb0ESt26random_access_iterator_tagE12__assign_oneI4PairS3_EEvPT_PT0_
FNL:10,745,752
FNA:10,0,_ZNSt20__copy_move_backwardILb1ELb0ESt26random_access_iterator_tagE13__copy_move_bIP4PairS4_EET0_T_S6_S5_
FNL:11,762,771
FNA:11,0,_ZNSt20__copy_move_backwardILb1ELb1ESt26random_access_iterator_tagE13__copy_move_bI4PairS3_EEPT0_PT_S7_S5_
FNL:12,777,790
FNA:12,0,_ZSt23__copy_move_backward_a2ILb1EP4PairS1_ET1_T0_S3_S2_
FNL:13,795,796
FNA:13,0,_ZSt23__copy_move_backward_a1ILb1EP4PairS1_ET1_T0_S3_S2_
FNL:14,823,829
FNA:14,0,_ZSt22__copy_move_backward_aILb1EN9__gnu_cxx17__normal_iteratorIP4PairSt6vectorIS2_SaIS2_EEEES7_ET1_T0_S9_S8_
FNL:15,913,925
FNA:15,0,_ZSt13move_backwardIN9__gnu_cxx17__normal_iteratorIP4PairSt6vectorIS2_SaIS2_EEEES7_ET0_T_S9_S8_
FNL:16,936,941
FNA:16,3,_ZSt9__fill_a1IP5PointS0_EN9__gnu_cxx11__enable_ifIXntsrSt11__is_scalarIT0_E7__valueEvE6__typeET_S9_RKS5_
FNL:17,997,998
FNA:17,3,_ZSt8__fill_aIP5PointS0_EvT_S2_RKT0_
FNF:18
FNH:8
DA:155,0
DA:185,0
DA:187,0
DA:233,5
DA:238,5
DA:239,0
DA:240,5
DA:257,0
DA:262,0
DA:263,0
DA:264,0
DA:316,6
DA:318,6
DA:346,0
DA:347,0
DA:437,0
DA:438,0
DA:745,0
DA:748,0
DA:749,0
DA:750,0
DA:751,0
DA:762,0
DA:764,0
DA:765,0
DA:766,0
DA:767,0
DA:769,0
DA:770,0
DA:777,0
DA:781,0
DA:783,0
DA:787,0
DA:789,0
DA:795,0
DA:796,0
DA:823,0
DA:825,0
DA:828,0
DA:913,0
DA:922,0
DA:924,0
DA:936,3
DA:939,6
DA:940,3
DA:941,3
DA:997,3
DA:998,3
DA:1040,3
DA:1140,3
DA:1146,3
DA:1147,0
DA:1151,3
DA:1152,3
DA:1175,3
DA:1180,3
DA:1181,6
DA:1544,2
DA:1547,2
LF:59
LH:21
end_of_record
TN:
SF:/usr/include/c++/14/bits/stl_bvector.h
FNL:0,104,111
FNA:0,8,_ZNSt14_Bit_referenceaSEb
FNL:1,1086,1087
FNA:1,16,_ZNSt6vectorIbSaIbEEixEm
FNL:2,1349,1359
FNA:2,4,_ZNSt6vectorIbSaIbEE13_M_initializeEm
FNL:3,1363,1367
FNA:3,4,_ZNSt6vectorIbSaIbEE19_M_initialize_valueEb
FNL:4,1587,1598
FNA:4,4,_ZSt16__fill_bvector_nPmmb
FNL:5,195,196
FNA:5,36,_ZNSt18_Bit_iterator_baseC2EPmj
FNL:6,224,236
FNA:6,20,_ZNSt18_Bit_iterator_base7_M_incrEl
FNL:7,313,313
FNA:7,16,_ZNSt13_Bit_iteratorC2Ev
FNL:8,316,317
FNA:8,20,_ZNSt13_Bit_iteratorC2EPmj
FNL:9,326,330
FNA:9,16,_ZNKSt13_Bit_iteratordeEv
FNL:10,368,372
FNA:10,20,_ZNSt13_Bit_iteratorpLEl
FNL:11,384,385
FNA:11,16,_ZNKSt13_Bit_iteratorixEl
FNL:12,389,394
FNA:12,20,_ZStplRKSt13_Bit_iteratorl
FNL:13,551,553
FNA:13,8,_ZNSt13_Bvector_baseISaIbEE18_Bvector_impl_dataC2Ev
FNL:14,577,578
FNA:14,4,_ZNSt13_Bvector_baseISaIbEE18_Bvector_impl_data8_M_resetEv
FNL:15,603,605
FNA:15,4,_ZNSt13_Bvector_baseISaIbEE13_Bvector_implC2ERKSaImE
FNL:16,623,628
FNA:16,8,_ZNKSt13_Bvector_baseISaIbEE13_Bvector_impl11_M_end_addrEv
FNL:17,656,657
FNA:17,4,_ZNSt13_Bvector_baseISaIbEEC2ERKS0_
FNL:18,669,670
FNA:18,4,_ZNSt13_Bvector_baseISaIbEED2Ev
FNL:19,677,689
FNA:19,4,_ZNSt13_Bvector_baseISaIbEE11_M_allocateEm
FNL:20,693,703
FNA:20,4,_ZNSt13_Bvector_baseISaIbEE13_M_deallocateEv
FNL:21,714,715
FNA:21,8,_ZNSt13_Bvector_baseISaIbEE8_S_nwordEm
FNL:22,795,806
FNA:22,4,_ZNSt6vectorIbSaIbEEC2EmRKbRKS0_
FNL:23,88,89
FNA:23,16,_ZNSt14_Bit_referenceC2EPmm
FNL:24,890,890
FNA:24,4,_ZNSt6vectorIbSaIbEED2Ev
FNL:25,99,100
FNA:25,8,_ZNKSt14_Bit_referencecvbEv
FNL:26,995,996
FNA:26,16,_ZNSt6vectorIbSaIbEE5beginEv
FNF:27
FNH:27
DA:88,16
DA:89,16
DA:99,8
DA:100,8
DA:104,8
DA:106,8
DA:107,8
DA:109,0
DA:110,8
DA:189,36
DA:190,0
DA:192,36
DA:195,36
DA:196,36
DA:224,20
DA:227,20
DA:228,20
DA:229,20
DA:230,20
DA:232,0
DA:233,0
DA:235,20
DA:236,20
DA:313,16
DA:316,20
DA:317,20
DA:326,16
DA:328,16
DA:329,16
DA:368,20
DA:370,20
DA:371,20
DA:384,16
DA:385,16
DA:389,20
DA:391,20
DA:392,20
DA:393,20
DA:551,8
DA:552,8
DA:553,8
DA:577,4
DA:578,4
DA:603,4
DA:604,4
DA:605,4
DA:623,8
DA:625,8
DA:626,8
DA:627,0
DA:656,4
DA:657,8
DA:669,4
DA:670,4
DA:677,4
DA:679,4
DA:681,4
DA:683,0
DA:684,0
DA:685,0
DA:688,4
DA:693,4
DA:695,4
DA:697,4
DA:698,4
DA:699,4
DA:701,4
DA:703,4
DA:714,8
DA:715,8
DA:795,4
DA:802,4
DA:804,4
DA:805,4
DA:806,4
DA:890,4
DA:995,16
DA:996,16
DA:1086,16
DA:1087,16
DA:1349,4
DA:1351,4
DA:1353,4
DA:1354,4
DA:1355,4
DA:1356,4
DA:1357,4
DA:1359,4
DA:1363,4
DA:1365,4
DA:1366,4
DA:1367,4
DA:1587,4
DA:1590,4
DA:1592,0
DA:1593,0
DA:1594,0
DA:1597,4
LF:98
LH:87
end_of_record
TN:
SF:/usr/include/c++/14/bits/stl_construct.h
FNL:0,109,120
FNA:0,3,_ZSt10_ConstructI5PointJEEvPT_DpOT0_
FNL:1,146,153
FNA:1,0,_ZSt8_DestroyI4PairEvPT_
FNA:1,0,_ZSt8_DestroyI5PointEvPT_
FNL:2,160,164
FNA:2,0,_ZNSt12_Destroy_auxILb0EE9__destroyIP4PairEEvT_S4_
FNA:2,0,_ZNSt12_Destroy_auxILb0EE9__destroyIP5PointEEvT_S4_
FNL:3,172,172
FNA:3,2,_ZNSt12_Destroy_auxILb1EE9__destroyIP4PairEEvT_S4_
FNA:3,3,_ZNSt12_Destroy_auxILb1EE9__destroyIP5PointEEvT_S4_
FNL:4,182,197
FNA:4,2,_ZSt8_DestroyIP4PairEvT_S2_
FNA:4,3,_ZSt8_DestroyIP5PointEvT_S2_
FNL:5,80,89
FNA:5,0,_ZSt10destroy_atI4PairEvPT_
FNA:5,0,_ZSt10destroy_atI5PointEvPT_
FNL:6,94,97
FNA:6,8,_ZSt12construct_atI4PairJS0_EEDTgsnwcvPvLi0E_T_pispcl7declvalIT0_EEEEPS2_DpOS3_
FNA:6,0,_ZSt12construct_atI5PointJEEDTgsnwcvPvLi0E_T_pispcl7declvalIT0_EEEEPS2_DpOS3_
FNA:6,0,_ZSt12construct_atImJEEDTgsnwcvPvLi0E_T_pispcl7declvalIT0_EEEEPS1_DpOS2_
FNF:7
FNH:4
DA:80,0
DA:88,0
DA:89,0
DA:94,8
DA:97,8
DA:109,3
DA:112,3
DA:115,0
DA:116,0
DA:119,3
DA:146,0
DA:149,0
DA:153,0
DA:160,0
DA:162,0
DA:163,0
DA:164,0
DA:172,5
DA:182,5
DA:192,5
DA:193,0
DA:196,5
LF:22
LH:9
end_of_record
TN:
SF:/usr/include/c++/14/bits/stl_heap.h
FNL:0,135,147
FNA:0,0,_ZSt11__push_heapIN9__gnu_cxx17__normal_iteratorIP4PairSt6vectorIS2_SaIS2_EEEElS2_NS0_5__ops14_Iter_comp_valIZ14greedyMatchingRKS4_I5PointSaISA_EESE_EUlRKS2_SG_E_EEEvT_T0_SK_T1_RT2_
FNL:1,224,249
FNA:1,0,_ZSt13__adjust_heapIN9__gnu_cxx17__normal_iteratorIP4PairSt6vectorIS2_SaIS2_EEEElS2_NS0_5__ops15_Iter_comp_iterIZ14greedyMatchingRKS4_I5PointSaISA_EESE_EUlRKS2_SG_E_EEEvT_T0_SK_T1_T2_
FNL:2,254,267
FNA:2,0,_ZSt10__pop_heapIN9__gnu_cxx17__normal_iteratorIP4PairSt6vectorIS2_SaIS2_EEEENS0_5__ops15_Iter_comp_iterIZ14greedyMatchingRKS4_I5PointSaISA_EESE_EUlRKS2_SG_E_EEEvT_SJ_SJ_RT0_
FNL:3,340,362
FNA:3,0,_ZSt11__make_heapIN9__gnu_cxx17__normal_iteratorIP4PairSt6vectorIS2_SaIS2_EEEENS0_5__ops15_Iter_comp_iterIZ14greedyMatchingRKS4_I5PointSaISA_EESE_EUlRKS2_SG_E_EEEvT_SJ_RT0_
FNL:4,419,427
FNA:4,0,_ZSt11__sort_heapIN9__gnu_cxx17__normal_iteratorIP4PairSt6vectorIS2_SaIS2_EEEENS0_5__ops15_Iter_comp_iterIZ14greedyMatchingRKS4_I5PointSaISA_EESE_EUlRKS2_SG_E_EEEvT_SJ_RT0_
FNF:5
FNH:0
DA:135,0
DA:139,0
DA:140,0
DA:142,0
DA:143,0
DA:144,0
DA:146,0
DA:147,0
DA:224,0
DA:227,0
DA:228,0
DA:229,0
DA:231,0
DA:232,0
DA:234,0
DA:235,0
DA:236,0
DA:238,0
DA:240,0
DA:241,0
DA:243,0
DA:247,0
DA:248,0
DA:249,0
DA:254,0
DA:262,0
DA:263,0
DA:264,0
DA:265,0
DA:266,0
DA:267,0
DA:340,0
DA:348,0
DA:349,0
DA:351,0
DA:352,0
DA:353,0
DA:355,0
DA:356,0
DA:358,0
DA:359,0
DA:360,0
DA:419,0
DA:422,0
DA:424,0
DA:425,0
DA:427,0
LF:47
LH:0
end_of_record
TN:
SF:/usr/include/c++/14/bits/stl_iterator.h
FNL:0,1067,1068
FNA:0,26,_ZN9__gnu_cxx17__normal_iteratorIP4PairSt6vectorIS1_SaIS1_EEEC2ERKS2_
FNA:0,0,_ZN9__gnu_cxx17__normal_iteratorIP4PairvEC2ERKS2_
FNL:1,1090,1091
FNA:1,56,_ZNK9__gnu_cxx17__normal_iteratorIP4PairSt6vectorIS1_SaIS1_EEEdeEv
FNA:1,0,_ZNK9__gnu_cxx17__normal_iteratorIP4PairvEdeEv
FNL:2,1100,1104
FNA:2,10,_ZN9__gnu_cxx17__normal_iteratorIP4PairSt6vectorIS1_SaIS1_EEEppEv
FNA:2,0,_ZN9__gnu_cxx17__normal_iteratorIP4PairvEppEv
FNL:3,1114,1118
FNA:3,10,_ZN9__gnu_cxx17__normal_iteratorIP4PairSt6vectorIS1_SaIS1_EEEmmEv
FNL:4,1138,1139
FNA:4,2,_ZNK9__gnu_cxx17__normal_iteratorIP4PairSt6vectorIS1_SaIS1_EEEplEl
FNL:5,1148,1149
FNA:5,8,_ZNK9__gnu_cxx17__normal_iteratorIP4PairSt6vectorIS1_SaIS1_EEEmiEl
FNL:6,1153,1154
FNA:6,48,_ZNK9__gnu_cxx17__normal_iteratorIP4PairSt6vectorIS1_SaIS1_EEE4baseEv
FNA:6,0,_ZNK9__gnu_cxx17__normal_iteratorIP4PairvE4baseEv
FNL:7,1188,1194
FNA:7,18,_ZN9__gnu_cxxeqIP4PairSt6vectorIS1_SaIS1_EEEEbRKNS_17__normal_iteratorIT_T0_EESB_QrqXeqcldtfL0p_4baseEcldtfL0p0_4baseERSt14convertible_toIbEE
FNL:8,1199,1202
FNA:8,0,_ZN9__gnu_cxxssIP4PairSt6vectorIS1_SaIS1_EEEEDTclL_ZNSt8__detail11__synth3wayEEcl7declvalIRT_EEcl7declvalIS8_EEEERKNS_17__normal_iteratorIS7_T0_EESE_
FNL:9,1325,1328
FNA:9,6,_ZN9__gnu_cxxmiIP4PairSt6vectorIS1_SaIS1_EEEENS_17__normal_iteratorIT_T0_E15difference_typeERKS9_SC_
FNL:10,1348,1350
FNA:10,0,_ZSt12__niter_baseIP4PairSt6vectorIS0_SaIS0_EEET_N9__gnu_cxx17__normal_iteratorIS5_T0_EE
FNF:11
FNH:9
DA:1067,26
DA:1068,26
DA:1090,56
DA:1091,56
DA:1100,10
DA:1102,10
DA:1103,10
DA:1114,10
DA:1116,10
DA:1117,10
DA:1138,2
DA:1139,2
DA:1148,8
DA:1149,8
DA:1153,48
DA:1154,48
DA:1188,18
DA:1194,18
DA:1199,0
DA:1202,0
DA:1325,6
DA:1328,6
DA:1348,0
DA:1350,0
LF:24
LH:20
end_of_record
TN:
SF:/usr/include/c++/14/bits/stl_iterator_base_types.h
FNF:0
FNH:0
DA:240,3
LF:1
LH:1
end_of_record
TN:
SF:/usr/include/c++/14/bits/stl_uninitialized.h
FNL:0,1067,1077
FNA:0,0,_ZSt19__relocate_object_aI4PairS0_SaIS0_EEvPT_PT0_RT1_
FNL:1,1089,1106
FNA:1,0,_ZSt14__relocate_a_1IP4PairN9__gnu_cxx17__normal_iteratorIS1_vEESaIS0_EET0_T_S7_S6_RT1_
FNL:2,1112,1132
FNA:2,2,_ZSt14__relocate_a_1I4PairS0_ENSt9enable_ifIXsrSt24__is_bitwise_relocatableIT_vE5valueEPS3_E4typeES5_S5_S5_RSaIT0_E
FNL:3,1139,1148
FNA:3,2,_ZSt12__relocate_aIP4PairS1_SaIS0_EET0_T_S4_S3_RT1_
FNL:4,637,651
FNA:4,0,_ZNSt27__uninitialized_default_n_1ILb0EE18__uninit_default_nIP5PointmEET_S4_T0_
FNL:5,660,671
FNA:5,3,_ZNSt27__uninitialized_default_n_1ILb1EE18__uninit_default_nIP5PointmEET_S4_T0_
FNL:6,696,713
FNA:6,3,_ZSt25__uninitialized_default_nIP5PointmET_S2_T0_
FNL:7,777,779
FNA:7,3,_ZSt27__uninitialized_default_n_aIP5PointmS0_ET_S2_T0_RSaIT1_E
FNF:8
FNH:5
DA:637,0
DA:639,0
DA:642,0
DA:643,0
DA:644,0
DA:660,3
DA:662,3
DA:665,3
DA:666,3
DA:667,3
DA:668,3
DA:670,3
DA:696,3
DA:699,3
DA:701,0
DA:707,3
DA:712,3
DA:777,3
DA:779,3
DA:1067,0
DA:1075,0
DA:1076,0
DA:1077,0
DA:1089,0
DA:1101,0
DA:1102,0
DA:1103,0
DA:1105,0
DA:1112,2
DA:1116,2
DA:1117,2
DA:1120,0
DA:1124,0
DA:1125,0
DA:1126,0
DA:1129,0
DA:1131,2
DA:1139,2
DA:1145,2
DA:1147,2
LF:40
LH:20
end_of_record
TN:
SF:/usr/include/c++/14/bits/stl_vector.h
FNL:0,1078,1082
FNA:0,2,_ZNKSt6vectorI4PairSaIS0_EE8capacityEv
FNL:1,1128,1132
FNA:1,12,_ZNSt6vectorI5PointSaIS0_EEixEm
FNL:2,1147,1151
FNA:2,16,_ZNKSt6vectorI5PointSaIS0_EEixEm
FNL:3,1235,1239
FNA:3,8,_ZNSt6vectorI4PairSaIS0_EE4backEv
FNL:4,1300,1301
FNA:4,8,_ZNSt6vectorI4PairSaIS0_EE9push_backEOS0_
FNL:5,145,147
FNA:5,3,_ZNSt12_Vector_baseI5PointSaIS0_EE12_Vector_implC2ERKS1_
FNL:6,1717,1722
FNA:6,3,_ZNSt6vectorI5PointSaIS0_EE21_M_default_initializeEm
FNL:7,1906,1913
FNA:7,0,_ZNKSt6vectorI4PairSaIS0_EE12_M_check_lenEmPKc
FNL:8,1917,1923
FNA:8,3,_ZNSt6vectorI5PointSaIS0_EE17_S_check_init_lenEmRKS1_
FNL:9,1926,1935
FNA:9,2,_ZNSt6vectorI4PairSaIS0_EE11_S_max_sizeERKS1_
FNA:9,3,_ZNSt6vectorI5PointSaIS0_EE11_S_max_sizeERKS1_
FNL:10,300,301
FNA:10,4,_ZNSt12_Vector_baseI4PairSaIS0_EE19_M_get_Tp_allocatorEv
FNA:10,6,_ZNSt12_Vector_baseI5PointSaIS0_EE19_M_get_Tp_allocatorEv
FNL:11,305,306
FNA:11,2,_ZNKSt12_Vector_baseI4PairSaIS0_EE19_M_get_Tp_allocatorEv
FNL:12,332,334
FNA:12,3,_ZNSt12_Vector_baseI5PointSaIS0_EEC2EmRKS1_
FNL:13,366,370
FNA:13,2,_ZNSt12_Vector_baseI4PairSaIS0_EED2Ev
FNA:13,3,_ZNSt12_Vector_baseI5PointSaIS0_EED2Ev
FNL:14,377,381
FNA:14,2,_ZNSt12_Vector_baseI4PairSaIS0_EE11_M_allocateEm
FNA:14,3,_ZNSt12_Vector_baseI5PointSaIS0_EE11_M_allocateEm
FNL:15,385,390
FNA:15,4,_ZNSt12_Vector_baseI4PairSaIS0_EE13_M_deallocateEPS0_m
FNA:15,3,_ZNSt12_Vector_baseI5PointSaIS0_EE13_M_deallocateEPS0_m
FNL:16,396,401
FNA:16,3,_ZNSt12_Vector_baseI5PointSaIS0_EE17_M_create_storageEm
FNL:17,504,514
FNA:17,2,_ZNSt6vectorI4PairSaIS0_EE11_S_relocateEPS0_S3_S3_RS1_
FNL:18,556,558
FNA:18,3,_ZNSt6vectorI5PointSaIS0_EEC2EmRKS1_
FNL:19,733,738
FNA:19,2,_ZNSt6vectorI4PairSaIS0_EED2Ev
FNA:19,3,_ZNSt6vectorI5PointSaIS0_EED2Ev
FNL:20,873,874
FNA:20,4,_ZNSt6vectorI4PairSaIS0_EE5beginEv
FNL:21,893,894
FNA:21,12,_ZNSt6vectorI4PairSaIS0_EE3endEv
FNL:22,98,100
FNA:22,3,_ZNSt12_Vector_baseI5PointSaIS0_EE17_Vector_impl_dataC2Ev
FNL:23,992,993
FNA:23,2,_ZNKSt6vectorI4PairSaIS0_EE4sizeEv
FNA:23,4,_ZNKSt6vectorI5PointSaIS0_EE4sizeEv
FNL:24,998,999
FNA:24,2,_ZNKSt6vectorI4PairSaIS0_EE8max_sizeEv
FNF:25
FNH:24
DA:98,3
DA:99,3
DA:100,3
DA:145,3
DA:146,3
DA:147,3
DA:300,10
DA:301,10
DA:305,2
DA:306,2
DA:332,3
DA:333,3
DA:334,3
DA:366,5
DA:368,5
DA:369,5
DA:370,5
DA:377,5
DA:380,10
DA:385,7
DA:388,7
DA:389,5
DA:390,7
DA:396,3
DA:398,3
DA:399,3
DA:400,3
DA:401,3
DA:504,2
DA:509,2
DA:556,3
DA:557,3
DA:558,3
DA:733,5
DA:735,5
DA:736,5
DA:738,5
DA:873,4
DA:874,4
DA:893,12
DA:894,12
DA:992,6
DA:993,6
DA:998,2
DA:999,2
DA:1078,2
DA:1080,2
DA:1081,2
DA:1128,12
DA:1131,12
DA:1147,16
DA:1150,16
DA:1235,8
DA:1238,8
DA:1300,8
DA:1301,8
DA:1717,3
DA:1719,3
DA:1720,3
DA:1721,3
DA:1722,3
DA:1906,0
DA:1908,0
DA:1909,0
DA:1911,0
DA:1912,0
DA:1917,3
DA:1919,3
DA:1920,0
DA:1922,3
DA:1926,5
DA:1931,5
DA:1933,5
DA:1934,5
LF:74
LH:68
end_of_record
TN:
SF:/usr/include/c++/14/bits/vector.tcc
FNL:0,111,127
FNA:0,8,_ZNSt6vectorI4PairSaIS0_EE12emplace_backIJS0_EEERS0_DpOT_
FNL:1,581,695
FNA:1,0,_ZNSt6vectorI4PairSaIS0_EE17_M_realloc_appendIJS0_EEEvDpOT_
FNL:2,607,609
FNA:2,0,_ZZNSt6vectorI4PairSaIS0_EE17_M_realloc_appendIJS0_EEEvDpOT_EN6_GuardC2EPS0_mRS1_
FNL:3,612,617
FNA:3,0,_ZZNSt6vectorI4PairSaIS0_EE17_M_realloc_appendIJS0_EEEvDpOT_EN6_GuardD2Ev
FNL:4,67,100
FNA:4,2,_ZNSt6vectorI4PairSaIS0_EE7reserveEm
FNF:5
FNH:2
DA:67,2
DA:70,2
DA:71,0
DA:72,2
DA:74,2
DA:79,2
DA:80,2
DA:81,2
DA:93,2
DA:94,2
DA:95,2
DA:96,2
DA:97,2
DA:98,2
DA:100,2
DA:111,8
DA:114,8
DA:117,8
DA:119,8
DA:123,0
DA:125,8
DA:581,0
DA:590,0
DA:591,0
DA:592,0
DA:593,0
DA:594,0
DA:595,0
DA:596,0
DA:597,0
DA:607,0
DA:608,0
DA:609,0
DA:612,0
DA:614,0
DA:616,0
DA:617,0
DA:624,0
DA:634,0
DA:635,0
DA:647,0
DA:648,0
DA:649,0
DA:686,0
DA:687,0
DA:688,0
DA:692,0
DA:693,0
DA:694,0
DA:695,0
LF:50
LH:19
end_of_record
TN:
SF:/usr/include/c++/14/compare
FNL:0,1224,1243
FNA:0,0,_ZNKSt8__detail10_Synth3wayclIP4PairS3_EEDaRKT_RKT0_QrqXltfL0p_fL0p0_RNS_18__boolean_testableEXltfL0p0_fL0p_RNS_18__boolean_testableEE
FNL:1,291,292
FNA:1,0,_ZStltSt15strong_orderingNSt9__cmp_cat8__unspecE
FNF:2
FNH:0
DA:291,0
DA:292,0
DA:1224,0
DA:1233,0
LF:4
LH:0
end_of_record
TN:
SF:/usr/include/c++/14/iomanip
FNL:0,202,203
FNA:0,1,_ZSt12setprecisioni
FNF:1
FNH:1
DA:202,1
DA:203,1
LF:2
LH:2
end_of_record
TN:
SF:/usr/include/c++/14/new
FNL:0,179,180
FNA:0,11,_ZnwmPv
FNF:1
FNH:1
DA:179,11
DA:180,11
LF:2
LH:2
end_of_record
TN:
SF:/usr/include/c++/14/type_traits
FNL:0,3832,3839
FNA:0,11,_ZSt21is_constant_evaluatedv
FNF:1
FNH:1
DA:3832,11
DA:3835,11
LF:2
LH:2
end_of_record
TN:
SF:/usr/include/c++/14/x86_64-redhat-linux/bits/c++config.h
FNF:0
FNH:0
DA:2394,26
LF:1
LH:1
end_of_record
