TN:
SF:/home/monika/Documents/problems/15237번： Cipher/main.cpp
FNL:0,30,35
FNA:0,11,_ZZ4mainENKUliiE_clEii
FNL:1,8,43
FNA:1,1,main
FNF:2
FNH:2
DA:8,1
DA:10,1
DA:11,1
DA:13,1
DA:14,1
DA:16,1
DA:17,1
DA:18,1
DA:20,6
DA:22,5
DA:23,5
DA:24,5
DA:26,2
DA:30,1
DA:32,11
DA:33,5
DA:35,6
DA:37,6
DA:39,5
DA:41,1
DA:42,1
DA:43,2
LF:22
LH:22
end_of_record
TN:
SF:/usr/include/c++/14/bit
FNF:0
FNH:0
DA:201,1
DA:204,1
DA:206,1
DA:209,1
DA:210,1
DA:211,1
DA:220,1
DA:221,1
DA:371,1
DA:373,1
DA:374,1
LF:11
LH:11
end_of_record
TN:
SF:/usr/include/c++/14/bits/alloc_traits.h
FNF:0
FNH:0
DA:514,7
DA:515,5
DA:549,7
DA:550,7
DA:566,4
DA:577,4
DA:990,1
LF:7
LH:7
end_of_record
TN:
SF:/usr/include/c++/14/bits/allocator.h
FNF:0
FNH:0
DA:161,1
DA:176,4
DA:182,5
DA:187,4
DA:196,7
DA:201,7
DA:208,7
LF:7
LH:7
end_of_record
TN:
SF:/usr/include/c++/14/bits/basic_ios.h
FNF:0
FNH:0
DA:311,1
DA:313,1
DA:314,1
LF:3
LH:3
end_of_record
TN:
SF:/usr/include/c++/14/bits/functional_hash.h
FNF:0
FNH:0
DA:154,57
LF:1
LH:1
end_of_record
TN:
SF:/usr/include/c++/14/bits/hashtable.h
FNL:0,1750,1766
FNA:0,5,_ZNKSt10_HashtableIiSt4pairIKiiESaIS2_ENSt8__detail10_Select1stESt8equal_toIiESt4hashIiENS4_18_Mod_range_hashingENS4_20_Default_ranged_hashENS4_20_Prime_rehash_policyENS4_17_Hashtable_traitsILb0ELb0ELb1EEEE4findERS1_
FNL:1,2065,2087
FNA:1,55,_ZNKSt10_HashtableIiSt4pairIKiiESaIS2_ENSt8__detail10_Select1stESt8equal_toIiESt4hashIiENS4_18_Mod_range_hashingENS4_20_Default_ranged_hashENS4_20_Prime_rehash_policyENS4_17_Hashtable_traitsILb0ELb0ELb1EEEE19_M_find_before_nodeEmRS1_m
FNL:2,2228,2252
FNA:2,4,_ZNSt10_HashtableIiSt4pairIKiiESaIS2_ENSt8__detail10_Select1stESt8equal_toIiESt4hashIiENS4_18_Mod_range_hashingENS4_20_Default_ranged_hashENS4_20_Prime_rehash_policyENS4_17_Hashtable_traitsILb0ELb0ELb1EEEE21_M_insert_unique_nodeEmmPNS4_10_Hash_nodeIS2_Lb0EEEm
FNL:3,2584,2593
FNA:3,2,_ZNSt10_HashtableIiSt4pairIKiiESaIS2_ENSt8__detail10_Select1stESt8equal_toIiESt4hashIiENS4_18_Mod_range_hashingENS4_20_Default_ranged_hashENS4_20_Prime_rehash_policyENS4_17_Hashtable_traitsILb0ELb0ELb1EEEE5clearEv
FNL:4,2623,2657
FNA:4,2,_ZNSt10_HashtableIiSt4pairIKiiESaIS2_ENSt8__detail10_Select1stESt8equal_toIiESt4hashIiENS4_18_Mod_range_hashingENS4_20_Default_ranged_hashENS4_20_Prime_rehash_policyENS4_17_Hashtable_traitsILb0ELb0ELb1EEEE9_M_rehashEmSt17integral_constantIbLb1EE
FNL:5,316,316
FNA:5,4,_ZNSt10_HashtableIiSt4pairIKiiESaIS2_ENSt8__detail10_Select1stESt8equal_toIiESt4hashIiENS4_18_Mod_range_hashingENS4_20_Default_ranged_hashENS4_20_Prime_rehash_policyENS4_17_Hashtable_traitsILb0ELb0ELb1EEEE12_Scoped_nodeD2Ev
FNL:6,460,461
FNA:6,4,_ZNSt10_HashtableIiSt4pairIKiiESaIS2_ENSt8__detail10_Select1stESt8equal_toIiESt4hashIiENS4_18_Mod_range_hashingENS4_20_Default_ranged_hashENS4_20_Prime_rehash_policyENS4_17_Hashtable_traitsILb0ELb0ELb1EEEE21_M_deallocate_bucketsEv
FNL:7,841,865
FNA:7,4,_ZNSt10_HashtableIiSt4pairIKiiESaIS2_ENSt8__detail10_Select1stESt8equal_toIiESt4hashIiENS4_18_Mod_range_hashingENS4_20_Default_ranged_hashENS4_20_Prime_rehash_policyENS4_17_Hashtable_traitsILb0ELb0ELb1EEEE22_M_insert_bucket_beginEmPNS4_10_Hash_nodeIS2_Lb0EEE
FNF:8
FNH:8
DA:310,4
DA:311,4
DA:312,4
DA:316,4
DA:421,4
DA:422,4
DA:439,2
DA:441,2
DA:443,0
DA:444,0
DA:447,2
DA:451,4
DA:453,4
DA:456,2
DA:460,4
DA:461,4
DA:473,5
DA:474,5
DA:539,1
DA:644,1
DA:645,1
DA:656,5
DA:657,5
DA:799,2
DA:800,2
DA:803,57
DA:804,53
DA:819,55
DA:822,55
DA:823,51
DA:824,50
DA:841,4
DA:843,4
DA:847,0
DA:848,0
DA:855,4
DA:856,4
DA:858,4
DA:861,2
DA:863,4
DA:865,4
DA:1658,2
DA:1671,2
DA:1672,1
DA:1673,2
DA:1750,5
DA:1755,5
DA:1757,1
DA:1758,0
DA:1759,0
DA:1760,1
DA:1763,4
DA:1764,4
DA:1765,4
DA:1823,5
DA:1828,5
DA:1829,5
DA:2065,55
DA:2071,55
DA:2072,55
DA:2075,50
DA:2078,50
DA:2081,0
DA:2228,4
DA:2234,4
DA:2236,4
DA:2239,4
DA:2241,2
DA:2242,2
DA:2245,4
DA:2249,4
DA:2250,4
DA:2251,4
DA:2252,4
DA:2584,2
DA:2588,2
DA:2589,2
DA:2590,2
DA:2591,2
DA:2592,2
DA:2593,2
DA:2623,2
DA:2627,2
DA:2628,2
DA:2629,2
DA:2630,2
DA:2631,2
DA:2633,0
DA:2635,0
DA:2636,0
DA:2638,0
DA:2639,0
DA:2640,0
DA:2641,0
DA:2642,0
DA:2647,0
DA:2648,0
DA:2654,2
DA:2655,2
DA:2656,2
DA:2657,2
LF:101
LH:84
end_of_record
TN:
SF:/usr/include/c++/14/bits/hashtable_policy.h
FNL:0,2070,2079
FNA:0,2,_ZNSt8__detail16_Hashtable_allocISaINS_10_Hash_nodeISt4pairIKiiELb0EEEEE19_M_allocate_bucketsEm
FNL:1,832,853
FNA:1,51,_ZNSt8__detail9_Map_baseIiSt4pairIKiiESaIS3_ENS_10_Select1stESt8equal_toIiESt4hashIiENS_18_Mod_range_hashingENS_20_Default_ranged_hashENS_20_Prime_rehash_policyENS_17_Hashtable_traitsILb0ELb0ELb1EEELb1EEixERS2_
FNF:2
FNH:2
DA:319,5
DA:339,59
DA:344,52
DA:349,47
DA:381,4
DA:386,4
DA:387,0
DA:399,9
DA:442,4
DA:443,4
DA:450,4
DA:451,4
DA:489,5
DA:490,5
DA:532,59
DA:534,2
DA:550,1
DA:551,1
DA:577,4
DA:578,4
DA:585,0
DA:586,0
DA:730,4
DA:731,4
DA:732,4
DA:736,4
DA:739,0
DA:832,51
DA:837,51
DA:838,51
DA:839,51
DA:840,47
DA:841,47
DA:843,4
DA:846,4
DA:850,4
DA:851,4
DA:852,4
DA:853,4
DA:1242,2
DA:1245,1
DA:1328,1
DA:1333,57
DA:1337,55
DA:1358,57
DA:1359,57
DA:1362,2
DA:1368,2
DA:1728,1
DA:1735,50
DA:1742,0
DA:1759,50
DA:1761,50
DA:1942,2
DA:1970,1
DA:2017,4
DA:2020,4
DA:2021,4
DA:2022,4
DA:2025,4
DA:2026,4
DA:2040,4
DA:2042,0
DA:2043,0
DA:2044,4
DA:2048,4
DA:2051,4
DA:2052,4
DA:2053,4
DA:2058,2
DA:2060,6
DA:2062,4
DA:2063,4
DA:2064,4
DA:2070,2
DA:2073,2
DA:2075,2
DA:2076,2
DA:2077,2
DA:2078,2
DA:2083,2
DA:2088,2
DA:2089,2
DA:2090,2
DA:2091,2
LF:85
LH:78
end_of_record
TN:
SF:/usr/include/c++/14/bits/move.h
FNF:0
FNH:0
DA:226,0
DA:234,0
DA:235,0
DA:236,0
LF:4
LH:0
end_of_record
TN:
SF:/usr/include/c++/14/bits/new_allocator.h
FNL:0,126,152
FNA:0,2,_ZNSt15__new_allocatorIPNSt8__detail15_Hash_node_baseEE8allocateEmPKv
FNA:0,1,_ZNSt15__new_allocatorIiE8allocateEmPKv
FNF:1
FNH:1
DA:126,7
DA:134,3
DA:138,0
DA:139,0
DA:140,0
DA:151,7
DA:156,7
DA:172,7
LF:8
LH:5
end_of_record
TN:
SF:/usr/include/c++/14/bits/predefined_ops.h
FNF:0
FNH:0
DA:150,1
DA:157,4
DA:158,4
DA:164,1
DA:165,1
DA:187,0
DA:188,0
DA:195,0
DA:196,0
DA:231,4
DA:239,7
DA:240,7
DA:252,4
DA:253,4
LF:14
LH:10
end_of_record
TN:
SF:/usr/include/c++/14/bits/stl_algo.h
FNL:0,1589,1597
FNA:0,0,_ZSt13__heap_selectIN9__gnu_cxx17__normal_iteratorIPiSt6vectorIiSaIiEEEENS0_5__ops15_Iter_comp_iterIZ4mainEUliiE_EEEvT_SB_SB_T0_
FNL:1,1750,1764
FNA:1,4,_ZSt25__unguarded_linear_insertIN9__gnu_cxx17__normal_iteratorIPiSt6vectorIiSaIiEEEENS0_5__ops14_Val_comp_iterIZ4mainEUliiE_EEEvT_T0_
FNL:2,1770,1788
FNA:2,1,_ZSt16__insertion_sortIN9__gnu_cxx17__normal_iteratorIPiSt6vectorIiSaIiEEEENS0_5__ops15_Iter_comp_iterIZ4mainEUliiE_EEEvT_SB_T0_
FNL:3,1794,1800
FNA:3,0,_ZSt26__unguarded_insertion_sortIN9__gnu_cxx17__normal_iteratorIPiSt6vectorIiSaIiEEEENS0_5__ops15_Iter_comp_iterIZ4mainEUliiE_EEEvT_SB_T0_
FNL:4,1812,1823
FNA:4,1,_ZSt22__final_insertion_sortIN9__gnu_cxx17__normal_iteratorIPiSt6vectorIiSaIiEEEENS0_5__ops15_Iter_comp_iterIZ4mainEUliiE_EEEvT_SB_T0_
FNL:5,1829,1845
FNA:5,0,_ZSt21__unguarded_partitionIN9__gnu_cxx17__normal_iteratorIPiSt6vectorIiSaIiEEEENS0_5__ops15_Iter_comp_iterIZ4mainEUliiE_EEET_SB_SB_SB_T0_
FNL:6,1851,1858
FNA:6,0,_ZSt27__unguarded_partition_pivotIN9__gnu_cxx17__normal_iteratorIPiSt6vectorIiSaIiEEEENS0_5__ops15_Iter_comp_iterIZ4mainEUliiE_EEET_SB_SB_T0_
FNL:7,1863,1870
FNA:7,0,_ZSt14__partial_sortIN9__gnu_cxx17__normal_iteratorIPiSt6vectorIiSaIiEEEENS0_5__ops15_Iter_comp_iterIZ4mainEUliiE_EEEvT_SB_SB_T0_
FNL:8,1876,1893
FNA:8,1,_ZSt16__introsort_loopIN9__gnu_cxx17__normal_iteratorIPiSt6vectorIiSaIiEEEElNS0_5__ops15_Iter_comp_iterIZ4mainEUliiE_EEEvT_SB_T0_T1_
FNL:9,1900,1910
FNA:9,1,_ZSt6__sortIN9__gnu_cxx17__normal_iteratorIPiSt6vectorIiSaIiEEEENS0_5__ops15_Iter_comp_iterIZ4mainEUliiE_EEEvT_SB_T0_
FNL:10,85,103
FNA:10,0,_ZSt22__move_median_to_firstIN9__gnu_cxx17__normal_iteratorIPiSt6vectorIiSaIiEEEENS0_5__ops15_Iter_comp_iterIZ4mainEUliiE_EEEvT_SB_SB_SB_T0_
FNF:11
FNH:5
DA:85,0
DA:88,0
DA:90,0
DA:91,0
DA:92,0
DA:93,0
DA:95,0
DA:97,0
DA:98,0
DA:99,0
DA:100,0
DA:102,0
DA:103,0
DA:1589,0
DA:1593,0
DA:1594,0
DA:1595,0
DA:1596,0
DA:1597,0
DA:1750,4
DA:1754,4
DA:1755,4
DA:1756,4
DA:1757,7
DA:1759,3
DA:1760,3
DA:1761,3
DA:1763,4
DA:1764,4
DA:1770,1
DA:1773,1
DA:1775,5
DA:1777,4
DA:1780,0
DA:1781,0
DA:1782,0
DA:1785,4
DA:1794,0
DA:1797,0
DA:1798,0
DA:1800,0
DA:1812,1
DA:1815,1
DA:1817,0
DA:1818,0
DA:1822,1
DA:1823,1
DA:1829,0
DA:1833,0
DA:1835,0
DA:1836,0
DA:1837,0
DA:1838,0
DA:1839,0
DA:1840,0
DA:1841,0
DA:1842,0
DA:1843,0
DA:1851,0
DA:1854,0
DA:1855,0
DA:1857,0
DA:1863,0
DA:1868,0
DA:1869,0
DA:1870,0
DA:1876,1
DA:1880,1
DA:1882,0
DA:1884,0
DA:1885,0
DA:1887,0
DA:1889,0
DA:1890,0
DA:1891,0
DA:1900,1
DA:1903,1
DA:1905,1
DA:1906,2
DA:1908,1
DA:1910,1
DA:4793,1
DA:4805,1
DA:4806,1
LF:84
LH:30
end_of_record
TN:
SF:/usr/include/c++/14/bits/stl_algobase.h
FNL:0,762,771
FNA:0,0,_ZNSt20__copy_move_backwardILb1ELb1ESt26random_access_iterator_tagE13__copy_move_bIiiEEPT0_PT_S6_S4_
FNF:1
FNH:0
DA:155,0
DA:185,0
DA:346,0
DA:347,0
DA:437,0
DA:438,0
DA:762,0
DA:764,0
DA:765,0
DA:766,0
DA:767,0
DA:769,0
DA:770,0
DA:777,0
DA:787,0
DA:795,0
DA:796,0
DA:823,0
DA:825,0
DA:913,0
DA:922,0
DA:947,1
DA:950,1
DA:951,5
DA:952,4
DA:997,1
DA:998,1
DA:1140,1
DA:1146,1
DA:1151,1
DA:1175,1
DA:1180,1
DA:1544,1
DA:1547,2
LF:34
LH:13
end_of_record
TN:
SF:/usr/include/c++/14/bits/stl_construct.h
FNF:0
FNH:0
DA:94,4
DA:97,4
DA:109,1
DA:119,1
LF:4
LH:4
end_of_record
TN:
SF:/usr/include/c++/14/bits/stl_function.h
FNF:0
FNH:0
DA:374,50
DA:375,50
LF:2
LH:2
end_of_record
TN:
SF:/usr/include/c++/14/bits/stl_heap.h
FNL:0,135,147
FNA:0,0,_ZSt11__push_heapIN9__gnu_cxx17__normal_iteratorIPiSt6vectorIiSaIiEEEEliNS0_5__ops14_Iter_comp_valIZ4mainEUliiE_EEEvT_T0_SC_T1_RT2_
FNL:1,224,249
FNA:1,0,_ZSt13__adjust_heapIN9__gnu_cxx17__normal_iteratorIPiSt6vectorIiSaIiEEEEliNS0_5__ops15_Iter_comp_iterIZ4mainEUliiE_EEEvT_T0_SC_T1_T2_
FNL:2,254,267
FNA:2,0,_ZSt10__pop_heapIN9__gnu_cxx17__normal_iteratorIPiSt6vectorIiSaIiEEEENS0_5__ops15_Iter_comp_iterIZ4mainEUliiE_EEEvT_SB_SB_RT0_
FNL:3,340,362
FNA:3,0,_ZSt11__make_heapIN9__gnu_cxx17__normal_iteratorIPiSt6vectorIiSaIiEEEENS0_5__ops15_Iter_comp_iterIZ4mainEUliiE_EEEvT_SB_RT0_
FNL:4,419,427
FNA:4,0,_ZSt11__sort_heapIN9__gnu_cxx17__normal_iteratorIPiSt6vectorIiSaIiEEEENS0_5__ops15_Iter_comp_iterIZ4mainEUliiE_EEEvT_SB_RT0_
FNF:5
FNH:0
DA:135,0
DA:139,0
DA:140,0
DA:142,0
DA:143,0
DA:144,0
DA:146,0
DA:147,0
DA:224,0
DA:227,0
DA:228,0
DA:229,0
DA:231,0
DA:232,0
DA:234,0
DA:235,0
DA:236,0
DA:238,0
DA:240,0
DA:241,0
DA:243,0
DA:246,0
DA:247,0
DA:249,0
DA:254,0
DA:262,0
DA:263,0
DA:264,0
DA:265,0
DA:267,0
DA:340,0
DA:348,0
DA:351,0
DA:352,0
DA:353,0
DA:355,0
DA:356,0
DA:358,0
DA:359,0
DA:360,0
DA:419,0
DA:422,0
DA:424,0
DA:425,0
DA:427,0
LF:45
LH:0
end_of_record
TN:
SF:/usr/include/c++/14/bits/stl_iterator.h
FNF:0
FNH:0
DA:1067,1
DA:1068,1
DA:1090,4
DA:1100,9
DA:1102,0
DA:1103,9
DA:1114,7
DA:1116,7
DA:1117,7
DA:1138,0
DA:1139,1
DA:1148,0
DA:1149,0
DA:1188,0
DA:1194,0
DA:1199,0
DA:1202,0
DA:1325,3
DA:1328,3
LF:19
LH:11
end_of_record
TN:
SF:/usr/include/c++/14/bits/stl_uninitialized.h
FNL:0,660,671
FNA:0,1,_ZNSt27__uninitialized_default_n_1ILb1EE18__uninit_default_nIPimEET_S3_T0_
FNF:1
FNH:1
DA:660,1
DA:662,1
DA:664,1
DA:666,1
DA:667,1
DA:668,1
DA:670,1
DA:696,1
DA:707,1
DA:712,1
DA:777,1
DA:779,1
LF:12
LH:12
end_of_record
TN:
SF:/usr/include/c++/14/bits/stl_vector.h
FNL:0,366,370
FNA:0,1,_ZNSt12_Vector_baseIiSaIiEED2Ev
FNL:1,396,401
FNA:1,1,_ZNSt12_Vector_baseIiSaIiEE17_M_create_storageEm
FNL:2,556,558
FNA:2,1,_ZNSt6vectorIiSaIiEEC2EmRKS0_
FNF:3
FNH:3
DA:98,1
DA:99,1
DA:132,1
DA:145,1
DA:146,1
DA:300,1
DA:332,1
DA:333,1
DA:334,1
DA:366,1
DA:368,2
DA:369,1
DA:370,1
DA:377,1
DA:380,1
DA:385,1
DA:388,1
DA:389,1
DA:396,1
DA:398,1
DA:399,1
DA:400,1
DA:401,1
DA:556,1
DA:557,1
DA:558,1
DA:733,1
DA:735,1
DA:736,1
DA:738,1
DA:873,2
DA:874,2
DA:893,2
DA:894,2
DA:1128,5
DA:1131,5
DA:1717,1
DA:1719,1
DA:1720,2
DA:1721,1
DA:1917,1
DA:1919,1
DA:1920,0
LF:43
LH:42
end_of_record
TN:
SF:/usr/include/c++/14/bits/unordered_map.h
FNF:0
FNH:0
DA:109,3
DA:148,1
DA:909,5
DA:910,5
DA:987,51
DA:988,29
LF:6
LH:6
end_of_record
TN:
SF:/usr/include/c++/14/compare
FNF:0
FNH:0
DA:1224,0
DA:1233,0
LF:2
LH:0
end_of_record
TN:
SF:/usr/include/c++/14/ext/aligned_buffer.h
FNF:0
FNH:0
DA:106,8
DA:117,51
LF:2
LH:2
end_of_record
TN:
SF:/usr/include/c++/14/tuple
FNF:0
FNH:0
DA:201,4
DA:556,4
DA:566,4
DA:567,4
DA:586,4
DA:971,4
DA:974,4
DA:995,4
DA:2428,4
DA:2443,4
DA:2444,4
DA:2872,4
DA:2877,4
DA:2884,4
DA:2887,4
DA:2888,4
LF:16
LH:16
end_of_record
