TN:
SF:/home/monika/Documents/problems/15030번： Deranging Hat/main.cpp
FNL:0,4,82
FNA:0,2,main
FNL:1,40,52
FNA:1,3,_ZZ4mainENKUliiE_clEii
FNF:2
FNH:2
DA:4,2
DA:6,2
DA:7,2
DA:9,2
DA:10,2
DA:12,2
DA:13,2
DA:14,2
DA:16,2
DA:17,9
DA:19,7
DA:22,2
DA:23,9
DA:25,7
DA:26,7
DA:27,7
DA:30,2
DA:31,9
DA:33,7
DA:36,2
DA:37,2
DA:38,2
DA:40,5
DA:42,3
DA:44,3
DA:48,0
DA:51,3
DA:52,5
DA:54,9
DA:56,7
DA:57,5
DA:58,4
DA:59,4
DA:61,11
DA:63,7
DA:64,7
DA:65,7
DA:68,4
DA:69,2
DA:70,5
DA:72,3
DA:74,4
DA:76,5
DA:78,3
DA:81,2
DA:82,4
LF:46
LH:45
end_of_record
TN:
SF:/usr/include/c++/14/bit
FNF:0
FNH:0
DA:201,2
DA:204,2
DA:209,2
DA:210,2
DA:211,2
DA:220,2
DA:221,2
DA:371,2
DA:373,2
DA:374,2
LF:10
LH:10
end_of_record
TN:
SF:/usr/include/c++/14/bits/alloc_traits.h
FNF:0
FNH:0
DA:514,35
DA:515,33
DA:549,35
DA:550,35
DA:566,23
DA:577,23
DA:581,5
DA:593,13
DA:599,13
DA:626,2
DA:627,2
DA:990,8
LF:12
LH:12
end_of_record
TN:
SF:/usr/include/c++/14/bits/allocator.h
FNF:0
FNH:0
DA:161,8
DA:165,2
DA:176,16
DA:182,28
DA:187,10
DA:196,35
DA:201,35
DA:208,35
LF:8
LH:8
end_of_record
TN:
SF:/usr/include/c++/14/bits/basic_ios.h
FNF:0
FNH:0
DA:311,2
DA:313,2
DA:314,2
LF:3
LH:3
end_of_record
TN:
SF:/usr/include/c++/14/bits/basic_string.h
FNL:0,285,289
FNA:0,4,_ZNSt7__cxx1112basic_stringIcSt11char_traitsIcESaIcEE10_M_disposeEv
FNL:1,430,436
FNA:1,2,_ZNSt7__cxx1112basic_stringIcSt11char_traitsIcESaIcEE7_S_copyEPcPKcm
FNL:2,552,558
FNA:2,2,_ZNSt7__cxx1112basic_stringIcSt11char_traitsIcESaIcEEC2ERKS4_
FNF:3
FNH:3
DA:129,0
DA:131,0
DA:186,4
DA:197,4
DA:198,4
DA:217,0
DA:218,0
DA:222,4
DA:223,4
DA:227,28
DA:228,2
DA:232,4
DA:235,2
DA:243,4
DA:246,4
DA:254,0
DA:255,0
DA:259,4
DA:261,4
DA:262,4
DA:267,4
DA:269,4
DA:271,4
DA:272,0
DA:285,4
DA:287,4
DA:288,0
DA:289,4
DA:293,0
DA:294,0
DA:342,0
DA:346,2
DA:347,2
DA:353,2
DA:430,2
DA:432,2
DA:433,0
DA:435,2
DA:436,2
DA:482,2
DA:483,2
DA:527,2
DA:529,2
DA:531,2
DA:532,2
DA:552,2
DA:553,2
DA:554,2
DA:556,2
DA:558,2
DA:808,2
DA:809,2
DA:960,4
DA:961,4
DA:978,4
DA:979,4
DA:1076,6
DA:1077,4
DA:1083,2
DA:1084,2
DA:1265,14
DA:1269,14
DA:1272,14
LF:63
LH:51
end_of_record
TN:
SF:/usr/include/c++/14/bits/basic_string.tcc
FNL:0,138,160
FNA:0,0,_ZNSt7__cxx1112basic_stringIcSt11char_traitsIcESaIcEE9_M_createERmm
FNL:1,221,252
FNA:1,2,_ZNSt7__cxx1112basic_stringIcSt11char_traitsIcESaIcEE12_M_constructIPcEEvT_S7_St20forward_iterator_tag
FNF:2
FNH:1
DA:138,0
DA:143,0
DA:144,0
DA:149,0
DA:151,0
DA:153,0
DA:154,0
DA:159,0
DA:221,2
DA:225,2
DA:227,2
DA:229,0
DA:230,0
DA:239,2
DA:242,2
DA:245,2
DA:247,2
DA:249,2
DA:251,2
DA:252,2
LF:20
LH:10
end_of_record
TN:
SF:/usr/include/c++/14/bits/char_traits.h
FNF:0
FNH:0
DA:343,4
DA:346,4
DA:350,2
DA:351,0
DA:419,2
DA:421,2
DA:424,2
DA:427,2
LF:8
LH:7
end_of_record
TN:
SF:/usr/include/c++/14/bits/deque.tcc
FNL:0,484,516
FNA:0,0,_ZNSt5dequeIiSaIiEE16_M_push_back_auxIJRKiEEEvDpOT_
FNL:1,576,584
FNA:1,0,_ZNSt5dequeIiSaIiEE16_M_pop_front_auxEv
FNL:2,934,976
FNA:2,0,_ZNSt5dequeIiSaIiEE17_M_reallocate_mapEmb
FNF:3
FNH:0
DA:484,0
DA:492,0
DA:493,0
DA:496,0
DA:497,0
DA:501,0
DA:507,0
DA:509,0
DA:516,0
DA:576,0
DA:579,0
DA:581,0
DA:582,0
DA:583,0
DA:584,0
DA:934,0
DA:937,0
DA:938,0
DA:939,0
DA:942,0
DA:944,0
DA:945,0
DA:946,0
DA:947,0
DA:948,0
DA:952,0
DA:958,0
DA:959,0
DA:962,0
DA:963,0
DA:964,0
DA:965,0
DA:966,0
DA:968,0
DA:970,0
DA:971,0
DA:974,0
DA:975,0
DA:976,0
LF:39
LH:0
end_of_record
TN:
SF:/usr/include/c++/14/bits/functional_hash.h
FNF:0
FNH:0
DA:128,24
LF:1
LH:1
end_of_record
TN:
SF:/usr/include/c++/14/bits/hashtable.h
FNL:0,2065,2087
FNA:0,21,_ZNKSt10_HashtableIcSt4pairIKcSt5queueIiSt5dequeIiSaIiEEEESaIS7_ENSt8__detail10_Select1stESt8equal_toIcESt4hashIcENS9_18_Mod_range_hashingENS9_20_Default_ranged_hashENS9_20_Prime_rehash_policyENS9_17_Hashtable_traitsILb0ELb0ELb1EEEE19_M_find_before_nodeEmRS1_m
FNL:1,2228,2252
FNA:1,5,_ZNSt10_HashtableIcSt4pairIKcSt5queueIiSt5dequeIiSaIiEEEESaIS7_ENSt8__detail10_Select1stESt8equal_toIcESt4hashIcENS9_18_Mod_range_hashingENS9_20_Default_ranged_hashENS9_20_Prime_rehash_policyENS9_17_Hashtable_traitsILb0ELb0ELb1EEEE21_M_insert_unique_nodeEmmPNS9_10_Hash_nodeIS7_Lb0EEEm
FNL:2,2584,2593
FNA:2,2,_ZNSt10_HashtableIcSt4pairIKcSt5queueIiSt5dequeIiSaIiEEEESaIS7_ENSt8__detail10_Select1stESt8equal_toIcESt4hashIcENS9_18_Mod_range_hashingENS9_20_Default_ranged_hashENS9_20_Prime_rehash_policyENS9_17_Hashtable_traitsILb0ELb0ELb1EEEE5clearEv
FNL:3,2623,2657
FNA:3,2,_ZNSt10_HashtableIcSt4pairIKcSt5queueIiSt5dequeIiSaIiEEEESaIS7_ENSt8__detail10_Select1stESt8equal_toIcESt4hashIcENS9_18_Mod_range_hashingENS9_20_Default_ranged_hashENS9_20_Prime_rehash_policyENS9_17_Hashtable_traitsILb0ELb0ELb1EEEE9_M_rehashEmSt17integral_constantIbLb1EE
FNL:4,316,316
FNA:4,5,_ZNSt10_HashtableIcSt4pairIKcSt5queueIiSt5dequeIiSaIiEEEESaIS7_ENSt8__detail10_Select1stESt8equal_toIcESt4hashIcENS9_18_Mod_range_hashingENS9_20_Default_ranged_hashENS9_20_Prime_rehash_policyENS9_17_Hashtable_traitsILb0ELb0ELb1EEEE12_Scoped_nodeD2Ev
FNL:5,460,461
FNA:5,4,_ZNSt10_HashtableIcSt4pairIKcSt5queueIiSt5dequeIiSaIiEEEESaIS7_ENSt8__detail10_Select1stESt8equal_toIcESt4hashIcENS9_18_Mod_range_hashingENS9_20_Default_ranged_hashENS9_20_Prime_rehash_policyENS9_17_Hashtable_traitsILb0ELb0ELb1EEEE21_M_deallocate_bucketsEv
FNL:6,841,865
FNA:6,5,_ZNSt10_HashtableIcSt4pairIKcSt5queueIiSt5dequeIiSaIiEEEESaIS7_ENSt8__detail10_Select1stESt8equal_toIcESt4hashIcENS9_18_Mod_range_hashingENS9_20_Default_ranged_hashENS9_20_Prime_rehash_policyENS9_17_Hashtable_traitsILb0ELb0ELb1EEEE22_M_insert_bucket_beginEmPNS9_10_Hash_nodeIS7_Lb0EEE
FNF:7
FNH:7
DA:310,5
DA:311,5
DA:312,5
DA:316,5
DA:421,4
DA:422,4
DA:439,2
DA:441,2
DA:443,0
DA:444,0
DA:447,2
DA:451,4
DA:453,4
DA:456,2
DA:460,4
DA:461,4
DA:473,4
DA:474,4
DA:539,2
DA:799,3
DA:800,3
DA:803,23
DA:804,23
DA:819,21
DA:822,21
DA:823,21
DA:824,16
DA:841,5
DA:843,5
DA:847,0
DA:848,0
DA:855,5
DA:856,5
DA:858,5
DA:861,3
DA:863,5
DA:865,5
DA:1658,2
DA:1671,2
DA:1672,2
DA:1673,2
DA:2065,21
DA:2071,21
DA:2072,21
DA:2075,16
DA:2078,16
DA:2081,0
DA:2228,5
DA:2234,5
DA:2236,5
DA:2239,5
DA:2241,2
DA:2242,2
DA:2245,5
DA:2249,5
DA:2250,5
DA:2251,5
DA:2252,5
DA:2584,2
DA:2588,2
DA:2589,2
DA:2590,2
DA:2591,2
DA:2592,2
DA:2593,2
DA:2623,2
DA:2627,2
DA:2628,2
DA:2629,2
DA:2630,2
DA:2631,2
DA:2633,0
DA:2635,0
DA:2636,0
DA:2638,0
DA:2639,0
DA:2640,0
DA:2641,0
DA:2642,0
DA:2647,0
DA:2648,0
DA:2654,2
DA:2655,2
DA:2656,2
DA:2657,2
LF:85
LH:70
end_of_record
TN:
SF:/usr/include/c++/14/bits/hashtable_policy.h
FNL:0,2017,2036
FNA:0,5,_ZNSt8__detail16_Hashtable_allocISaINS_10_Hash_nodeISt4pairIKcSt5queueIiSt5dequeIiSaIiEEEELb0EEEEE16_M_allocate_nodeIJRKSt21piecewise_construct_tSt5tupleIJRS3_EESH_IJEEEEEPSA_DpOT_
FNL:1,2058,2066
FNA:1,2,_ZNSt8__detail16_Hashtable_allocISaINS_10_Hash_nodeISt4pairIKcSt5queueIiSt5dequeIiSaIiEEEELb0EEEEE19_M_deallocate_nodesEPSA_
FNL:2,2070,2079
FNA:2,2,_ZNSt8__detail16_Hashtable_allocISaINS_10_Hash_nodeISt4pairIKcSt5queueIiSt5dequeIiSaIiEEEELb0EEEEE19_M_allocate_bucketsEm
FNL:3,832,853
FNA:3,21,_ZNSt8__detail9_Map_baseIcSt4pairIKcSt5queueIiSt5dequeIiSaIiEEEESaIS8_ENS_10_Select1stESt8equal_toIcESt4hashIcENS_18_Mod_range_hashingENS_20_Default_ranged_hashENS_20_Prime_rehash_policyENS_17_Hashtable_traitsILb0ELb0ELb1EEELb1EEixERS2_
FNF:4
FNH:4
DA:319,7
DA:339,31
DA:344,19
DA:349,16
DA:381,5
DA:386,5
DA:387,0
DA:399,5
DA:442,5
DA:443,5
DA:450,5
DA:451,5
DA:532,26
DA:534,3
DA:550,2
DA:551,2
DA:577,5
DA:578,5
DA:585,0
DA:586,0
DA:730,5
DA:731,5
DA:732,5
DA:736,5
DA:739,0
DA:832,21
DA:837,21
DA:838,21
DA:839,21
DA:840,16
DA:841,16
DA:843,5
DA:846,5
DA:847,5
DA:850,5
DA:851,5
DA:852,5
DA:853,5
DA:1242,2
DA:1245,2
DA:1328,2
DA:1333,24
DA:1337,21
DA:1358,23
DA:1359,23
DA:1362,3
DA:1368,3
DA:1728,2
DA:1735,16
DA:1742,16
DA:1759,16
DA:1761,16
DA:1942,2
DA:1970,2
DA:2017,5
DA:2020,5
DA:2021,5
DA:2022,5
DA:2025,5
DA:2026,5
DA:2028,5
DA:2030,0
DA:2032,0
DA:2033,0
DA:2034,0
DA:2040,5
DA:2042,0
DA:2043,0
DA:2044,5
DA:2048,5
DA:2051,5
DA:2052,5
DA:2053,5
DA:2058,2
DA:2060,7
DA:2062,5
DA:2063,5
DA:2064,5
DA:2066,2
DA:2070,2
DA:2073,2
DA:2075,2
DA:2076,2
DA:2077,2
DA:2078,2
DA:2083,2
DA:2088,2
DA:2089,2
DA:2090,2
DA:2091,2
LF:90
LH:80
end_of_record
TN:
SF:/usr/include/c++/14/bits/move.h
FNF:0
FNH:0
DA:226,3
DA:234,3
DA:235,3
DA:236,0
LF:4
LH:3
end_of_record
TN:
SF:/usr/include/c++/14/bits/new_allocator.h
FNL:0,126,152
FNA:0,2,_ZNSt15__new_allocatorIPNSt8__detail15_Hash_node_baseEE8allocateEmPKv
FNA:0,5,_ZNSt15__new_allocatorIPiE8allocateEmPKv
FNA:0,3,_ZNSt15__new_allocatorISt4pairIiiEE8allocateEmPKv
FNA:0,11,_ZNSt15__new_allocatorIiE8allocateEmPKv
FNA:0,2,_ZNSt15__new_allocatorImE8allocateEmPKv
FNF:1
FNH:1
DA:126,35
DA:134,25
DA:138,0
DA:139,0
DA:140,0
DA:151,35
DA:156,35
DA:172,35
LF:8
LH:5
end_of_record
TN:
SF:/usr/include/c++/14/bits/predefined_ops.h
FNF:0
FNH:0
DA:44,0
DA:45,5
DA:68,0
DA:69,0
DA:97,6
DA:98,6
LF:6
LH:3
end_of_record
TN:
SF:/usr/include/c++/14/bits/stl_algo.h
FNL:0,1589,1597
FNA:0,0,_ZSt13__heap_selectIN9__gnu_cxx17__normal_iteratorIPcNSt7__cxx1112basic_stringIcSt11char_traitsIcESaIcEEEEENS0_5__ops15_Iter_less_iterEEvT_SC_SC_T0_
FNL:1,1770,1788
FNA:1,2,_ZSt16__insertion_sortIN9__gnu_cxx17__normal_iteratorIPcNSt7__cxx1112basic_stringIcSt11char_traitsIcESaIcEEEEENS0_5__ops15_Iter_less_iterEEvT_SC_T0_
FNL:2,1794,1800
FNA:2,0,_ZSt26__unguarded_insertion_sortIN9__gnu_cxx17__normal_iteratorIPcNSt7__cxx1112basic_stringIcSt11char_traitsIcESaIcEEEEENS0_5__ops15_Iter_less_iterEEvT_SC_T0_
FNL:3,1812,1823
FNA:3,2,_ZSt22__final_insertion_sortIN9__gnu_cxx17__normal_iteratorIPcNSt7__cxx1112basic_stringIcSt11char_traitsIcESaIcEEEEENS0_5__ops15_Iter_less_iterEEvT_SC_T0_
FNL:4,1829,1845
FNA:4,0,_ZSt21__unguarded_partitionIN9__gnu_cxx17__normal_iteratorIPcNSt7__cxx1112basic_stringIcSt11char_traitsIcESaIcEEEEENS0_5__ops15_Iter_less_iterEET_SC_SC_SC_T0_
FNL:5,1851,1858
FNA:5,0,_ZSt27__unguarded_partition_pivotIN9__gnu_cxx17__normal_iteratorIPcNSt7__cxx1112basic_stringIcSt11char_traitsIcESaIcEEEEENS0_5__ops15_Iter_less_iterEET_SC_SC_T0_
FNL:6,1863,1870
FNA:6,0,_ZSt14__partial_sortIN9__gnu_cxx17__normal_iteratorIPcNSt7__cxx1112basic_stringIcSt11char_traitsIcESaIcEEEEENS0_5__ops15_Iter_less_iterEEvT_SC_SC_T0_
FNL:7,1876,1893
FNA:7,2,_ZSt16__introsort_loopIN9__gnu_cxx17__normal_iteratorIPcNSt7__cxx1112basic_stringIcSt11char_traitsIcESaIcEEEEElNS0_5__ops15_Iter_less_iterEEvT_SC_T0_T1_
FNL:8,1900,1910
FNA:8,2,_ZSt6__sortIN9__gnu_cxx17__normal_iteratorIPcNSt7__cxx1112basic_stringIcSt11char_traitsIcESaIcEEEEENS0_5__ops15_Iter_less_iterEEvT_SC_T0_
FNL:9,85,103
FNA:9,0,_ZSt22__move_median_to_firstIN9__gnu_cxx17__normal_iteratorIPcNSt7__cxx1112basic_stringIcSt11char_traitsIcESaIcEEEEENS0_5__ops15_Iter_less_iterEEvT_SC_SC_SC_T0_
FNF:10
FNH:4
DA:85,0
DA:88,0
DA:90,0
DA:91,0
DA:92,0
DA:93,0
DA:95,0
DA:97,0
DA:98,0
DA:99,0
DA:100,0
DA:102,0
DA:103,0
DA:1589,0
DA:1593,0
DA:1594,0
DA:1595,0
DA:1596,0
DA:1597,0
DA:1750,4
DA:1754,4
DA:1755,4
DA:1756,4
DA:1757,6
DA:1759,2
DA:1760,2
DA:1761,2
DA:1763,4
DA:1770,2
DA:1773,2
DA:1775,7
DA:1777,5
DA:1780,1
DA:1781,1
DA:1782,1
DA:1785,4
DA:1794,0
DA:1797,0
DA:1798,0
DA:1800,0
DA:1812,2
DA:1815,2
DA:1817,0
DA:1818,0
DA:1822,2
DA:1823,2
DA:1829,0
DA:1833,0
DA:1835,0
DA:1836,0
DA:1837,0
DA:1838,0
DA:1839,0
DA:1840,0
DA:1841,0
DA:1842,0
DA:1843,0
DA:1851,0
DA:1854,0
DA:1855,0
DA:1857,0
DA:1863,0
DA:1868,0
DA:1869,0
DA:1870,0
DA:1876,2
DA:1880,2
DA:1882,0
DA:1884,0
DA:1885,0
DA:1887,0
DA:1889,0
DA:1890,0
DA:1891,0
DA:1900,2
DA:1903,2
DA:1905,2
DA:1906,2
DA:1908,2
DA:1910,2
DA:4762,2
DA:4772,2
LF:82
LH:31
end_of_record
TN:
SF:/usr/include/c++/14/bits/stl_algobase.h
FNL:0,448,457
FNA:0,0,_ZNSt11__copy_moveILb0ELb1ESt26random_access_iterator_tagE8__copy_mIPiS3_EEPT0_PT_S7_S5_
FNA:0,2,_ZNSt11__copy_moveILb0ELb1ESt26random_access_iterator_tagE8__copy_mIccEEPT0_PT_S6_S4_
FNL:1,762,771
FNA:1,0,_ZNSt20__copy_move_backwardILb0ELb1ESt26random_access_iterator_tagE13__copy_move_bIPiS3_EEPT0_PT_S7_S5_
FNA:1,1,_ZNSt20__copy_move_backwardILb1ELb1ESt26random_access_iterator_tagE13__copy_move_bIccEEPT0_PT_S6_S4_
FNF:2
FNH:2
DA:155,0
DA:185,0
DA:257,15
DA:262,15
DA:346,1
DA:347,1
DA:412,0
DA:413,0
DA:437,1
DA:438,1
DA:448,2
DA:450,2
DA:451,2
DA:452,2
DA:453,0
DA:455,0
DA:456,2
DA:512,2
DA:521,2
DA:547,2
DA:548,2
DA:553,2
DA:555,4
DA:642,2
DA:651,0
DA:762,1
DA:764,1
DA:765,1
DA:766,0
DA:767,1
DA:769,1
DA:770,1
DA:777,1
DA:787,1
DA:795,1
DA:796,1
DA:823,1
DA:825,1
DA:878,0
DA:888,0
DA:913,1
DA:922,1
DA:947,4
DA:950,4
DA:951,14
DA:952,10
DA:997,4
DA:998,4
DA:1140,4
DA:1146,4
DA:1151,4
DA:1175,4
DA:1180,4
DA:1544,2
DA:1547,2
LF:55
LH:45
end_of_record
TN:
SF:/usr/include/c++/14/bits/stl_bvector.h
FNL:0,1349,1359
FNA:0,2,_ZNSt6vectorIbSaIbEE13_M_initializeEm
FNL:1,1363,1367
FNA:1,2,_ZNSt6vectorIbSaIbEE19_M_initialize_valueEb
FNL:2,224,236
FNA:2,27,_ZNSt18_Bit_iterator_base7_M_incrEl
FNL:3,384,385
FNA:3,25,_ZNKSt13_Bit_iteratorixEl
FNL:4,693,703
FNA:4,2,_ZNSt13_Bvector_baseISaIbEE13_M_deallocateEv
FNL:5,795,806
FNA:5,2,_ZNSt6vectorIbSaIbEEC2EmRKbRKS0_
FNF:6
FNH:6
DA:88,25
DA:99,18
DA:100,18
DA:104,7
DA:106,7
DA:107,7
DA:110,7
DA:186,52
DA:189,52
DA:190,0
DA:195,31
DA:196,4
DA:224,27
DA:226,27
DA:227,27
DA:228,27
DA:229,27
DA:230,27
DA:232,0
DA:233,0
DA:235,27
DA:236,27
DA:313,4
DA:316,27
DA:317,27
DA:326,25
DA:328,50
DA:329,25
DA:368,27
DA:370,27
DA:371,27
DA:384,25
DA:385,75
DA:389,27
DA:391,27
DA:392,25
DA:393,25
DA:551,4
DA:552,4
DA:577,2
DA:578,2
DA:590,2
DA:603,2
DA:604,2
DA:623,4
DA:625,4
DA:656,2
DA:657,2
DA:669,2
DA:670,2
DA:677,2
DA:679,4
DA:693,2
DA:695,2
DA:697,2
DA:698,4
DA:699,2
DA:701,2
DA:703,2
DA:714,2
DA:715,2
DA:795,2
DA:802,2
DA:804,2
DA:805,2
DA:806,2
DA:890,2
DA:995,25
DA:996,25
DA:1086,25
DA:1087,18
DA:1349,2
DA:1351,2
DA:1353,2
DA:1354,2
DA:1355,2
DA:1356,2
DA:1357,2
DA:1359,2
DA:1363,2
DA:1365,2
DA:1366,4
DA:1367,2
DA:1587,2
DA:1590,2
DA:1597,4
LF:86
LH:83
end_of_record
TN:
SF:/usr/include/c++/14/bits/stl_construct.h
FNF:0
FNH:0
DA:80,5
DA:88,13
DA:94,23
DA:97,28
DA:109,4
DA:119,4
LF:6
LH:6
end_of_record
TN:
SF:/usr/include/c++/14/bits/stl_deque.h
FNL:0,1538,1549
FNA:0,7,_ZNSt5dequeIiSaIiEE9push_backERKi
FNL:1,1574,1586
FNA:1,7,_ZNSt5dequeIiSaIiEE9pop_frontEv
FNL:2,2168,2173
FNA:2,0,_ZNSt5dequeIiSaIiEE22_M_reserve_map_at_backEm
FNL:3,370,376
FNA:3,0,_ZStmiRKSt15_Deque_iteratorIiRiPiES4_
FNL:4,458,460
FNA:4,5,_ZNSt11_Deque_baseIiSaIiEEC2Ev
FNL:5,617,626
FNA:5,5,_ZNSt11_Deque_baseIiSaIiEED2Ev
FNL:6,638,673
FNA:6,5,_ZNSt11_Deque_baseIiSaIiEE17_M_initialize_mapEm
FNL:7,677,691
FNA:7,5,_ZNSt11_Deque_baseIiSaIiEE15_M_create_nodesEPPiS3_
FNF:8
FNH:6
DA:151,5
DA:152,5
DA:168,12
DA:169,12
DA:170,12
DA:263,5
DA:265,5
DA:266,5
DA:267,5
DA:370,0
DA:373,0
DA:374,0
DA:375,0
DA:458,5
DA:459,5
DA:460,10
DA:516,5
DA:517,5
DA:542,5
DA:545,5
DA:547,5
DA:568,5
DA:576,10
DA:577,10
DA:580,5
DA:583,5
DA:587,5
DA:590,0
DA:594,0
DA:596,5
DA:597,5
DA:601,0
DA:603,5
DA:604,5
DA:605,5
DA:617,5
DA:620,5
DA:622,10
DA:623,5
DA:624,5
DA:626,5
DA:638,5
DA:641,5
DA:644,5
DA:645,5
DA:646,5
DA:653,5
DA:654,5
DA:655,5
DA:658,5
DA:659,0
DA:661,0
DA:662,0
DA:663,0
DA:664,0
DA:667,5
DA:668,5
DA:669,5
DA:670,5
DA:671,5
DA:672,5
DA:673,5
DA:677,5
DA:683,10
DA:684,5
DA:686,0
DA:688,0
DA:689,0
DA:691,5
DA:695,5
DA:699,10
DA:700,5
DA:855,5
DA:1027,5
DA:1028,5
DA:1151,12
DA:1152,12
DA:1170,5
DA:1171,5
DA:1268,0
DA:1269,0
DA:1275,0
DA:1444,7
DA:1447,7
DA:1538,7
DA:1540,7
DA:1541,7
DA:1543,7
DA:1545,7
DA:1548,0
DA:1549,7
DA:1574,7
DA:1577,7
DA:1578,7
DA:1580,7
DA:1582,7
DA:1585,0
DA:1586,7
DA:2087,5
DA:2168,0
DA:2170,0
DA:2171,0
DA:2172,0
DA:2173,0
LF:104
LH:79
end_of_record
TN:
SF:/usr/include/c++/14/bits/stl_function.h
FNF:0
FNH:0
DA:374,16
DA:375,16
LF:2
LH:2
end_of_record
TN:
SF:/usr/include/c++/14/bits/stl_heap.h
FNL:0,135,147
FNA:0,0,_ZSt11__push_heapIN9__gnu_cxx17__normal_iteratorIPcNSt7__cxx1112basic_stringIcSt11char_traitsIcESaIcEEEEElcNS0_5__ops14_Iter_less_valEEvT_T0_SD_T1_RT2_
FNL:1,224,249
FNA:1,0,_ZSt13__adjust_heapIN9__gnu_cxx17__normal_iteratorIPcNSt7__cxx1112basic_stringIcSt11char_traitsIcESaIcEEEEElcNS0_5__ops15_Iter_less_iterEEvT_T0_SD_T1_T2_
FNL:2,254,267
FNA:2,0,_ZSt10__pop_heapIN9__gnu_cxx17__normal_iteratorIPcNSt7__cxx1112basic_stringIcSt11char_traitsIcESaIcEEEEENS0_5__ops15_Iter_less_iterEEvT_SC_SC_RT0_
FNL:3,340,362
FNA:3,0,_ZSt11__make_heapIN9__gnu_cxx17__normal_iteratorIPcNSt7__cxx1112basic_stringIcSt11char_traitsIcESaIcEEEEENS0_5__ops15_Iter_less_iterEEvT_SC_RT0_
FNL:4,419,427
FNA:4,0,_ZSt11__sort_heapIN9__gnu_cxx17__normal_iteratorIPcNSt7__cxx1112basic_stringIcSt11char_traitsIcESaIcEEEEENS0_5__ops15_Iter_less_iterEEvT_SC_RT0_
FNF:5
FNH:0
DA:135,0
DA:139,0
DA:140,0
DA:142,0
DA:143,0
DA:144,0
DA:146,0
DA:147,0
DA:224,0
DA:227,0
DA:228,0
DA:229,0
DA:231,0
DA:232,0
DA:234,0
DA:235,0
DA:236,0
DA:238,0
DA:240,0
DA:241,0
DA:243,0
DA:247,0
DA:249,0
DA:254,0
DA:262,0
DA:263,0
DA:264,0
DA:265,0
DA:267,0
DA:340,0
DA:348,0
DA:351,0
DA:352,0
DA:353,0
DA:355,0
DA:356,0
DA:358,0
DA:359,0
DA:360,0
DA:419,0
DA:422,0
DA:424,0
DA:425,0
DA:427,0
LF:44
LH:0
end_of_record
TN:
SF:/usr/include/c++/14/bits/stl_iterator.h
FNF:0
FNH:0
DA:1067,14
DA:1068,2
DA:1090,0
DA:1100,8
DA:1102,0
DA:1103,8
DA:1114,6
DA:1116,6
DA:1117,6
DA:1138,1
DA:1139,3
DA:1148,3
DA:1149,0
DA:1188,0
DA:1194,0
DA:1199,0
DA:1202,0
DA:1325,18
DA:1328,18
LF:19
LH:12
end_of_record
TN:
SF:/usr/include/c++/14/bits/stl_iterator_base_funcs.h
FNF:0
FNH:0
DA:100,4
DA:106,2
DA:148,2
DA:151,2
LF:4
LH:4
end_of_record
TN:
SF:/usr/include/c++/14/bits/stl_pair.h
FNF:0
FNH:0
DA:284,5
DA:442,3
DA:444,3
LF:3
LH:3
end_of_record
TN:
SF:/usr/include/c++/14/bits/stl_queue.h
FNL:0,166,167
FNA:0,5,_ZNSt5queueIiSt5dequeIiSaIiEEEC2IS2_vEEv
FNF:1
FNH:1
DA:96,5
DA:166,5
DA:167,5
DA:231,7
DA:234,7
DA:283,7
DA:284,7
DA:316,7
DA:319,7
LF:9
LH:9
end_of_record
TN:
SF:/usr/include/c++/14/bits/stl_uninitialized.h
FNL:0,660,671
FNA:0,4,_ZNSt27__uninitialized_default_n_1ILb1EE18__uninit_default_nIPimEET_S3_T0_
FNF:1
FNH:1
DA:145,2
DA:147,2
DA:163,2
DA:174,2
DA:181,2
DA:185,2
DA:366,2
DA:373,2
DA:660,4
DA:662,4
DA:664,4
DA:666,4
DA:667,4
DA:668,4
DA:670,4
DA:696,4
DA:707,4
DA:712,4
DA:777,4
DA:779,4
DA:1067,1
DA:1075,1
DA:1076,1
DA:1089,3
DA:1101,3
DA:1102,4
DA:1103,1
DA:1112,7
DA:1116,7
DA:1117,7
DA:1129,3
DA:1139,10
DA:1145,16
LF:33
LH:33
end_of_record
TN:
SF:/usr/include/c++/14/bits/stl_vector.h
FNL:0,1283,1295
FNA:0,7,_ZNSt6vectorIiSaIiEE9push_backERKi
FNL:1,1689,1700
FNA:1,2,_ZNSt6vectorIcSaIcEE19_M_range_initializeIN9__gnu_cxx17__normal_iteratorIPcNSt7__cxx1112basic_stringIcSt11char_traitsIcES0_EEEEEEvT_SC_St20forward_iterator_tag
FNL:2,1906,1913
FNA:2,3,_ZNKSt6vectorISt4pairIiiESaIS1_EE12_M_check_lenEmPKc
FNA:2,7,_ZNKSt6vectorIiSaIiEE12_M_check_lenEmPKc
FNL:3,366,370
FNA:3,2,_ZNSt12_Vector_baseISt4pairIiiESaIS1_EED2Ev
FNA:3,2,_ZNSt12_Vector_baseIcSaIcEED2Ev
FNA:3,8,_ZNSt12_Vector_baseIiSaIiEED2Ev
FNL:4,377,381
FNA:4,2,_ZNSt12_Vector_baseIcSaIcEE11_M_allocateEm
FNL:5,396,401
FNA:5,4,_ZNSt12_Vector_baseIiSaIiEE17_M_create_storageEm
FNL:6,556,558
FNA:6,4,_ZNSt6vectorIiSaIiEEC2EmRKS0_
FNL:7,707,713
FNA:7,2,_ZNSt6vectorIcSaIcEEC2IN9__gnu_cxx17__normal_iteratorIPcNSt7__cxx1112basic_stringIcSt11char_traitsIcES0_EEEEvEET_SC_RKS0_
FNF:8
FNH:8
DA:98,6
DA:99,6
DA:132,12
DA:145,6
DA:146,6
DA:300,12
DA:301,10
DA:320,2
DA:321,2
DA:332,4
DA:333,4
DA:334,4
DA:366,12
DA:368,24
DA:369,12
DA:370,12
DA:377,16
DA:380,16
DA:385,12
DA:388,12
DA:389,12
DA:396,4
DA:398,4
DA:399,4
DA:400,4
DA:401,4
DA:504,10
DA:509,10
DA:556,4
DA:557,4
DA:558,4
DA:707,2
DA:709,2
DA:711,2
DA:713,2
DA:733,12
DA:735,12
DA:736,8
DA:738,6
DA:873,12
DA:874,12
DA:893,15
DA:894,12
DA:992,19
DA:993,7
DA:1128,30
DA:1131,27
DA:1235,3
DA:1238,3
DA:1283,7
DA:1285,7
DA:1288,0
DA:1290,0
DA:1294,7
DA:1295,7
DA:1300,3
DA:1301,3
DA:1689,2
DA:1692,2
DA:1694,2
DA:1695,2
DA:1696,2
DA:1697,2
DA:1699,2
DA:1700,2
DA:1717,4
DA:1719,4
DA:1720,8
DA:1721,4
DA:1906,10
DA:1908,10
DA:1909,0
DA:1911,10
DA:1912,10
DA:1917,6
DA:1919,6
DA:1920,0
LF:77
LH:73
end_of_record
TN:
SF:/usr/include/c++/14/bits/unordered_map.h
FNF:0
FNH:0
DA:109,4
DA:148,2
DA:987,21
DA:988,14
LF:4
LH:4
end_of_record
TN:
SF:/usr/include/c++/14/bits/vector.tcc
FNL:0,111,127
FNA:0,3,_ZNSt6vectorISt4pairIiiESaIS1_EE12emplace_backIJS1_EEERS1_DpOT_
FNL:1,581,695
FNA:1,3,_ZNSt6vectorISt4pairIiiESaIS1_EE17_M_realloc_appendIJS1_EEEvDpOT_
FNA:1,7,_ZNSt6vectorIiSaIiEE17_M_realloc_appendIJRKiEEEvDpOT_
FNL:2,612,617
FNA:2,3,_ZZNSt6vectorISt4pairIiiESaIS1_EE17_M_realloc_appendIJS1_EEEvDpOT_EN6_GuardD2Ev
FNA:2,7,_ZZNSt6vectorIiSaIiEE17_M_realloc_appendIJRKiEEEvDpOT_EN6_GuardD2Ev
FNF:3
FNH:3
DA:111,3
DA:114,3
DA:117,0
DA:119,0
DA:123,3
DA:125,3
DA:581,10
DA:590,10
DA:591,10
DA:592,0
DA:593,10
DA:594,10
DA:595,10
DA:596,10
DA:597,10
DA:607,10
DA:608,10
DA:612,10
DA:614,10
DA:616,4
DA:617,10
DA:624,10
DA:634,10
DA:635,10
DA:647,10
DA:648,10
DA:649,10
DA:686,10
DA:687,10
DA:688,10
DA:692,10
DA:693,10
DA:694,10
DA:695,10
LF:34
LH:31
end_of_record
TN:
SF:/usr/include/c++/14/compare
FNF:0
FNH:0
DA:1224,0
DA:1233,0
LF:2
LH:0
end_of_record
TN:
SF:/usr/include/c++/14/ext/aligned_buffer.h
FNF:0
FNH:0
DA:106,5
DA:117,26
LF:2
LH:2
end_of_record
TN:
SF:/usr/include/c++/14/ext/alloc_traits.h
FNF:0
FNH:0
DA:97,2
DA:98,2
LF:2
LH:2
end_of_record
TN:
SF:/usr/include/c++/14/tuple
FNF:0
FNH:0
DA:201,5
DA:202,5
DA:242,5
DA:556,5
DA:566,5
DA:567,5
DA:586,5
DA:588,5
DA:971,5
DA:974,5
DA:995,5
DA:2427,5
DA:2428,5
DA:2443,5
DA:2444,5
DA:2872,5
DA:2877,5
DA:2884,5
DA:2887,5
DA:2888,5
LF:20
LH:20
end_of_record
