TN:
SF:/home/monika/Documents/problems/18386번： BNKQ/main.cpp
FNL:0,113,116
FNA:0,3,_ZZ4mainENKUlRT_RT0_E_clISt4pairINSt7__cxx1112basic_stringIcSt11char_traitsIcESaIcEEEiESC_EEDaS0_S2_
FNL:1,29,50
FNA:1,3,_ZL10formatHouri
FNL:2,4,27
FNA:2,9,_ZL15convertTo24HourRKNSt7__cxx1112basic_stringIcSt11char_traitsIcESaIcEEE
FNL:3,52,153
FNA:3,1,main
FNF:4
FNH:4
DA:4,9
DA:6,9
DA:7,9
DA:8,9
DA:9,9
DA:11,9
DA:13,6
DA:15,0
DA:20,3
DA:22,3
DA:26,9
DA:27,9
DA:29,3
DA:31,3
DA:33,2
DA:34,2
DA:35,1
DA:37,1
DA:38,2
DA:39,2
DA:42,1
DA:43,1
DA:44,1
DA:45,1
DA:47,0
DA:48,1
DA:49,1
DA:52,1
DA:54,1
DA:55,1
DA:57,1
DA:58,1
DA:59,1
DA:63,21
DA:64,21
DA:65,0
DA:66,21
DA:67,1
DA:68,20
DA:69,0
DA:71,20
DA:73,20
DA:74,20
DA:75,79
DA:76,59
DA:77,20
DA:79,20
DA:80,0
DA:82,20
DA:83,20
DA:84,20
DA:86,20
DA:88,19
DA:89,19
DA:91,10
DA:95,9
DA:97,9
DA:98,9
DA:99,9
DA:101,19
DA:105,41
DA:107,1
DA:108,4
DA:110,3
DA:113,1
DA:115,3
DA:116,3
DA:118,1
DA:119,4
DA:121,3
DA:122,3
DA:124,3
DA:125,7
DA:127,4
DA:128,4
DA:129,4
DA:131,4
DA:132,4
DA:134,0
DA:136,0
DA:140,3
DA:142,3
DA:143,3
DA:145,1
DA:146,4
DA:148,3
DA:149,3
DA:152,1
DA:153,1
LF:89
LH:82
end_of_record
TN:
SF:/usr/include/c++/14/bit
FNL:0,201,243
FNA:0,1,_ZSt13__countl_zeroImEiT_
FNL:1,371,375
FNA:1,1,_ZSt11__bit_widthImEiT_
FNF:2
FNH:2
DA:201,1
DA:204,1
DA:206,1
DA:207,0
DA:209,1
DA:210,1
DA:211,1
DA:220,1
DA:221,1
DA:371,1
DA:373,1
DA:374,1
LF:12
LH:11
end_of_record
TN:
SF:/usr/include/c++/14/bits/alloc_traits.h
FNF:0
FNH:0
DA:515,110
DA:550,110
DA:577,149
DA:581,149
DA:599,84
DA:601,84
DA:615,98
DA:627,166
DA:767,0
DA:800,4
DA:804,4
DA:837,0
DA:993,22
DA:994,22
LF:14
LH:12
end_of_record
TN:
SF:/usr/include/c++/14/bits/allocator.h
FNF:0
FNH:0
DA:161,93
DA:166,537
DA:176,12
DA:182,285
DA:189,110
DA:191,0
DA:192,0
DA:193,0
DA:196,110
DA:203,110
DA:205,0
DA:206,0
DA:208,110
DA:215,0
LF:14
LH:8
end_of_record
TN:
SF:/usr/include/c++/14/bits/basic_string.h
FNL:0,1076,1077
FNA:0,539,_ZNKSt7__cxx1112basic_stringIcSt11char_traitsIcESaIcEE4sizeEv
FNL:1,1083,1084
FNA:1,421,_ZNKSt7__cxx1112basic_stringIcSt11char_traitsIcESaIcEE6lengthEv
FNL:2,1089,1090
FNA:2,98,_ZNKSt7__cxx1112basic_stringIcSt11char_traitsIcESaIcEE8max_sizeEv
FNL:3,1180,1184
FNA:3,109,_ZNKSt7__cxx1112basic_stringIcSt11char_traitsIcESaIcEE8capacityEv
FNL:4,1222,1223
FNA:4,4,_ZNSt7__cxx1112basic_stringIcSt11char_traitsIcESaIcEE5clearEv
FNL:5,1231,1232
FNA:5,20,_ZNKSt7__cxx1112basic_stringIcSt11char_traitsIcESaIcEE5emptyEv
FNL:6,129,142
FNA:6,19,_ZNSt7__cxx1112basic_stringIcSt11char_traitsIcESaIcEE11_S_allocateERS3_m
FNL:7,1435,1436
FNA:7,20,_ZNSt7__cxx1112basic_stringIcSt11char_traitsIcESaIcEE6appendERKS4_
FNL:8,1466,1471
FNA:8,60,_ZNSt7__cxx1112basic_stringIcSt11char_traitsIcESaIcEE6appendEPKcm
FNL:9,1588,1621
FNA:9,10,_ZNSt7__cxx1112basic_stringIcSt11char_traitsIcESaIcEE6assignERKS4_
FNL:10,193,194
FNA:10,20,_ZNSt7__cxx1112basic_stringIcSt11char_traitsIcESaIcEE12_Alloc_hiderC2EPcRKS3_
FNL:11,197,198
FNA:11,331,_ZNSt7__cxx1112basic_stringIcSt11char_traitsIcESaIcEE12_Alloc_hiderC2EPcOS3_
FNL:12,217,218
FNA:12,117,_ZNSt7__cxx1112basic_stringIcSt11char_traitsIcESaIcEE7_M_dataEPc
FNL:13,222,223
FNA:13,527,_ZNSt7__cxx1112basic_stringIcSt11char_traitsIcESaIcEE9_M_lengthEm
FNL:14,227,228
FNA:14,1829,_ZNKSt7__cxx1112basic_stringIcSt11char_traitsIcESaIcEE7_M_dataEv
FNL:15,232,239
FNA:15,449,_ZNSt7__cxx1112basic_stringIcSt11char_traitsIcESaIcEE13_M_local_dataEv
FNL:16,243,250
FNA:16,588,_ZNKSt7__cxx1112basic_stringIcSt11char_traitsIcESaIcEE13_M_local_dataEv
FNL:17,254,255
FNA:17,19,_ZNSt7__cxx1112basic_stringIcSt11char_traitsIcESaIcEE11_M_capacityEm
FNL:18,259,263
FNA:18,429,_ZNSt7__cxx1112basic_stringIcSt11char_traitsIcESaIcEE13_M_set_lengthEm
FNL:19,2640,2641
FNA:19,47,_ZNKSt7__cxx1112basic_stringIcSt11char_traitsIcESaIcEE5c_strEv
FNL:20,2653,2654
FNA:20,128,_ZNKSt7__cxx1112basic_stringIcSt11char_traitsIcESaIcEE4dataEv
FNL:21,267,276
FNA:21,588,_ZNKSt7__cxx1112basic_stringIcSt11char_traitsIcESaIcEE11_M_is_localEv
FNL:22,2674,2675
FNA:22,20,_ZNKSt7__cxx1112basic_stringIcSt11char_traitsIcESaIcEE13get_allocatorEv
FNL:23,285,289
FNA:23,373,_ZNSt7__cxx1112basic_stringIcSt11char_traitsIcESaIcEE10_M_disposeEv
FNL:24,293,294
FNA:24,19,_ZNSt7__cxx1112basic_stringIcSt11char_traitsIcESaIcEE10_M_destroyEm
FNL:25,3208,3210
FNA:25,36,_ZNKSt7__cxx1112basic_stringIcSt11char_traitsIcESaIcEE6substrEmm
FNL:26,3228,3238
FNA:26,0,_ZNKSt7__cxx1112basic_stringIcSt11char_traitsIcESaIcEE7compareERKS4_
FNL:27,341,342
FNA:27,144,_ZNSt7__cxx1112basic_stringIcSt11char_traitsIcESaIcEE16_M_get_allocatorEv
FNL:28,346,347
FNA:28,264,_ZNKSt7__cxx1112basic_stringIcSt11char_traitsIcESaIcEE16_M_get_allocatorEv
FNL:29,3573,3586
FNA:29,20,_ZSt12__str_concatINSt7__cxx1112basic_stringIcSt11char_traitsIcESaIcEEEET_PKNS6_10value_typeENS6_9size_typeES9_SA_RKNS6_14allocator_typeE
FNL:30,3652,3660
FNA:30,20,_ZStplIcSt11char_traitsIcESaIcEENSt7__cxx1112basic_stringIT_T0_T1_EERKS8_PKS5_
FNL:31,3682,3684
FNA:31,20,_ZStplIcSt11char_traitsIcESaIcEENSt7__cxx1112basic_stringIT_T0_T1_EEOS8_RKS8_
FNL:32,3755,3761
FNA:32,43,_ZSteqIcSt11char_traitsIcESaIcEEbRKNSt7__cxx1112basic_stringIT_T0_T1_EESA_
FNL:33,3772,3777
FNA:33,30,_ZSteqIcSt11char_traitsIcESaIcEEbRKNSt7__cxx1112basic_stringIT_T0_T1_EEPKS5_
FNL:34,3790,3793
FNA:34,0,_ZStssIcSt11char_traitsIcESaIcEEDTcl21__char_traits_cmp_catIT0_ELi0EEERKNSt7__cxx1112basic_stringIT_S3_T1_EESB_
FNL:35,391,398
FNA:35,72,_ZNKSt7__cxx1112basic_stringIcSt11char_traitsIcESaIcEE8_M_checkEmPKc
FNL:36,402,406
FNA:36,60,_ZNKSt7__cxx1112basic_stringIcSt11char_traitsIcESaIcEE15_M_check_lengthEmmPKc
FNL:37,4039,4042
FNA:37,0,_ZSt4swapIcSt11char_traitsIcESaIcEEvRNSt7__cxx1112basic_stringIT_T0_T1_EES9_
FNL:38,412,416
FNA:38,36,_ZNKSt7__cxx1112basic_stringIcSt11char_traitsIcESaIcEE8_M_limitEmm
FNL:39,4164,4166
FNA:39,27,_ZNSt7__cxx114stoiERKNS_12basic_stringIcSt11char_traitsIcESaIcEEEPmi
FNL:40,430,436
FNA:40,275,_ZNSt7__cxx1112basic_stringIcSt11char_traitsIcESaIcEE7_S_copyEPcPKcm
FNL:41,4616,4617
FNA:41,31,_ZNKSt15__str_hash_baseIcSaIcENSt7__cxx1112basic_stringIcSt11char_traitsIcES0_EEEclERKS5_
FNL:42,482,483
FNA:42,146,_ZNSt7__cxx1112basic_stringIcSt11char_traitsIcESaIcEE13_S_copy_charsEPcS5_S5_
FNL:43,487,489
FNA:43,36,_ZNSt7__cxx1112basic_stringIcSt11char_traitsIcESaIcEE13_S_copy_charsEPcPKcS7_
FNL:44,493,503
FNA:44,0,_ZNSt7__cxx1112basic_stringIcSt11char_traitsIcESaIcEE10_S_compareEmm
FNL:45,527,533
FNA:45,51,_ZNSt7__cxx1112basic_stringIcSt11char_traitsIcESaIcEEC2Ev
FNL:46,540,545
FNA:46,20,_ZNSt7__cxx1112basic_stringIcSt11char_traitsIcESaIcEEC2ERKS3_
FNL:47,552,558
FNA:47,146,_ZNSt7__cxx1112basic_stringIcSt11char_traitsIcESaIcEEC2ERKS4_
FNL:48,586,594
FNA:48,36,_ZNSt7__cxx1112basic_stringIcSt11char_traitsIcESaIcEEC2ERKS4_mm
FNL:49,646,655
FNA:49,0,_ZNSt7__cxx1112basic_stringIcSt11char_traitsIcESaIcEEC2IS3_EEPKcRKS3_
FNL:50,682,703
FNA:50,98,_ZNSt7__cxx1112basic_stringIcSt11char_traitsIcESaIcEEC2EOS4_
FNL:51,808,809
FNA:51,354,_ZNSt7__cxx1112basic_stringIcSt11char_traitsIcESaIcEED2Ev
FNL:52,817,820
FNA:52,10,_ZNSt7__cxx1112basic_stringIcSt11char_traitsIcESaIcEEaSERKS4_
FNL:53,858,918
FNA:53,4,_ZNSt7__cxx1112basic_stringIcSt11char_traitsIcESaIcEEaSEOS4_
FNF:54
FNH:49
DA:129,19
DA:131,19
DA:141,19
DA:193,20
DA:194,20
DA:197,331
DA:198,331
DA:217,117
DA:218,117
DA:222,527
DA:223,527
DA:227,1829
DA:228,1829
DA:232,449
DA:235,449
DA:243,588
DA:246,588
DA:254,19
DA:255,19
DA:259,429
DA:261,429
DA:262,429
DA:263,429
DA:267,588
DA:269,588
DA:271,569
DA:272,0
DA:273,569
DA:275,19
DA:285,373
DA:287,373
DA:288,19
DA:289,373
DA:293,19
DA:294,19
DA:341,144
DA:342,144
DA:346,264
DA:347,264
DA:356,449
DA:357,0
DA:358,0
DA:360,449
DA:370,98
DA:391,72
DA:393,72
DA:394,0
DA:397,72
DA:402,60
DA:404,60
DA:405,0
DA:406,60
DA:412,36
DA:414,36
DA:415,36
DA:430,275
DA:432,275
DA:433,20
DA:435,255
DA:436,275
DA:482,146
DA:483,146
DA:487,36
DA:489,36
DA:493,0
DA:495,0
DA:497,0
DA:498,0
DA:499,0
DA:500,0
DA:502,0
DA:527,51
DA:529,153
DA:532,51
DA:533,51
DA:540,20
DA:541,20
DA:544,20
DA:545,20
DA:552,146
DA:553,146
DA:554,146
DA:556,146
DA:558,146
DA:586,36
DA:588,72
DA:590,36
DA:591,36
DA:592,36
DA:594,36
DA:646,0
DA:647,0
DA:650,0
DA:651,0
DA:653,0
DA:654,0
DA:655,0
DA:682,98
DA:683,98
DA:685,98
DA:688,98
DA:689,98
DA:693,0
DA:694,0
DA:700,98
DA:701,98
DA:702,98
DA:703,98
DA:808,354
DA:809,354
DA:817,10
DA:819,10
DA:858,4
DA:861,4
DA:863,4
DA:864,4
DA:867,0
DA:868,0
DA:869,0
DA:872,4
DA:874,4
DA:879,4
DA:881,4
DA:882,4
DA:883,4
DA:886,0
DA:889,0
DA:891,0
DA:896,0
DA:897,0
DA:903,0
DA:904,0
DA:905,0
DA:906,0
DA:908,0
DA:909,0
DA:912,0
DA:915,0
DA:916,4
DA:917,4
DA:1076,539
DA:1077,539
DA:1083,421
DA:1084,421
DA:1089,98
DA:1090,196
DA:1180,109
DA:1182,109
DA:1183,109
DA:1222,4
DA:1223,4
DA:1231,20
DA:1232,20
DA:1435,20
DA:1436,20
DA:1466,60
DA:1469,60
DA:1470,60
DA:1588,10
DA:1591,10
DA:1593,0
DA:1594,0
DA:1598,0
DA:1600,0
DA:1601,0
DA:1602,0
DA:1606,0
DA:1607,0
DA:1609,0
DA:1610,0
DA:1611,0
DA:1612,0
DA:1613,0
DA:1616,0
DA:1619,10
DA:1620,10
DA:2640,47
DA:2641,47
DA:2653,128
DA:2654,128
DA:2674,20
DA:2675,40
DA:3208,36
DA:3210,36
DA:3228,0
DA:3230,0
DA:3231,0
DA:3232,0
DA:3234,0
DA:3235,0
DA:3236,0
DA:3237,0
DA:3573,20
DA:3581,20
DA:3582,20
DA:3583,20
DA:3584,20
DA:3585,20
DA:3586,0
DA:3652,20
DA:3659,40
DA:3682,20
DA:3684,20
DA:3755,43
DA:3759,43
DA:3760,43
DA:3772,30
DA:3775,30
DA:3776,30
DA:3790,0
DA:3793,0
DA:4039,0
DA:4042,0
DA:4164,27
DA:4165,27
DA:4166,27
DA:4616,31
DA:4617,31
LF:218
LH:154
end_of_record
TN:
SF:/usr/include/c++/14/bits/basic_string.tcc
FNL:0,138,160
FNA:0,19,_ZNSt7__cxx1112basic_stringIcSt11char_traitsIcESaIcEE9_M_createERmm
FNL:1,221,252
FNA:1,36,_ZNSt7__cxx1112basic_stringIcSt11char_traitsIcESaIcEE12_M_constructIPKcEEvT_S8_St20forward_iterator_tag
FNA:1,146,_ZNSt7__cxx1112basic_stringIcSt11char_traitsIcESaIcEE12_M_constructIPcEEvT_S7_St20forward_iterator_tag
FNL:2,239,239
FNA:2,36,_ZZNSt7__cxx1112basic_stringIcSt11char_traitsIcESaIcEE12_M_constructIPKcEEvT_S8_St20forward_iterator_tagEN6_GuardC2EPS4_
FNA:2,146,_ZZNSt7__cxx1112basic_stringIcSt11char_traitsIcESaIcEE12_M_constructIPcEEvT_S7_St20forward_iterator_tagEN6_GuardC2EPS4_
FNL:3,242,242
FNA:3,36,_ZZNSt7__cxx1112basic_stringIcSt11char_traitsIcESaIcEE12_M_constructIPKcEEvT_S8_St20forward_iterator_tagEN6_GuardD2Ev
FNA:3,146,_ZZNSt7__cxx1112basic_stringIcSt11char_traitsIcESaIcEE12_M_constructIPcEEvT_S7_St20forward_iterator_tagEN6_GuardD2Ev
FNL:4,277,299
FNA:4,10,_ZNSt7__cxx1112basic_stringIcSt11char_traitsIcESaIcEE9_M_assignERKS4_
FNL:5,304,320
FNA:5,20,_ZNSt7__cxx1112basic_stringIcSt11char_traitsIcESaIcEE7reserveEm
FNL:6,325,345
FNA:6,19,_ZNSt7__cxx1112basic_stringIcSt11char_traitsIcESaIcEE9_M_mutateEmmPKcm
FNL:7,413,428
FNA:7,60,_ZNSt7__cxx1112basic_stringIcSt11char_traitsIcESaIcEE9_M_appendEPKcm
FNL:8,59,133
FNA:8,0,_ZNSt7__cxx1112basic_stringIcSt11char_traitsIcESaIcEE4swapERS4_
FNF:9
FNH:8
DA:59,0
DA:62,0
DA:63,0
DA:65,0
DA:67,0
DA:68,0
DA:70,0
DA:73,0
DA:74,0
DA:75,0
DA:76,0
DA:77,0
DA:78,0
DA:80,0
DA:83,0
DA:84,0
DA:85,0
DA:86,0
DA:87,0
DA:89,0
DA:92,0
DA:93,0
DA:94,0
DA:95,0
DA:96,0
DA:101,0
DA:103,0
DA:104,0
DA:105,0
DA:106,0
DA:107,0
DA:111,0
DA:112,0
DA:115,0
DA:116,0
DA:117,0
DA:118,0
DA:122,0
DA:123,0
DA:124,0
DA:125,0
DA:127,0
DA:130,0
DA:131,0
DA:132,0
DA:138,19
DA:143,19
DA:144,0
DA:149,19
DA:151,19
DA:153,19
DA:154,0
DA:159,19
DA:221,182
DA:225,182
DA:227,182
DA:229,0
DA:230,0
DA:239,182
DA:242,182
DA:245,182
DA:247,182
DA:249,182
DA:251,182
DA:252,182
DA:277,10
DA:280,10
DA:282,10
DA:283,10
DA:285,10
DA:287,0
DA:288,0
DA:289,0
DA:290,0
DA:291,0
DA:294,10
DA:295,10
DA:297,10
DA:299,10
DA:304,20
DA:307,20
DA:312,20
DA:313,20
DA:315,0
DA:316,0
DA:317,0
DA:318,0
DA:319,0
DA:325,19
DA:329,19
DA:331,19
DA:332,19
DA:334,19
DA:335,0
DA:336,19
DA:337,19
DA:338,19
DA:339,0
DA:340,0
DA:342,19
DA:343,19
DA:344,19
DA:345,19
DA:413,60
DA:416,60
DA:418,60
DA:420,60
DA:421,60
DA:424,0
DA:426,60
DA:427,60
LF:111
LH:48
end_of_record
TN:
SF:/usr/include/c++/14/bits/char_traits.h
FNL:0,136,137
FNA:0,0,_ZN9__gnu_cxx11char_traitsIcE2eqERKcS3_
FNL:1,199,206
FNA:1,0,_ZN9__gnu_cxx11char_traitsIcE6lengthEPKc
FNL:2,253,268
FNA:2,0,_ZN9__gnu_cxx11char_traitsIcE4copyEPcPKcm
FNL:3,343,351
FNA:3,449,_ZNSt11char_traitsIcE6assignERcRKc
FNL:4,358,363
FNA:4,0,_ZNSt11char_traitsIcE2ltERKcS2_
FNL:5,366,382
FNA:5,54,_ZNSt11char_traitsIcE7compareEPKcS2_m
FNL:6,385,392
FNA:6,50,_ZNSt11char_traitsIcE6lengthEPKc
FNL:7,419,428
FNA:7,353,_ZNSt11char_traitsIcE4copyEPcPKcm
FNL:8,996,1006
FNA:8,0,_ZNSt8__detail21__char_traits_cmp_catISt11char_traitsIcEEEDai
FNF:9
FNH:4
DA:136,0
DA:137,0
DA:199,0
DA:202,0
DA:203,0
DA:204,0
DA:205,0
DA:253,0
DA:256,0
DA:257,0
DA:259,0
DA:261,0
DA:262,0
DA:263,0
DA:266,0
DA:267,0
DA:343,449
DA:346,449
DA:347,0
DA:350,449
DA:351,449
DA:358,0
DA:361,0
DA:362,0
DA:366,54
DA:368,54
DA:369,0
DA:371,54
DA:373,0
DA:374,0
DA:375,0
DA:376,0
DA:377,0
DA:378,0
DA:381,54
DA:385,50
DA:388,50
DA:389,0
DA:391,50
DA:419,353
DA:421,353
DA:422,0
DA:424,353
DA:425,0
DA:427,353
DA:996,0
DA:1002,0
LF:47
LH:15
end_of_record
TN:
SF:/usr/include/c++/14/bits/cpp_type_traits.h
FNL:0,608,609
FNA:0,2,_ZSt12__miter_baseIN9__gnu_cxx17__normal_iteratorIPSt4pairINSt7__cxx1112basic_stringIcSt11char_traitsIcESaIcEEEiESt6vectorIS9_SaIS9_EEEEET_SF_
FNF:1
FNH:1
DA:608,2
DA:609,2
LF:2
LH:2
end_of_record
TN:
SF:/usr/include/c++/14/bits/functional_hash.h
FNL:0,154,154
FNA:0,10,_ZNKSt4hashIiEclEi
FNL:1,204,206
FNA:1,31,_ZNSt10_Hash_impl4hashEPKvmm
FNF:2
FNH:2
DA:154,10
DA:204,31
DA:206,31
LF:3
LH:3
end_of_record
TN:
SF:/usr/include/c++/14/bits/hashtable.h
FNL:0,1027,1028
FNA:0,9,_ZNSt10_HashtableINSt7__cxx1112basic_stringIcSt11char_traitsIcESaIcEEESt4pairIKS5_S5_ESaIS8_ENSt8__detail10_Select1stESt8equal_toIS5_ESt4hashIS5_ENSA_18_Mod_range_hashingENSA_20_Default_ranged_hashENSA_20_Prime_rehash_policyENSA_17_Hashtable_traitsILb1ELb0ELb1EEEE5eraseERS7_
FNL:1,1658,1673
FNA:1,1,_ZNSt10_HashtableINSt7__cxx1112basic_stringIcSt11char_traitsIcESaIcEEESt4pairIKS5_S5_ESaIS8_ENSt8__detail10_Select1stESt8equal_toIS5_ESt4hashIS5_ENSA_18_Mod_range_hashingENSA_20_Default_ranged_hashENSA_20_Prime_rehash_policyENSA_17_Hashtable_traitsILb1ELb0ELb1EEEED2Ev
FNA:1,1,_ZNSt10_HashtableINSt7__cxx1112basic_stringIcSt11char_traitsIcESaIcEEESt4pairIKS5_St13unordered_mapIiiSt4hashIiESt8equal_toIiESaIS6_IKiiEEEESaISH_ENSt8__detail10_Select1stESB_IS5_ES9_IS5_ENSJ_18_Mod_range_hashingENSJ_20_Default_ranged_hashENSJ_20_Prime_rehash_policyENSJ_17_Hashtable_traitsILb1ELb0ELb1EEEED2Ev
FNA:1,1,_ZNSt10_HashtableINSt7__cxx1112basic_stringIcSt11char_traitsIcESaIcEEESt4pairIKS5_iESaIS8_ENSt8__detail10_Select1stESt8equal_toIS5_ESt4hashIS5_ENSA_18_Mod_range_hashingENSA_20_Default_ranged_hashENSA_20_Prime_rehash_policyENSA_17_Hashtable_traitsILb1ELb0ELb1EEEED2Ev
FNA:1,3,_ZNSt10_HashtableIiSt4pairIKiiESaIS2_ENSt8__detail10_Select1stESt8equal_toIiESt4hashIiENS4_18_Mod_range_hashingENS4_20_Default_ranged_hashENS4_20_Prime_rehash_policyENS4_17_Hashtable_traitsILb0ELb0ELb1EEEED2Ev
FNL:2,1727,1743
FNA:2,19,_ZNSt10_HashtableINSt7__cxx1112basic_stringIcSt11char_traitsIcESaIcEEESt4pairIKS5_S5_ESaIS8_ENSt8__detail10_Select1stESt8equal_toIS5_ESt4hashIS5_ENSA_18_Mod_range_hashingENSA_20_Default_ranged_hashENSA_20_Prime_rehash_policyENSA_17_Hashtable_traitsILb1ELb0ELb1EEEE4findERS7_
FNL:3,2036,2056
FNA:3,9,_ZNSt10_HashtableINSt7__cxx1112basic_stringIcSt11char_traitsIcESaIcEEESt4pairIKS5_S5_ESaIS8_ENSt8__detail10_Select1stESt8equal_toIS5_ESt4hashIS5_ENSA_18_Mod_range_hashingENSA_20_Default_ranged_hashENSA_20_Prime_rehash_policyENSA_17_Hashtable_traitsILb1ELb0ELb1EEEE19_M_find_before_nodeERS7_
FNL:4,2065,2087
FNA:4,10,_ZNKSt10_HashtableINSt7__cxx1112basic_stringIcSt11char_traitsIcESaIcEEESt4pairIKS5_S5_ESaIS8_ENSt8__detail10_Select1stESt8equal_toIS5_ESt4hashIS5_ENSA_18_Mod_range_hashingENSA_20_Default_ranged_hashENSA_20_Prime_rehash_policyENSA_17_Hashtable_traitsILb1ELb0ELb1EEEE19_M_find_before_nodeEmRS7_m
FNA:4,12,_ZNKSt10_HashtableINSt7__cxx1112basic_stringIcSt11char_traitsIcESaIcEEESt4pairIKS5_St13unordered_mapIiiSt4hashIiESt8equal_toIiESaIS6_IKiiEEEESaISH_ENSt8__detail10_Select1stESB_IS5_ES9_IS5_ENSJ_18_Mod_range_hashingENSJ_20_Default_ranged_hashENSJ_20_Prime_rehash_policyENSJ_17_Hashtable_traitsILb1ELb0ELb1EEEE19_M_find_before_nodeEmRS7_m
FNA:4,9,_ZNKSt10_HashtableINSt7__cxx1112basic_stringIcSt11char_traitsIcESaIcEEESt4pairIKS5_iESaIS8_ENSt8__detail10_Select1stESt8equal_toIS5_ESt4hashIS5_ENSA_18_Mod_range_hashingENSA_20_Default_ranged_hashENSA_20_Prime_rehash_policyENSA_17_Hashtable_traitsILb1ELb0ELb1EEEE19_M_find_before_nodeEmRS7_m
FNA:4,9,_ZNKSt10_HashtableIiSt4pairIKiiESaIS2_ENSt8__detail10_Select1stESt8equal_toIiESt4hashIiENS4_18_Mod_range_hashingENS4_20_Default_ranged_hashENS4_20_Prime_rehash_policyENS4_17_Hashtable_traitsILb0ELb0ELb1EEEE19_M_find_before_nodeEmRS1_m
FNL:5,2228,2252
FNA:5,10,_ZNSt10_HashtableINSt7__cxx1112basic_stringIcSt11char_traitsIcESaIcEEESt4pairIKS5_S5_ESaIS8_ENSt8__detail10_Select1stESt8equal_toIS5_ESt4hashIS5_ENSA_18_Mod_range_hashingENSA_20_Default_ranged_hashENSA_20_Prime_rehash_policyENSA_17_Hashtable_traitsILb1ELb0ELb1EEEE21_M_insert_unique_nodeEmmPNSA_10_Hash_nodeIS8_Lb1EEEm
FNA:5,3,_ZNSt10_HashtableINSt7__cxx1112basic_stringIcSt11char_traitsIcESaIcEEESt4pairIKS5_St13unordered_mapIiiSt4hashIiESt8equal_toIiESaIS6_IKiiEEEESaISH_ENSt8__detail10_Select1stESB_IS5_ES9_IS5_ENSJ_18_Mod_range_hashingENSJ_20_Default_ranged_hashENSJ_20_Prime_rehash_policyENSJ_17_Hashtable_traitsILb1ELb0ELb1EEEE21_M_insert_unique_nodeEmmPNSJ_10_Hash_nodeISH_Lb1EEEm
FNA:5,3,_ZNSt10_HashtableINSt7__cxx1112basic_stringIcSt11char_traitsIcESaIcEEESt4pairIKS5_iESaIS8_ENSt8__detail10_Select1stESt8equal_toIS5_ESt4hashIS5_ENSA_18_Mod_range_hashingENSA_20_Default_ranged_hashENSA_20_Prime_rehash_policyENSA_17_Hashtable_traitsILb1ELb0ELb1EEEE21_M_insert_unique_nodeEmmPNSA_10_Hash_nodeIS8_Lb1EEEm
FNA:5,4,_ZNSt10_HashtableIiSt4pairIKiiESaIS2_ENSt8__detail10_Select1stESt8equal_toIiESt4hashIiENS4_18_Mod_range_hashingENS4_20_Default_ranged_hashENS4_20_Prime_rehash_policyENS4_17_Hashtable_traitsILb0ELb0ELb1EEEE21_M_insert_unique_nodeEmmPNS4_10_Hash_nodeIS2_Lb0EEEm
FNL:6,2400,2421
FNA:6,9,_ZNSt10_HashtableINSt7__cxx1112basic_stringIcSt11char_traitsIcESaIcEEESt4pairIKS5_S5_ESaIS8_ENSt8__detail10_Select1stESt8equal_toIS5_ESt4hashIS5_ENSA_18_Mod_range_hashingENSA_20_Default_ranged_hashENSA_20_Prime_rehash_policyENSA_17_Hashtable_traitsILb1ELb0ELb1EEEE8_M_eraseEmPNSA_15_Hash_node_baseEPNSA_10_Hash_nodeIS8_Lb1EEE
FNL:7,2428,2462
FNA:7,9,_ZNSt10_HashtableINSt7__cxx1112basic_stringIcSt11char_traitsIcESaIcEEESt4pairIKS5_S5_ESaIS8_ENSt8__detail10_Select1stESt8equal_toIS5_ESt4hashIS5_ENSA_18_Mod_range_hashingENSA_20_Default_ranged_hashENSA_20_Prime_rehash_policyENSA_17_Hashtable_traitsILb1ELb0ELb1EEEE8_M_eraseESt17integral_constantIbLb1EERS7_
FNL:8,2584,2593
FNA:8,1,_ZNSt10_HashtableINSt7__cxx1112basic_stringIcSt11char_traitsIcESaIcEEESt4pairIKS5_S5_ESaIS8_ENSt8__detail10_Select1stESt8equal_toIS5_ESt4hashIS5_ENSA_18_Mod_range_hashingENSA_20_Default_ranged_hashENSA_20_Prime_rehash_policyENSA_17_Hashtable_traitsILb1ELb0ELb1EEEE5clearEv
FNA:8,1,_ZNSt10_HashtableINSt7__cxx1112basic_stringIcSt11char_traitsIcESaIcEEESt4pairIKS5_St13unordered_mapIiiSt4hashIiESt8equal_toIiESaIS6_IKiiEEEESaISH_ENSt8__detail10_Select1stESB_IS5_ES9_IS5_ENSJ_18_Mod_range_hashingENSJ_20_Default_ranged_hashENSJ_20_Prime_rehash_policyENSJ_17_Hashtable_traitsILb1ELb0ELb1EEEE5clearEv
FNA:8,1,_ZNSt10_HashtableINSt7__cxx1112basic_stringIcSt11char_traitsIcESaIcEEESt4pairIKS5_iESaIS8_ENSt8__detail10_Select1stESt8equal_toIS5_ESt4hashIS5_ENSA_18_Mod_range_hashingENSA_20_Default_ranged_hashENSA_20_Prime_rehash_policyENSA_17_Hashtable_traitsILb1ELb0ELb1EEEE5clearEv
FNA:8,3,_ZNSt10_HashtableIiSt4pairIKiiESaIS2_ENSt8__detail10_Select1stESt8equal_toIiESt4hashIiENS4_18_Mod_range_hashingENS4_20_Default_ranged_hashENS4_20_Prime_rehash_policyENS4_17_Hashtable_traitsILb0ELb0ELb1EEEE5clearEv
FNL:9,2623,2657
FNA:9,1,_ZNSt10_HashtableINSt7__cxx1112basic_stringIcSt11char_traitsIcESaIcEEESt4pairIKS5_S5_ESaIS8_ENSt8__detail10_Select1stESt8equal_toIS5_ESt4hashIS5_ENSA_18_Mod_range_hashingENSA_20_Default_ranged_hashENSA_20_Prime_rehash_policyENSA_17_Hashtable_traitsILb1ELb0ELb1EEEE9_M_rehashEmSt17integral_constantIbLb1EE
FNA:9,1,_ZNSt10_HashtableINSt7__cxx1112basic_stringIcSt11char_traitsIcESaIcEEESt4pairIKS5_St13unordered_mapIiiSt4hashIiESt8equal_toIiESaIS6_IKiiEEEESaISH_ENSt8__detail10_Select1stESB_IS5_ES9_IS5_ENSJ_18_Mod_range_hashingENSJ_20_Default_ranged_hashENSJ_20_Prime_rehash_policyENSJ_17_Hashtable_traitsILb1ELb0ELb1EEEE9_M_rehashEmSt17integral_constantIbLb1EE
FNA:9,1,_ZNSt10_HashtableINSt7__cxx1112basic_stringIcSt11char_traitsIcESaIcEEESt4pairIKS5_iESaIS8_ENSt8__detail10_Select1stESt8equal_toIS5_ESt4hashIS5_ENSA_18_Mod_range_hashingENSA_20_Default_ranged_hashENSA_20_Prime_rehash_policyENSA_17_Hashtable_traitsILb1ELb0ELb1EEEE9_M_rehashEmSt17integral_constantIbLb1EE
FNA:9,3,_ZNSt10_HashtableIiSt4pairIKiiESaIS2_ENSt8__detail10_Select1stESt8equal_toIiESt4hashIiENS4_18_Mod_range_hashingENS4_20_Default_ranged_hashENS4_20_Prime_rehash_policyENS4_17_Hashtable_traitsILb0ELb0ELb1EEEE9_M_rehashEmSt17integral_constantIbLb1EE
FNL:10,310,313
FNA:10,10,_ZNSt10_HashtableINSt7__cxx1112basic_stringIcSt11char_traitsIcESaIcEEESt4pairIKS5_S5_ESaIS8_ENSt8__detail10_Select1stESt8equal_toIS5_ESt4hashIS5_ENSA_18_Mod_range_hashingENSA_20_Default_ranged_hashENSA_20_Prime_rehash_policyENSA_17_Hashtable_traitsILb1ELb0ELb1EEEE12_Scoped_nodeC2IJRKSt21piecewise_construct_tSt5tupleIJRS7_EESR_IJEEEEEPNSA_16_Hashtable_allocISaINSA_10_Hash_nodeIS8_Lb1EEEEEEDpOT_
FNA:10,3,_ZNSt10_HashtableINSt7__cxx1112basic_stringIcSt11char_traitsIcESaIcEEESt4pairIKS5_St13unordered_mapIiiSt4hashIiESt8equal_toIiESaIS6_IKiiEEEESaISH_ENSt8__detail10_Select1stESB_IS5_ES9_IS5_ENSJ_18_Mod_range_hashingENSJ_20_Default_ranged_hashENSJ_20_Prime_rehash_policyENSJ_17_Hashtable_traitsILb1ELb0ELb1EEEE12_Scoped_nodeC2IJRKSt21piecewise_construct_tSt5tupleIJRS7_EESY_IJEEEEEPNSJ_16_Hashtable_allocISaINSJ_10_Hash_nodeISH_Lb1EEEEEEDpOT_
FNA:10,3,_ZNSt10_HashtableINSt7__cxx1112basic_stringIcSt11char_traitsIcESaIcEEESt4pairIKS5_iESaIS8_ENSt8__detail10_Select1stESt8equal_toIS5_ESt4hashIS5_ENSA_18_Mod_range_hashingENSA_20_Default_ranged_hashENSA_20_Prime_rehash_policyENSA_17_Hashtable_traitsILb1ELb0ELb1EEEE12_Scoped_nodeC2IJRKSt21piecewise_construct_tSt5tupleIJRS7_EESR_IJEEEEEPNSA_16_Hashtable_allocISaINSA_10_Hash_nodeIS8_Lb1EEEEEEDpOT_
FNA:10,4,_ZNSt10_HashtableIiSt4pairIKiiESaIS2_ENSt8__detail10_Select1stESt8equal_toIiESt4hashIiENS4_18_Mod_range_hashingENS4_20_Default_ranged_hashENS4_20_Prime_rehash_policyENS4_17_Hashtable_traitsILb0ELb0ELb1EEEE12_Scoped_nodeC2IJRKSt21piecewise_construct_tSt5tupleIJRS1_EESL_IJEEEEEPNS4_16_Hashtable_allocISaINS4_10_Hash_nodeIS2_Lb0EEEEEEDpOT_
FNL:11,316,316
FNA:11,10,_ZNSt10_HashtableINSt7__cxx1112basic_stringIcSt11char_traitsIcESaIcEEESt4pairIKS5_S5_ESaIS8_ENSt8__detail10_Select1stESt8equal_toIS5_ESt4hashIS5_ENSA_18_Mod_range_hashingENSA_20_Default_ranged_hashENSA_20_Prime_rehash_policyENSA_17_Hashtable_traitsILb1ELb0ELb1EEEE12_Scoped_nodeD2Ev
FNA:11,3,_ZNSt10_HashtableINSt7__cxx1112basic_stringIcSt11char_traitsIcESaIcEEESt4pairIKS5_St13unordered_mapIiiSt4hashIiESt8equal_toIiESaIS6_IKiiEEEESaISH_ENSt8__detail10_Select1stESB_IS5_ES9_IS5_ENSJ_18_Mod_range_hashingENSJ_20_Default_ranged_hashENSJ_20_Prime_rehash_policyENSJ_17_Hashtable_traitsILb1ELb0ELb1EEEE12_Scoped_nodeD2Ev
FNA:11,3,_ZNSt10_HashtableINSt7__cxx1112basic_stringIcSt11char_traitsIcESaIcEEESt4pairIKS5_iESaIS8_ENSt8__detail10_Select1stESt8equal_toIS5_ESt4hashIS5_ENSA_18_Mod_range_hashingENSA_20_Default_ranged_hashENSA_20_Prime_rehash_policyENSA_17_Hashtable_traitsILb1ELb0ELb1EEEE12_Scoped_nodeD2Ev
FNA:11,4,_ZNSt10_HashtableIiSt4pairIKiiESaIS2_ENSt8__detail10_Select1stESt8equal_toIiESt4hashIiENS4_18_Mod_range_hashingENS4_20_Default_ranged_hashENS4_20_Prime_rehash_policyENS4_17_Hashtable_traitsILb0ELb0ELb1EEEE12_Scoped_nodeD2Ev
FNL:12,421,422
FNA:12,2,_ZNKSt10_HashtableINSt7__cxx1112basic_stringIcSt11char_traitsIcESaIcEEESt4pairIKS5_S5_ESaIS8_ENSt8__detail10_Select1stESt8equal_toIS5_ESt4hashIS5_ENSA_18_Mod_range_hashingENSA_20_Default_ranged_hashENSA_20_Prime_rehash_policyENSA_17_Hashtable_traitsILb1ELb0ELb1EEEE21_M_uses_single_bucketEPPNSA_15_Hash_node_baseE
FNA:12,2,_ZNKSt10_HashtableINSt7__cxx1112basic_stringIcSt11char_traitsIcESaIcEEESt4pairIKS5_St13unordered_mapIiiSt4hashIiESt8equal_toIiESaIS6_IKiiEEEESaISH_ENSt8__detail10_Select1stESB_IS5_ES9_IS5_ENSJ_18_Mod_range_hashingENSJ_20_Default_ranged_hashENSJ_20_Prime_rehash_policyENSJ_17_Hashtable_traitsILb1ELb0ELb1EEEE21_M_uses_single_bucketEPPNSJ_15_Hash_node_baseE
FNA:12,2,_ZNKSt10_HashtableINSt7__cxx1112basic_stringIcSt11char_traitsIcESaIcEEESt4pairIKS5_iESaIS8_ENSt8__detail10_Select1stESt8equal_toIS5_ESt4hashIS5_ENSA_18_Mod_range_hashingENSA_20_Default_ranged_hashENSA_20_Prime_rehash_policyENSA_17_Hashtable_traitsILb1ELb0ELb1EEEE21_M_uses_single_bucketEPPNSA_15_Hash_node_baseE
FNA:12,6,_ZNKSt10_HashtableIiSt4pairIKiiESaIS2_ENSt8__detail10_Select1stESt8equal_toIiESt4hashIiENS4_18_Mod_range_hashingENS4_20_Default_ranged_hashENS4_20_Prime_rehash_policyENS4_17_Hashtable_traitsILb0ELb0ELb1EEEE21_M_uses_single_bucketEPPNS4_15_Hash_node_baseE
FNL:13,429,433
FNA:13,28,_ZNSt10_HashtableINSt7__cxx1112basic_stringIcSt11char_traitsIcESaIcEEESt4pairIKS5_S5_ESaIS8_ENSt8__detail10_Select1stESt8equal_toIS5_ESt4hashIS5_ENSA_18_Mod_range_hashingENSA_20_Default_ranged_hashENSA_20_Prime_rehash_policyENSA_17_Hashtable_traitsILb1ELb0ELb1EEEE22__small_size_thresholdEv
FNL:14,439,448
FNA:14,1,_ZNSt10_HashtableINSt7__cxx1112basic_stringIcSt11char_traitsIcESaIcEEESt4pairIKS5_S5_ESaIS8_ENSt8__detail10_Select1stESt8equal_toIS5_ESt4hashIS5_ENSA_18_Mod_range_hashingENSA_20_Default_ranged_hashENSA_20_Prime_rehash_policyENSA_17_Hashtable_traitsILb1ELb0ELb1EEEE19_M_allocate_bucketsEm
FNA:14,1,_ZNSt10_HashtableINSt7__cxx1112basic_stringIcSt11char_traitsIcESaIcEEESt4pairIKS5_St13unordered_mapIiiSt4hashIiESt8equal_toIiESaIS6_IKiiEEEESaISH_ENSt8__detail10_Select1stESB_IS5_ES9_IS5_ENSJ_18_Mod_range_hashingENSJ_20_Default_ranged_hashENSJ_20_Prime_rehash_policyENSJ_17_Hashtable_traitsILb1ELb0ELb1EEEE19_M_allocate_bucketsEm
FNA:14,1,_ZNSt10_HashtableINSt7__cxx1112basic_stringIcSt11char_traitsIcESaIcEEESt4pairIKS5_iESaIS8_ENSt8__detail10_Select1stESt8equal_toIS5_ESt4hashIS5_ENSA_18_Mod_range_hashingENSA_20_Default_ranged_hashENSA_20_Prime_rehash_policyENSA_17_Hashtable_traitsILb1ELb0ELb1EEEE19_M_allocate_bucketsEm
FNA:14,3,_ZNSt10_HashtableIiSt4pairIKiiESaIS2_ENSt8__detail10_Select1stESt8equal_toIiESt4hashIiENS4_18_Mod_range_hashingENS4_20_Default_ranged_hashENS4_20_Prime_rehash_policyENS4_17_Hashtable_traitsILb0ELb0ELb1EEEE19_M_allocate_bucketsEm
FNL:15,451,457
FNA:15,2,_ZNSt10_HashtableINSt7__cxx1112basic_stringIcSt11char_traitsIcESaIcEEESt4pairIKS5_S5_ESaIS8_ENSt8__detail10_Select1stESt8equal_toIS5_ESt4hashIS5_ENSA_18_Mod_range_hashingENSA_20_Default_ranged_hashENSA_20_Prime_rehash_policyENSA_17_Hashtable_traitsILb1ELb0ELb1EEEE21_M_deallocate_bucketsEPPNSA_15_Hash_node_baseEm
FNA:15,2,_ZNSt10_HashtableINSt7__cxx1112basic_stringIcSt11char_traitsIcESaIcEEESt4pairIKS5_St13unordered_mapIiiSt4hashIiESt8equal_toIiESaIS6_IKiiEEEESaISH_ENSt8__detail10_Select1stESB_IS5_ES9_IS5_ENSJ_18_Mod_range_hashingENSJ_20_Default_ranged_hashENSJ_20_Prime_rehash_policyENSJ_17_Hashtable_traitsILb1ELb0ELb1EEEE21_M_deallocate_bucketsEPPNSJ_15_Hash_node_baseEm
FNA:15,2,_ZNSt10_HashtableINSt7__cxx1112basic_stringIcSt11char_traitsIcESaIcEEESt4pairIKS5_iESaIS8_ENSt8__detail10_Select1stESt8equal_toIS5_ESt4hashIS5_ENSA_18_Mod_range_hashingENSA_20_Default_ranged_hashENSA_20_Prime_rehash_policyENSA_17_Hashtable_traitsILb1ELb0ELb1EEEE21_M_deallocate_bucketsEPPNSA_15_Hash_node_baseEm
FNA:15,6,_ZNSt10_HashtableIiSt4pairIKiiESaIS2_ENSt8__detail10_Select1stESt8equal_toIiESt4hashIiENS4_18_Mod_range_hashingENS4_20_Default_ranged_hashENS4_20_Prime_rehash_policyENS4_17_Hashtable_traitsILb0ELb0ELb1EEEE21_M_deallocate_bucketsEPPNS4_15_Hash_node_baseEm
FNL:16,460,461
FNA:16,2,_ZNSt10_HashtableINSt7__cxx1112basic_stringIcSt11char_traitsIcESaIcEEESt4pairIKS5_S5_ESaIS8_ENSt8__detail10_Select1stESt8equal_toIS5_ESt4hashIS5_ENSA_18_Mod_range_hashingENSA_20_Default_ranged_hashENSA_20_Prime_rehash_policyENSA_17_Hashtable_traitsILb1ELb0ELb1EEEE21_M_deallocate_bucketsEv
FNA:16,2,_ZNSt10_HashtableINSt7__cxx1112basic_stringIcSt11char_traitsIcESaIcEEESt4pairIKS5_St13unordered_mapIiiSt4hashIiESt8equal_toIiESaIS6_IKiiEEEESaISH_ENSt8__detail10_Select1stESB_IS5_ES9_IS5_ENSJ_18_Mod_range_hashingENSJ_20_Default_ranged_hashENSJ_20_Prime_rehash_policyENSJ_17_Hashtable_traitsILb1ELb0ELb1EEEE21_M_deallocate_bucketsEv
FNA:16,2,_ZNSt10_HashtableINSt7__cxx1112basic_stringIcSt11char_traitsIcESaIcEEESt4pairIKS5_iESaIS8_ENSt8__detail10_Select1stESt8equal_toIS5_ESt4hashIS5_ENSA_18_Mod_range_hashingENSA_20_Default_ranged_hashENSA_20_Prime_rehash_policyENSA_17_Hashtable_traitsILb1ELb0ELb1EEEE21_M_deallocate_bucketsEv
FNA:16,6,_ZNSt10_HashtableIiSt4pairIKiiESaIS2_ENSt8__detail10_Select1stESt8equal_toIiESt4hashIiENS4_18_Mod_range_hashingENS4_20_Default_ranged_hashENS4_20_Prime_rehash_policyENS4_17_Hashtable_traitsILb0ELb0ELb1EEEE21_M_deallocate_bucketsEv
FNL:17,473,474
FNA:17,21,_ZNKSt10_HashtableINSt7__cxx1112basic_stringIcSt11char_traitsIcESaIcEEESt4pairIKS5_S5_ESaIS8_ENSt8__detail10_Select1stESt8equal_toIS5_ESt4hashIS5_ENSA_18_Mod_range_hashingENSA_20_Default_ranged_hashENSA_20_Prime_rehash_policyENSA_17_Hashtable_traitsILb1ELb0ELb1EEEE8_M_beginEv
FNA:17,2,_ZNKSt10_HashtableINSt7__cxx1112basic_stringIcSt11char_traitsIcESaIcEEESt4pairIKS5_St13unordered_mapIiiSt4hashIiESt8equal_toIiESaIS6_IKiiEEEESaISH_ENSt8__detail10_Select1stESB_IS5_ES9_IS5_ENSJ_18_Mod_range_hashingENSJ_20_Default_ranged_hashENSJ_20_Prime_rehash_policyENSJ_17_Hashtable_traitsILb1ELb0ELb1EEEE8_M_beginEv
FNA:17,3,_ZNKSt10_HashtableINSt7__cxx1112basic_stringIcSt11char_traitsIcESaIcEEESt4pairIKS5_iESaIS8_ENSt8__detail10_Select1stESt8equal_toIS5_ESt4hashIS5_ENSA_18_Mod_range_hashingENSA_20_Default_ranged_hashENSA_20_Prime_rehash_policyENSA_17_Hashtable_traitsILb1ELb0ELb1EEEE8_M_beginEv
FNA:17,9,_ZNKSt10_HashtableIiSt4pairIKiiESaIS2_ENSt8__detail10_Select1stESt8equal_toIiESt4hashIiENS4_18_Mod_range_hashingENS4_20_Default_ranged_hashENS4_20_Prime_rehash_policyENS4_17_Hashtable_traitsILb0ELb0ELb1EEEE8_M_beginEv
FNL:18,539,539
FNA:18,1,_ZNSt10_HashtableINSt7__cxx1112basic_stringIcSt11char_traitsIcESaIcEEESt4pairIKS5_S5_ESaIS8_ENSt8__detail10_Select1stESt8equal_toIS5_ESt4hashIS5_ENSA_18_Mod_range_hashingENSA_20_Default_ranged_hashENSA_20_Prime_rehash_policyENSA_17_Hashtable_traitsILb1ELb0ELb1EEEEC2Ev
FNA:18,1,_ZNSt10_HashtableINSt7__cxx1112basic_stringIcSt11char_traitsIcESaIcEEESt4pairIKS5_St13unordered_mapIiiSt4hashIiESt8equal_toIiESaIS6_IKiiEEEESaISH_ENSt8__detail10_Select1stESB_IS5_ES9_IS5_ENSJ_18_Mod_range_hashingENSJ_20_Default_ranged_hashENSJ_20_Prime_rehash_policyENSJ_17_Hashtable_traitsILb1ELb0ELb1EEEEC2Ev
FNA:18,1,_ZNSt10_HashtableINSt7__cxx1112basic_stringIcSt11char_traitsIcESaIcEEESt4pairIKS5_iESaIS8_ENSt8__detail10_Select1stESt8equal_toIS5_ESt4hashIS5_ENSA_18_Mod_range_hashingENSA_20_Default_ranged_hashENSA_20_Prime_rehash_policyENSA_17_Hashtable_traitsILb1ELb0ELb1EEEEC2Ev
FNA:18,3,_ZNSt10_HashtableIiSt4pairIKiiESaIS2_ENSt8__detail10_Select1stESt8equal_toIiESt4hashIiENS4_18_Mod_range_hashingENS4_20_Default_ranged_hashENS4_20_Prime_rehash_policyENS4_17_Hashtable_traitsILb0ELb0ELb1EEEEC2Ev
FNL:19,632,633
FNA:19,1,_ZNSt10_HashtableINSt7__cxx1112basic_stringIcSt11char_traitsIcESaIcEEESt4pairIKS5_iESaIS8_ENSt8__detail10_Select1stESt8equal_toIS5_ESt4hashIS5_ENSA_18_Mod_range_hashingENSA_20_Default_ranged_hashENSA_20_Prime_rehash_policyENSA_17_Hashtable_traitsILb1ELb0ELb1EEEE5beginEv
FNA:19,3,_ZNSt10_HashtableIiSt4pairIKiiESaIS2_ENSt8__detail10_Select1stESt8equal_toIiESt4hashIiENS4_18_Mod_range_hashingENS4_20_Default_ranged_hashENS4_20_Prime_rehash_policyENS4_17_Hashtable_traitsILb0ELb0ELb1EEEE5beginEv
FNL:20,640,641
FNA:20,29,_ZNSt10_HashtableINSt7__cxx1112basic_stringIcSt11char_traitsIcESaIcEEESt4pairIKS5_S5_ESaIS8_ENSt8__detail10_Select1stESt8equal_toIS5_ESt4hashIS5_ENSA_18_Mod_range_hashingENSA_20_Default_ranged_hashENSA_20_Prime_rehash_policyENSA_17_Hashtable_traitsILb1ELb0ELb1EEEE3endEv
FNA:20,1,_ZNSt10_HashtableINSt7__cxx1112basic_stringIcSt11char_traitsIcESaIcEEESt4pairIKS5_iESaIS8_ENSt8__detail10_Select1stESt8equal_toIS5_ESt4hashIS5_ENSA_18_Mod_range_hashingENSA_20_Default_ranged_hashENSA_20_Prime_rehash_policyENSA_17_Hashtable_traitsILb1ELb0ELb1EEEE3endEv
FNA:20,3,_ZNSt10_HashtableIiSt4pairIKiiESaIS2_ENSt8__detail10_Select1stESt8equal_toIiESt4hashIiENS4_18_Mod_range_hashingENS4_20_Default_ranged_hashENS4_20_Prime_rehash_policyENS4_17_Hashtable_traitsILb0ELb0ELb1EEEE3endEv
FNL:21,656,657
FNA:21,28,_ZNKSt10_HashtableINSt7__cxx1112basic_stringIcSt11char_traitsIcESaIcEEESt4pairIKS5_S5_ESaIS8_ENSt8__detail10_Select1stESt8equal_toIS5_ESt4hashIS5_ENSA_18_Mod_range_hashingENSA_20_Default_ranged_hashENSA_20_Prime_rehash_policyENSA_17_Hashtable_traitsILb1ELb0ELb1EEEE4sizeEv
FNL:22,799,800
FNA:22,14,_ZNKSt10_HashtableINSt7__cxx1112basic_stringIcSt11char_traitsIcESaIcEEESt4pairIKS5_S5_ESaIS8_ENSt8__detail10_Select1stESt8equal_toIS5_ESt4hashIS5_ENSA_18_Mod_range_hashingENSA_20_Default_ranged_hashENSA_20_Prime_rehash_policyENSA_17_Hashtable_traitsILb1ELb0ELb1EEEE15_M_bucket_indexERKNSA_16_Hash_node_valueIS8_Lb1EEE
FNA:22,2,_ZNKSt10_HashtableINSt7__cxx1112basic_stringIcSt11char_traitsIcESaIcEEESt4pairIKS5_St13unordered_mapIiiSt4hashIiESt8equal_toIiESaIS6_IKiiEEEESaISH_ENSt8__detail10_Select1stESB_IS5_ES9_IS5_ENSJ_18_Mod_range_hashingENSJ_20_Default_ranged_hashENSJ_20_Prime_rehash_policyENSJ_17_Hashtable_traitsILb1ELb0ELb1EEEE15_M_bucket_indexERKNSJ_16_Hash_node_valueISH_Lb1EEE
FNA:22,2,_ZNKSt10_HashtableINSt7__cxx1112basic_stringIcSt11char_traitsIcESaIcEEESt4pairIKS5_iESaIS8_ENSt8__detail10_Select1stESt8equal_toIS5_ESt4hashIS5_ENSA_18_Mod_range_hashingENSA_20_Default_ranged_hashENSA_20_Prime_rehash_policyENSA_17_Hashtable_traitsILb1ELb0ELb1EEEE15_M_bucket_indexERKNSA_16_Hash_node_valueIS8_Lb1EEE
FNA:22,1,_ZNKSt10_HashtableIiSt4pairIKiiESaIS2_ENSt8__detail10_Select1stESt8equal_toIiESt4hashIiENS4_18_Mod_range_hashingENS4_20_Default_ranged_hashENS4_20_Prime_rehash_policyENS4_17_Hashtable_traitsILb0ELb0ELb1EEEE15_M_bucket_indexERKNS4_16_Hash_node_valueIS2_Lb0EEE
FNL:23,803,804
FNA:23,11,_ZNKSt10_HashtableINSt7__cxx1112basic_stringIcSt11char_traitsIcESaIcEEESt4pairIKS5_S5_ESaIS8_ENSt8__detail10_Select1stESt8equal_toIS5_ESt4hashIS5_ENSA_18_Mod_range_hashingENSA_20_Default_ranged_hashENSA_20_Prime_rehash_policyENSA_17_Hashtable_traitsILb1ELb0ELb1EEEE15_M_bucket_indexEm
FNA:23,13,_ZNKSt10_HashtableINSt7__cxx1112basic_stringIcSt11char_traitsIcESaIcEEESt4pairIKS5_St13unordered_mapIiiSt4hashIiESt8equal_toIiESaIS6_IKiiEEEESaISH_ENSt8__detail10_Select1stESB_IS5_ES9_IS5_ENSJ_18_Mod_range_hashingENSJ_20_Default_ranged_hashENSJ_20_Prime_rehash_policyENSJ_17_Hashtable_traitsILb1ELb0ELb1EEEE15_M_bucket_indexEm
FNA:23,10,_ZNKSt10_HashtableINSt7__cxx1112basic_stringIcSt11char_traitsIcESaIcEEESt4pairIKS5_iESaIS8_ENSt8__detail10_Select1stESt8equal_toIS5_ESt4hashIS5_ENSA_18_Mod_range_hashingENSA_20_Default_ranged_hashENSA_20_Prime_rehash_policyENSA_17_Hashtable_traitsILb1ELb0ELb1EEEE15_M_bucket_indexEm
FNA:23,12,_ZNKSt10_HashtableIiSt4pairIKiiESaIS2_ENSt8__detail10_Select1stESt8equal_toIiESt4hashIiENS4_18_Mod_range_hashingENS4_20_Default_ranged_hashENS4_20_Prime_rehash_policyENS4_17_Hashtable_traitsILb0ELb0ELb1EEEE15_M_bucket_indexEm
FNL:24,819,826
FNA:24,10,_ZNKSt10_HashtableINSt7__cxx1112basic_stringIcSt11char_traitsIcESaIcEEESt4pairIKS5_S5_ESaIS8_ENSt8__detail10_Select1stESt8equal_toIS5_ESt4hashIS5_ENSA_18_Mod_range_hashingENSA_20_Default_ranged_hashENSA_20_Prime_rehash_policyENSA_17_Hashtable_traitsILb1ELb0ELb1EEEE12_M_find_nodeEmRS7_m
FNA:24,12,_ZNKSt10_HashtableINSt7__cxx1112basic_stringIcSt11char_traitsIcESaIcEEESt4pairIKS5_St13unordered_mapIiiSt4hashIiESt8equal_toIiESaIS6_IKiiEEEESaISH_ENSt8__detail10_Select1stESB_IS5_ES9_IS5_ENSJ_18_Mod_range_hashingENSJ_20_Default_ranged_hashENSJ_20_Prime_rehash_policyENSJ_17_Hashtable_traitsILb1ELb0ELb1EEEE12_M_find_nodeEmRS7_m
FNA:24,9,_ZNKSt10_HashtableINSt7__cxx1112basic_stringIcSt11char_traitsIcESaIcEEESt4pairIKS5_iESaIS8_ENSt8__detail10_Select1stESt8equal_toIS5_ESt4hashIS5_ENSA_18_Mod_range_hashingENSA_20_Default_ranged_hashENSA_20_Prime_rehash_policyENSA_17_Hashtable_traitsILb1ELb0ELb1EEEE12_M_find_nodeEmRS7_m
FNA:24,9,_ZNKSt10_HashtableIiSt4pairIKiiESaIS2_ENSt8__detail10_Select1stESt8equal_toIiESt4hashIiENS4_18_Mod_range_hashingENS4_20_Default_ranged_hashENS4_20_Prime_rehash_policyENS4_17_Hashtable_traitsILb0ELb0ELb1EEEE12_M_find_nodeEmRS1_m
FNL:25,841,865
FNA:25,10,_ZNSt10_HashtableINSt7__cxx1112basic_stringIcSt11char_traitsIcESaIcEEESt4pairIKS5_S5_ESaIS8_ENSt8__detail10_Select1stESt8equal_toIS5_ESt4hashIS5_ENSA_18_Mod_range_hashingENSA_20_Default_ranged_hashENSA_20_Prime_rehash_policyENSA_17_Hashtable_traitsILb1ELb0ELb1EEEE22_M_insert_bucket_beginEmPNSA_10_Hash_nodeIS8_Lb1EEE
FNA:25,3,_ZNSt10_HashtableINSt7__cxx1112basic_stringIcSt11char_traitsIcESaIcEEESt4pairIKS5_St13unordered_mapIiiSt4hashIiESt8equal_toIiESaIS6_IKiiEEEESaISH_ENSt8__detail10_Select1stESB_IS5_ES9_IS5_ENSJ_18_Mod_range_hashingENSJ_20_Default_ranged_hashENSJ_20_Prime_rehash_policyENSJ_17_Hashtable_traitsILb1ELb0ELb1EEEE22_M_insert_bucket_beginEmPNSJ_10_Hash_nodeISH_Lb1EEE
FNA:25,3,_ZNSt10_HashtableINSt7__cxx1112basic_stringIcSt11char_traitsIcESaIcEEESt4pairIKS5_iESaIS8_ENSt8__detail10_Select1stESt8equal_toIS5_ESt4hashIS5_ENSA_18_Mod_range_hashingENSA_20_Default_ranged_hashENSA_20_Prime_rehash_policyENSA_17_Hashtable_traitsILb1ELb0ELb1EEEE22_M_insert_bucket_beginEmPNSA_10_Hash_nodeIS8_Lb1EEE
FNA:25,4,_ZNSt10_HashtableIiSt4pairIKiiESaIS2_ENSt8__detail10_Select1stESt8equal_toIiESt4hashIiENS4_18_Mod_range_hashingENS4_20_Default_ranged_hashENS4_20_Prime_rehash_policyENS4_17_Hashtable_traitsILb0ELb0ELb1EEEE22_M_insert_bucket_beginEmPNS4_10_Hash_nodeIS2_Lb0EEE
FNL:26,869,879
FNA:26,9,_ZNSt10_HashtableINSt7__cxx1112basic_stringIcSt11char_traitsIcESaIcEEESt4pairIKS5_S5_ESaIS8_ENSt8__detail10_Select1stESt8equal_toIS5_ESt4hashIS5_ENSA_18_Mod_range_hashingENSA_20_Default_ranged_hashENSA_20_Prime_rehash_policyENSA_17_Hashtable_traitsILb1ELb0ELb1EEEE22_M_remove_bucket_beginEmPNSA_10_Hash_nodeIS8_Lb1EEEm
FNF:27
FNH:27
DA:310,20
DA:311,20
DA:312,20
DA:313,20
DA:316,20
DA:421,12
DA:422,12
DA:429,28
DA:432,28
DA:439,6
DA:441,6
DA:443,0
DA:444,0
DA:447,6
DA:451,12
DA:453,12
DA:454,6
DA:456,6
DA:460,12
DA:461,12
DA:473,35
DA:474,35
DA:539,6
DA:632,4
DA:633,4
DA:640,33
DA:641,33
DA:656,28
DA:657,28
DA:799,19
DA:800,19
DA:803,46
DA:804,46
DA:819,40
DA:822,40
DA:823,40
DA:824,20
DA:825,20
DA:841,20
DA:843,20
DA:847,0
DA:848,0
DA:855,20
DA:856,20
DA:858,20
DA:861,9
DA:863,20
DA:865,20
DA:869,9
DA:872,9
DA:873,8
DA:874,1
DA:876,1
DA:877,1
DA:879,9
DA:1027,9
DA:1028,9
DA:1658,6
DA:1671,6
DA:1672,6
DA:1673,6
DA:1727,19
DA:1732,19
DA:1734,26
DA:1735,16
DA:1736,9
DA:1737,10
DA:1740,0
DA:1741,0
DA:1742,0
DA:2036,9
DA:2041,9
DA:2042,9
DA:2043,0
DA:2045,9
DA:2046,12
DA:2047,3
DA:2049,12
DA:2050,9
DA:2052,3
DA:2055,0
DA:2065,40
DA:2071,40
DA:2072,40
DA:2073,20
DA:2075,20
DA:2076,0
DA:2078,20
DA:2079,20
DA:2081,0
DA:2082,0
DA:2083,0
DA:2086,0
DA:2228,20
DA:2234,20
DA:2236,20
DA:2239,20
DA:2241,6
DA:2242,6
DA:2245,20
DA:2246,20
DA:2249,20
DA:2250,20
DA:2251,40
DA:2252,20
DA:2400,9
DA:2405,9
DA:2406,9
DA:2407,9
DA:2408,0
DA:2410,0
DA:2411,0
DA:2412,0
DA:2415,9
DA:2416,9
DA:2417,9
DA:2418,9
DA:2420,9
DA:2428,9
DA:2436,9
DA:2438,9
DA:2439,9
DA:2440,0
DA:2443,9
DA:2444,9
DA:2448,0
DA:2449,0
DA:2452,0
DA:2453,0
DA:2454,0
DA:2457,0
DA:2460,9
DA:2461,9
DA:2584,6
DA:2588,6
DA:2589,6
DA:2590,6
DA:2591,6
DA:2592,6
DA:2593,6
DA:2623,6
DA:2627,6
DA:2628,6
DA:2629,6
DA:2630,6
DA:2631,6
DA:2633,0
DA:2635,0
DA:2636,0
DA:2638,0
DA:2639,0
DA:2640,0
DA:2641,0
DA:2642,0
DA:2643,0
DA:2647,0
DA:2648,0
DA:2651,0
DA:2654,6
DA:2655,6
DA:2656,6
DA:2657,6
LF:162
LH:125
end_of_record
TN:
SF:/usr/include/c++/14/bits/hashtable_policy.h
FNL:0,112,113
FNA:0,28,_ZNKSt8__detail10_Select1stclIRKSt4pairIKNSt7__cxx1112basic_stringIcSt11char_traitsIcESaIcEEES8_EEEONS0_10__1st_typeIT_E4typeEOSE_
FNA:0,9,_ZNKSt8__detail10_Select1stclIRKSt4pairIKNSt7__cxx1112basic_stringIcSt11char_traitsIcESaIcEEESt13unordered_mapIiiSt4hashIiESt8equal_toIiESaIS2_IKiiEEEEEEONS0_10__1st_typeIT_E4typeEOSN_
FNA:0,6,_ZNKSt8__detail10_Select1stclIRKSt4pairIKNSt7__cxx1112basic_stringIcSt11char_traitsIcESaIcEEEiEEEONS0_10__1st_typeIT_E4typeEOSE_
FNA:0,6,_ZNKSt8__detail10_Select1stclIRKSt4pairIKiiEEEONS0_10__1st_typeIT_E4typeEOS8_
FNL:1,1245,1245
FNA:1,1,_ZNSt8__detail21_Hashtable_ebo_helperILi0ESaINS_10_Hash_nodeISt4pairIKNSt7__cxx1112basic_stringIcSt11char_traitsIcESaIcEEES8_ELb1EEEELb1EEC2Ev
FNA:1,1,_ZNSt8__detail21_Hashtable_ebo_helperILi0ESaINS_10_Hash_nodeISt4pairIKNSt7__cxx1112basic_stringIcSt11char_traitsIcESaIcEEESt13unordered_mapIiiSt4hashIiESt8equal_toIiESaIS2_IKiiEEEELb1EEEELb1EEC2Ev
FNA:1,1,_ZNSt8__detail21_Hashtable_ebo_helperILi0ESaINS_10_Hash_nodeISt4pairIKNSt7__cxx1112basic_stringIcSt11char_traitsIcESaIcEEEiELb1EEEELb1EEC2Ev
FNA:1,3,_ZNSt8__detail21_Hashtable_ebo_helperILi0ESaINS_10_Hash_nodeISt4pairIKiiELb0EEEELb1EEC2Ev
FNA:1,3,_ZNSt8__detail21_Hashtable_ebo_helperILi0ESt8equal_toINSt7__cxx1112basic_stringIcSt11char_traitsIcESaIcEEEELb1EEC2Ev
FNA:1,3,_ZNSt8__detail21_Hashtable_ebo_helperILi0ESt8equal_toIiELb1EEC2Ev
FNA:1,3,_ZNSt8__detail21_Hashtable_ebo_helperILi1ESt4hashINSt7__cxx1112basic_stringIcSt11char_traitsIcESaIcEEEELb1EEC2Ev
FNA:1,3,_ZNSt8__detail21_Hashtable_ebo_helperILi1ESt4hashIiELb1EEC2Ev
FNL:2,1252,1252
FNA:2,43,_ZNKSt8__detail21_Hashtable_ebo_helperILi0ESt8equal_toINSt7__cxx1112basic_stringIcSt11char_traitsIcESaIcEEEELb1EE7_M_cgetEv
FNA:2,5,_ZNKSt8__detail21_Hashtable_ebo_helperILi0ESt8equal_toIiELb1EE7_M_cgetEv
FNA:2,31,_ZNKSt8__detail21_Hashtable_ebo_helperILi1ESt4hashINSt7__cxx1112basic_stringIcSt11char_traitsIcESaIcEEEELb1EE7_M_cgetEv
FNA:2,10,_ZNKSt8__detail21_Hashtable_ebo_helperILi1ESt4hashIiELb1EE7_M_cgetEv
FNL:3,1253,1253
FNA:3,32,_ZNSt8__detail21_Hashtable_ebo_helperILi0ESaINS_10_Hash_nodeISt4pairIKNSt7__cxx1112basic_stringIcSt11char_traitsIcESaIcEEES8_ELb1EEEELb1EE6_M_getEv
FNA:3,11,_ZNSt8__detail21_Hashtable_ebo_helperILi0ESaINS_10_Hash_nodeISt4pairIKNSt7__cxx1112basic_stringIcSt11char_traitsIcESaIcEEESt13unordered_mapIiiSt4hashIiESt8equal_toIiESaIS2_IKiiEEEELb1EEEELb1EE6_M_getEv
FNA:3,11,_ZNSt8__detail21_Hashtable_ebo_helperILi0ESaINS_10_Hash_nodeISt4pairIKNSt7__cxx1112basic_stringIcSt11char_traitsIcESaIcEEEiELb1EEEELb1EE6_M_getEv
FNA:3,18,_ZNSt8__detail21_Hashtable_ebo_helperILi0ESaINS_10_Hash_nodeISt4pairIKiiELb0EEEELb1EE6_M_getEv
FNL:4,1328,1328
FNA:4,1,_ZNSt8__detail15_Hash_code_baseINSt7__cxx1112basic_stringIcSt11char_traitsIcESaIcEEESt4pairIKS6_S6_ENS_10_Select1stESt4hashIS6_ENS_18_Mod_range_hashingENS_20_Default_ranged_hashELb1EEC2Ev
FNA:4,1,_ZNSt8__detail15_Hash_code_baseINSt7__cxx1112basic_stringIcSt11char_traitsIcESaIcEEESt4pairIKS6_St13unordered_mapIiiSt4hashIiESt8equal_toIiESaIS7_IKiiEEEENS_10_Select1stESA_IS6_ENS_18_Mod_range_hashingENS_20_Default_ranged_hashELb1EEC2Ev
FNA:4,1,_ZNSt8__detail15_Hash_code_baseINSt7__cxx1112basic_stringIcSt11char_traitsIcESaIcEEESt4pairIKS6_iENS_10_Select1stESt4hashIS6_ENS_18_Mod_range_hashingENS_20_Default_ranged_hashELb1EEC2Ev
FNA:4,3,_ZNSt8__detail15_Hash_code_baseIiSt4pairIKiiENS_10_Select1stESt4hashIiENS_18_Mod_range_hashingENS_20_Default_ranged_hashELb0EEC2Ev
FNL:5,1333,1338
FNA:5,10,_ZNKSt8__detail15_Hash_code_baseINSt7__cxx1112basic_stringIcSt11char_traitsIcESaIcEEESt4pairIKS6_S6_ENS_10_Select1stESt4hashIS6_ENS_18_Mod_range_hashingENS_20_Default_ranged_hashELb1EE12_M_hash_codeERS8_
FNA:5,12,_ZNKSt8__detail15_Hash_code_baseINSt7__cxx1112basic_stringIcSt11char_traitsIcESaIcEEESt4pairIKS6_St13unordered_mapIiiSt4hashIiESt8equal_toIiESaIS7_IKiiEEEENS_10_Select1stESA_IS6_ENS_18_Mod_range_hashingENS_20_Default_ranged_hashELb1EE12_M_hash_codeERS8_
FNA:5,9,_ZNKSt8__detail15_Hash_code_baseINSt7__cxx1112basic_stringIcSt11char_traitsIcESaIcEEESt4pairIKS6_iENS_10_Select1stESt4hashIS6_ENS_18_Mod_range_hashingENS_20_Default_ranged_hashELb1EE12_M_hash_codeERS8_
FNA:5,10,_ZNKSt8__detail15_Hash_code_baseIiSt4pairIKiiENS_10_Select1stESt4hashIiENS_18_Mod_range_hashingENS_20_Default_ranged_hashELb0EE12_M_hash_codeERS2_
FNL:6,1358,1359
FNA:6,11,_ZNKSt8__detail15_Hash_code_baseINSt7__cxx1112basic_stringIcSt11char_traitsIcESaIcEEESt4pairIKS6_S6_ENS_10_Select1stESt4hashIS6_ENS_18_Mod_range_hashingENS_20_Default_ranged_hashELb1EE15_M_bucket_indexEmm
FNA:6,13,_ZNKSt8__detail15_Hash_code_baseINSt7__cxx1112basic_stringIcSt11char_traitsIcESaIcEEESt4pairIKS6_St13unordered_mapIiiSt4hashIiESt8equal_toIiESaIS7_IKiiEEEENS_10_Select1stESA_IS6_ENS_18_Mod_range_hashingENS_20_Default_ranged_hashELb1EE15_M_bucket_indexEmm
FNA:6,10,_ZNKSt8__detail15_Hash_code_baseINSt7__cxx1112basic_stringIcSt11char_traitsIcESaIcEEESt4pairIKS6_iENS_10_Select1stESt4hashIS6_ENS_18_Mod_range_hashingENS_20_Default_ranged_hashELb1EE15_M_bucket_indexEmm
FNA:6,12,_ZNKSt8__detail15_Hash_code_baseIiSt4pairIKiiENS_10_Select1stESt4hashIiENS_18_Mod_range_hashingENS_20_Default_ranged_hashELb0EE15_M_bucket_indexEmm
FNL:7,1362,1370
FNA:7,1,_ZNKSt8__detail15_Hash_code_baseIiSt4pairIKiiENS_10_Select1stESt4hashIiENS_18_Mod_range_hashingENS_20_Default_ranged_hashELb0EE15_M_bucket_indexERKNS_16_Hash_node_valueIS3_Lb0EEEm
FNL:8,1373,1377
FNA:8,14,_ZNKSt8__detail15_Hash_code_baseINSt7__cxx1112basic_stringIcSt11char_traitsIcESaIcEEESt4pairIKS6_S6_ENS_10_Select1stESt4hashIS6_ENS_18_Mod_range_hashingENS_20_Default_ranged_hashELb1EE15_M_bucket_indexERKNS_16_Hash_node_valueIS9_Lb1EEEm
FNA:8,2,_ZNKSt8__detail15_Hash_code_baseINSt7__cxx1112basic_stringIcSt11char_traitsIcESaIcEEESt4pairIKS6_St13unordered_mapIiiSt4hashIiESt8equal_toIiESaIS7_IKiiEEEENS_10_Select1stESA_IS6_ENS_18_Mod_range_hashingENS_20_Default_ranged_hashELb1EE15_M_bucket_indexERKNS_16_Hash_node_valueISI_Lb1EEEm
FNA:8,2,_ZNKSt8__detail15_Hash_code_baseINSt7__cxx1112basic_stringIcSt11char_traitsIcESaIcEEESt4pairIKS6_iENS_10_Select1stESt4hashIS6_ENS_18_Mod_range_hashingENS_20_Default_ranged_hashELb1EE15_M_bucket_indexERKNS_16_Hash_node_valueIS9_Lb1EEEm
FNL:9,1380,1381
FNA:9,4,_ZNKSt8__detail15_Hash_code_baseIiSt4pairIKiiENS_10_Select1stESt4hashIiENS_18_Mod_range_hashingENS_20_Default_ranged_hashELb0EE13_M_store_codeERNS_21_Hash_node_code_cacheILb0EEEm
FNL:10,1389,1390
FNA:10,10,_ZNKSt8__detail15_Hash_code_baseINSt7__cxx1112basic_stringIcSt11char_traitsIcESaIcEEESt4pairIKS6_S6_ENS_10_Select1stESt4hashIS6_ENS_18_Mod_range_hashingENS_20_Default_ranged_hashELb1EE13_M_store_codeERNS_21_Hash_node_code_cacheILb1EEEm
FNA:10,3,_ZNKSt8__detail15_Hash_code_baseINSt7__cxx1112basic_stringIcSt11char_traitsIcESaIcEEESt4pairIKS6_St13unordered_mapIiiSt4hashIiESt8equal_toIiESaIS7_IKiiEEEENS_10_Select1stESA_IS6_ENS_18_Mod_range_hashingENS_20_Default_ranged_hashELb1EE13_M_store_codeERNS_21_Hash_node_code_cacheILb1EEEm
FNA:10,3,_ZNKSt8__detail15_Hash_code_baseINSt7__cxx1112basic_stringIcSt11char_traitsIcESaIcEEESt4pairIKS6_iENS_10_Select1stESt4hashIS6_ENS_18_Mod_range_hashingENS_20_Default_ranged_hashELb1EE13_M_store_codeERNS_21_Hash_node_code_cacheILb1EEEm
FNL:11,1402,1402
FNA:11,10,_ZNKSt8__detail15_Hash_code_baseINSt7__cxx1112basic_stringIcSt11char_traitsIcESaIcEEESt4pairIKS6_S6_ENS_10_Select1stESt4hashIS6_ENS_18_Mod_range_hashingENS_20_Default_ranged_hashELb1EE7_M_hashEv
FNA:11,12,_ZNKSt8__detail15_Hash_code_baseINSt7__cxx1112basic_stringIcSt11char_traitsIcESaIcEEESt4pairIKS6_St13unordered_mapIiiSt4hashIiESt8equal_toIiESaIS7_IKiiEEEENS_10_Select1stESA_IS6_ENS_18_Mod_range_hashingENS_20_Default_ranged_hashELb1EE7_M_hashEv
FNA:11,9,_ZNKSt8__detail15_Hash_code_baseINSt7__cxx1112basic_stringIcSt11char_traitsIcESaIcEEESt4pairIKS6_iENS_10_Select1stESt4hashIS6_ENS_18_Mod_range_hashingENS_20_Default_ranged_hashELb1EE7_M_hashEv
FNA:11,10,_ZNKSt8__detail15_Hash_code_baseIiSt4pairIKiiENS_10_Select1stESt4hashIiENS_18_Mod_range_hashingENS_20_Default_ranged_hashELb0EE7_M_hashEv
FNL:12,1710,1711
FNA:12,5,_ZNSt8__detail15_Hashtable_baseIiSt4pairIKiiENS_10_Select1stESt8equal_toIiESt4hashIiENS_18_Mod_range_hashingENS_20_Default_ranged_hashENS_17_Hashtable_traitsILb0ELb0ELb1EEEE9_S_equalsEmRKNS_21_Hash_node_code_cacheILb0EEE
FNL:13,1719,1720
FNA:13,0,_ZNSt8__detail15_Hashtable_baseINSt7__cxx1112basic_stringIcSt11char_traitsIcESaIcEEESt4pairIKS6_S6_ENS_10_Select1stESt8equal_toIS6_ESt4hashIS6_ENS_18_Mod_range_hashingENS_20_Default_ranged_hashENS_17_Hashtable_traitsILb1ELb0ELb1EEEE9_S_equalsEmRKNS_21_Hash_node_code_cacheILb1EEE
FNA:13,9,_ZNSt8__detail15_Hashtable_baseINSt7__cxx1112basic_stringIcSt11char_traitsIcESaIcEEESt4pairIKS6_St13unordered_mapIiiSt4hashIiESt8equal_toIiESaIS7_IKiiEEEENS_10_Select1stESC_IS6_ESA_IS6_ENS_18_Mod_range_hashingENS_20_Default_ranged_hashENS_17_Hashtable_traitsILb1ELb0ELb1EEEE9_S_equalsEmRKNS_21_Hash_node_code_cacheILb1EEE
FNA:13,6,_ZNSt8__detail15_Hashtable_baseINSt7__cxx1112basic_stringIcSt11char_traitsIcESaIcEEESt4pairIKS6_iENS_10_Select1stESt8equal_toIS6_ESt4hashIS6_ENS_18_Mod_range_hashingENS_20_Default_ranged_hashENS_17_Hashtable_traitsILb1ELb0ELb1EEEE9_S_equalsEmRKNS_21_Hash_node_code_cacheILb1EEE
FNL:14,1728,1728
FNA:14,1,_ZNSt8__detail15_Hashtable_baseINSt7__cxx1112basic_stringIcSt11char_traitsIcESaIcEEESt4pairIKS6_S6_ENS_10_Select1stESt8equal_toIS6_ESt4hashIS6_ENS_18_Mod_range_hashingENS_20_Default_ranged_hashENS_17_Hashtable_traitsILb1ELb0ELb1EEEEC2Ev
FNA:14,1,_ZNSt8__detail15_Hashtable_baseINSt7__cxx1112basic_stringIcSt11char_traitsIcESaIcEEESt4pairIKS6_St13unordered_mapIiiSt4hashIiESt8equal_toIiESaIS7_IKiiEEEENS_10_Select1stESC_IS6_ESA_IS6_ENS_18_Mod_range_hashingENS_20_Default_ranged_hashENS_17_Hashtable_traitsILb1ELb0ELb1EEEEC2Ev
FNA:14,1,_ZNSt8__detail15_Hashtable_baseINSt7__cxx1112basic_stringIcSt11char_traitsIcESaIcEEESt4pairIKS6_iENS_10_Select1stESt8equal_toIS6_ESt4hashIS6_ENS_18_Mod_range_hashingENS_20_Default_ranged_hashENS_17_Hashtable_traitsILb1ELb0ELb1EEEEC2Ev
FNA:14,3,_ZNSt8__detail15_Hashtable_baseIiSt4pairIKiiENS_10_Select1stESt8equal_toIiESt4hashIiENS_18_Mod_range_hashingENS_20_Default_ranged_hashENS_17_Hashtable_traitsILb0ELb0ELb1EEEEC2Ev
FNL:15,1735,1743
FNA:15,28,_ZNKSt8__detail15_Hashtable_baseINSt7__cxx1112basic_stringIcSt11char_traitsIcESaIcEEESt4pairIKS6_S6_ENS_10_Select1stESt8equal_toIS6_ESt4hashIS6_ENS_18_Mod_range_hashingENS_20_Default_ranged_hashENS_17_Hashtable_traitsILb1ELb0ELb1EEEE13_M_key_equalsERS8_RKNS_16_Hash_node_valueIS9_Lb1EEE
FNA:15,9,_ZNKSt8__detail15_Hashtable_baseINSt7__cxx1112basic_stringIcSt11char_traitsIcESaIcEEESt4pairIKS6_St13unordered_mapIiiSt4hashIiESt8equal_toIiESaIS7_IKiiEEEENS_10_Select1stESC_IS6_ESA_IS6_ENS_18_Mod_range_hashingENS_20_Default_ranged_hashENS_17_Hashtable_traitsILb1ELb0ELb1EEEE13_M_key_equalsERS8_RKNS_16_Hash_node_valueISI_Lb1EEE
FNA:15,6,_ZNKSt8__detail15_Hashtable_baseINSt7__cxx1112basic_stringIcSt11char_traitsIcESaIcEEESt4pairIKS6_iENS_10_Select1stESt8equal_toIS6_ESt4hashIS6_ENS_18_Mod_range_hashingENS_20_Default_ranged_hashENS_17_Hashtable_traitsILb1ELb0ELb1EEEE13_M_key_equalsERS8_RKNS_16_Hash_node_valueIS9_Lb1EEE
FNA:15,5,_ZNKSt8__detail15_Hashtable_baseIiSt4pairIKiiENS_10_Select1stESt8equal_toIiESt4hashIiENS_18_Mod_range_hashingENS_20_Default_ranged_hashENS_17_Hashtable_traitsILb0ELb0ELb1EEEE13_M_key_equalsERS2_RKNS_16_Hash_node_valueIS3_Lb0EEE
FNL:16,1759,1761
FNA:16,0,_ZNKSt8__detail15_Hashtable_baseINSt7__cxx1112basic_stringIcSt11char_traitsIcESaIcEEESt4pairIKS6_S6_ENS_10_Select1stESt8equal_toIS6_ESt4hashIS6_ENS_18_Mod_range_hashingENS_20_Default_ranged_hashENS_17_Hashtable_traitsILb1ELb0ELb1EEEE9_M_equalsERS8_mRKNS_16_Hash_node_valueIS9_Lb1EEE
FNA:16,9,_ZNKSt8__detail15_Hashtable_baseINSt7__cxx1112basic_stringIcSt11char_traitsIcESaIcEEESt4pairIKS6_St13unordered_mapIiiSt4hashIiESt8equal_toIiESaIS7_IKiiEEEENS_10_Select1stESC_IS6_ESA_IS6_ENS_18_Mod_range_hashingENS_20_Default_ranged_hashENS_17_Hashtable_traitsILb1ELb0ELb1EEEE9_M_equalsERS8_mRKNS_16_Hash_node_valueISI_Lb1EEE
FNA:16,6,_ZNKSt8__detail15_Hashtable_baseINSt7__cxx1112basic_stringIcSt11char_traitsIcESaIcEEESt4pairIKS6_iENS_10_Select1stESt8equal_toIS6_ESt4hashIS6_ENS_18_Mod_range_hashingENS_20_Default_ranged_hashENS_17_Hashtable_traitsILb1ELb0ELb1EEEE9_M_equalsERS8_mRKNS_16_Hash_node_valueIS9_Lb1EEE
FNA:16,5,_ZNKSt8__detail15_Hashtable_baseIiSt4pairIKiiENS_10_Select1stESt8equal_toIiESt4hashIiENS_18_Mod_range_hashingENS_20_Default_ranged_hashENS_17_Hashtable_traitsILb0ELb0ELb1EEEE9_M_equalsERS2_mRKNS_16_Hash_node_valueIS3_Lb0EEE
FNL:17,1787,1787
FNA:17,28,_ZNKSt8__detail15_Hashtable_baseINSt7__cxx1112basic_stringIcSt11char_traitsIcESaIcEEESt4pairIKS6_S6_ENS_10_Select1stESt8equal_toIS6_ESt4hashIS6_ENS_18_Mod_range_hashingENS_20_Default_ranged_hashENS_17_Hashtable_traitsILb1ELb0ELb1EEEE5_M_eqEv
FNA:17,9,_ZNKSt8__detail15_Hashtable_baseINSt7__cxx1112basic_stringIcSt11char_traitsIcESaIcEEESt4pairIKS6_St13unordered_mapIiiSt4hashIiESt8equal_toIiESaIS7_IKiiEEEENS_10_Select1stESC_IS6_ESA_IS6_ENS_18_Mod_range_hashingENS_20_Default_ranged_hashENS_17_Hashtable_traitsILb1ELb0ELb1EEEE5_M_eqEv
FNA:17,6,_ZNKSt8__detail15_Hashtable_baseINSt7__cxx1112basic_stringIcSt11char_traitsIcESaIcEEESt4pairIKS6_iENS_10_Select1stESt8equal_toIS6_ESt4hashIS6_ENS_18_Mod_range_hashingENS_20_Default_ranged_hashENS_17_Hashtable_traitsILb1ELb0ELb1EEEE5_M_eqEv
FNA:17,5,_ZNKSt8__detail15_Hashtable_baseIiSt4pairIKiiENS_10_Select1stESt8equal_toIiESt4hashIiENS_18_Mod_range_hashingENS_20_Default_ranged_hashENS_17_Hashtable_traitsILb0ELb0ELb1EEEE5_M_eqEv
FNL:18,1970,1970
FNA:18,1,_ZNSt8__detail16_Hashtable_allocISaINS_10_Hash_nodeISt4pairIKNSt7__cxx1112basic_stringIcSt11char_traitsIcESaIcEEES8_ELb1EEEEEC2Ev
FNA:18,1,_ZNSt8__detail16_Hashtable_allocISaINS_10_Hash_nodeISt4pairIKNSt7__cxx1112basic_stringIcSt11char_traitsIcESaIcEEESt13unordered_mapIiiSt4hashIiESt8equal_toIiESaIS2_IKiiEEEELb1EEEEEC2Ev
FNA:18,1,_ZNSt8__detail16_Hashtable_allocISaINS_10_Hash_nodeISt4pairIKNSt7__cxx1112basic_stringIcSt11char_traitsIcESaIcEEEiELb1EEEEEC2Ev
FNA:18,3,_ZNSt8__detail16_Hashtable_allocISaINS_10_Hash_nodeISt4pairIKiiELb0EEEEEC2Ev
FNL:19,1980,1981
FNA:19,32,_ZNSt8__detail16_Hashtable_allocISaINS_10_Hash_nodeISt4pairIKNSt7__cxx1112basic_stringIcSt11char_traitsIcESaIcEEES8_ELb1EEEEE17_M_node_allocatorEv
FNA:19,11,_ZNSt8__detail16_Hashtable_allocISaINS_10_Hash_nodeISt4pairIKNSt7__cxx1112basic_stringIcSt11char_traitsIcESaIcEEESt13unordered_mapIiiSt4hashIiESt8equal_toIiESaIS2_IKiiEEEELb1EEEEE17_M_node_allocatorEv
FNA:19,11,_ZNSt8__detail16_Hashtable_allocISaINS_10_Hash_nodeISt4pairIKNSt7__cxx1112basic_stringIcSt11char_traitsIcESaIcEEEiELb1EEEEE17_M_node_allocatorEv
FNA:19,18,_ZNSt8__detail16_Hashtable_allocISaINS_10_Hash_nodeISt4pairIKiiELb0EEEEE17_M_node_allocatorEv
FNL:20,2017,2036
FNA:20,10,_ZNSt8__detail16_Hashtable_allocISaINS_10_Hash_nodeISt4pairIKNSt7__cxx1112basic_stringIcSt11char_traitsIcESaIcEEES8_ELb1EEEEE16_M_allocate_nodeIJRKSt21piecewise_construct_tSt5tupleIJRS9_EESI_IJEEEEEPSB_DpOT_
FNA:20,3,_ZNSt8__detail16_Hashtable_allocISaINS_10_Hash_nodeISt4pairIKNSt7__cxx1112basic_stringIcSt11char_traitsIcESaIcEEESt13unordered_mapIiiSt4hashIiESt8equal_toIiESaIS2_IKiiEEEELb1EEEEE16_M_allocate_nodeIJRKSt21piecewise_construct_tSt5tupleIJRS9_EESR_IJEEEEEPSK_DpOT_
FNA:20,3,_ZNSt8__detail16_Hashtable_allocISaINS_10_Hash_nodeISt4pairIKNSt7__cxx1112basic_stringIcSt11char_traitsIcESaIcEEEiELb1EEEEE16_M_allocate_nodeIJRKSt21piecewise_construct_tSt5tupleIJRS9_EESI_IJEEEEEPSB_DpOT_
FNA:20,4,_ZNSt8__detail16_Hashtable_allocISaINS_10_Hash_nodeISt4pairIKiiELb0EEEEE16_M_allocate_nodeIJRKSt21piecewise_construct_tSt5tupleIJRS3_EESC_IJEEEEEPS5_DpOT_
FNL:21,2040,2044
FNA:21,10,_ZNSt8__detail16_Hashtable_allocISaINS_10_Hash_nodeISt4pairIKNSt7__cxx1112basic_stringIcSt11char_traitsIcESaIcEEES8_ELb1EEEEE18_M_deallocate_nodeEPSB_
FNA:21,3,_ZNSt8__detail16_Hashtable_allocISaINS_10_Hash_nodeISt4pairIKNSt7__cxx1112basic_stringIcSt11char_traitsIcESaIcEEESt13unordered_mapIiiSt4hashIiESt8equal_toIiESaIS2_IKiiEEEELb1EEEEE18_M_deallocate_nodeEPSK_
FNA:21,3,_ZNSt8__detail16_Hashtable_allocISaINS_10_Hash_nodeISt4pairIKNSt7__cxx1112basic_stringIcSt11char_traitsIcESaIcEEEiELb1EEEEE18_M_deallocate_nodeEPSB_
FNA:21,4,_ZNSt8__detail16_Hashtable_allocISaINS_10_Hash_nodeISt4pairIKiiELb0EEEEE18_M_deallocate_nodeEPS5_
FNL:22,2048,2054
FNA:22,10,_ZNSt8__detail16_Hashtable_allocISaINS_10_Hash_nodeISt4pairIKNSt7__cxx1112basic_stringIcSt11char_traitsIcESaIcEEES8_ELb1EEEEE22_M_deallocate_node_ptrEPSB_
FNA:22,3,_ZNSt8__detail16_Hashtable_allocISaINS_10_Hash_nodeISt4pairIKNSt7__cxx1112basic_stringIcSt11char_traitsIcESaIcEEESt13unordered_mapIiiSt4hashIiESt8equal_toIiESaIS2_IKiiEEEELb1EEEEE22_M_deallocate_node_ptrEPSK_
FNA:22,3,_ZNSt8__detail16_Hashtable_allocISaINS_10_Hash_nodeISt4pairIKNSt7__cxx1112basic_stringIcSt11char_traitsIcESaIcEEEiELb1EEEEE22_M_deallocate_node_ptrEPSB_
FNA:22,4,_ZNSt8__detail16_Hashtable_allocISaINS_10_Hash_nodeISt4pairIKiiELb0EEEEE22_M_deallocate_node_ptrEPS5_
FNL:23,2058,2066
FNA:23,1,_ZNSt8__detail16_Hashtable_allocISaINS_10_Hash_nodeISt4pairIKNSt7__cxx1112basic_stringIcSt11char_traitsIcESaIcEEES8_ELb1EEEEE19_M_deallocate_nodesEPSB_
FNA:23,1,_ZNSt8__detail16_Hashtable_allocISaINS_10_Hash_nodeISt4pairIKNSt7__cxx1112basic_stringIcSt11char_traitsIcESaIcEEESt13unordered_mapIiiSt4hashIiESt8equal_toIiESaIS2_IKiiEEEELb1EEEEE19_M_deallocate_nodesEPSK_
FNA:23,1,_ZNSt8__detail16_Hashtable_allocISaINS_10_Hash_nodeISt4pairIKNSt7__cxx1112basic_stringIcSt11char_traitsIcESaIcEEEiELb1EEEEE19_M_deallocate_nodesEPSB_
FNA:23,3,_ZNSt8__detail16_Hashtable_allocISaINS_10_Hash_nodeISt4pairIKiiELb0EEEEE19_M_deallocate_nodesEPS5_
FNL:24,2070,2079
FNA:24,1,_ZNSt8__detail16_Hashtable_allocISaINS_10_Hash_nodeISt4pairIKNSt7__cxx1112basic_stringIcSt11char_traitsIcESaIcEEES8_ELb1EEEEE19_M_allocate_bucketsEm
FNA:24,1,_ZNSt8__detail16_Hashtable_allocISaINS_10_Hash_nodeISt4pairIKNSt7__cxx1112basic_stringIcSt11char_traitsIcESaIcEEESt13unordered_mapIiiSt4hashIiESt8equal_toIiESaIS2_IKiiEEEELb1EEEEE19_M_allocate_bucketsEm
FNA:24,1,_ZNSt8__detail16_Hashtable_allocISaINS_10_Hash_nodeISt4pairIKNSt7__cxx1112basic_stringIcSt11char_traitsIcESaIcEEEiELb1EEEEE19_M_allocate_bucketsEm
FNA:24,3,_ZNSt8__detail16_Hashtable_allocISaINS_10_Hash_nodeISt4pairIKiiELb0EEEEE19_M_allocate_bucketsEm
FNL:25,2083,2091
FNA:25,1,_ZNSt8__detail16_Hashtable_allocISaINS_10_Hash_nodeISt4pairIKNSt7__cxx1112basic_stringIcSt11char_traitsIcESaIcEEES8_ELb1EEEEE21_M_deallocate_bucketsEPPNS_15_Hash_node_baseEm
FNA:25,1,_ZNSt8__detail16_Hashtable_allocISaINS_10_Hash_nodeISt4pairIKNSt7__cxx1112basic_stringIcSt11char_traitsIcESaIcEEESt13unordered_mapIiiSt4hashIiESt8equal_toIiESaIS2_IKiiEEEELb1EEEEE21_M_deallocate_bucketsEPPNS_15_Hash_node_baseEm
FNA:25,1,_ZNSt8__detail16_Hashtable_allocISaINS_10_Hash_nodeISt4pairIKNSt7__cxx1112basic_stringIcSt11char_traitsIcESaIcEEEiELb1EEEEE21_M_deallocate_bucketsEPPNS_15_Hash_node_baseEm
FNA:25,3,_ZNSt8__detail16_Hashtable_allocISaINS_10_Hash_nodeISt4pairIKiiELb0EEEEE21_M_deallocate_bucketsEPPNS_15_Hash_node_baseEm
FNL:26,303,304
FNA:26,28,_ZNSt8__detail22_Hashtable_hash_traitsISt4hashINSt7__cxx1112basic_stringIcSt11char_traitsIcESaIcEEEEE22__small_size_thresholdEv
FNL:27,319,319
FNA:27,26,_ZNSt8__detail15_Hash_node_baseC2Ev
FNL:28,386,387
FNA:28,34,_ZNKSt8__detail10_Hash_nodeISt4pairIKNSt7__cxx1112basic_stringIcSt11char_traitsIcESaIcEEES7_ELb1EE7_M_nextEv
FNA:28,5,_ZNKSt8__detail10_Hash_nodeISt4pairIKNSt7__cxx1112basic_stringIcSt11char_traitsIcESaIcEEESt13unordered_mapIiiSt4hashIiESt8equal_toIiESaIS1_IKiiEEEELb1EE7_M_nextEv
FNA:28,8,_ZNKSt8__detail10_Hash_nodeISt4pairIKNSt7__cxx1112basic_stringIcSt11char_traitsIcESaIcEEEiELb1EE7_M_nextEv
FNA:28,9,_ZNKSt8__detail10_Hash_nodeISt4pairIKiiELb0EE7_M_nextEv
FNL:29,399,400
FNA:29,57,_ZNSt8__detail19_Node_iterator_baseISt4pairIKNSt7__cxx1112basic_stringIcSt11char_traitsIcESaIcEEES7_ELb1EEC2EPNS_10_Hash_nodeIS9_Lb1EEE
FNA:29,3,_ZNSt8__detail19_Node_iterator_baseISt4pairIKNSt7__cxx1112basic_stringIcSt11char_traitsIcESaIcEEESt13unordered_mapIiiSt4hashIiESt8equal_toIiESaIS1_IKiiEEEELb1EEC2EPNS_10_Hash_nodeISI_Lb1EEE
FNA:29,5,_ZNSt8__detail19_Node_iterator_baseISt4pairIKNSt7__cxx1112basic_stringIcSt11char_traitsIcESaIcEEEiELb1EEC2EPNS_10_Hash_nodeIS9_Lb1EEE
FNA:29,10,_ZNSt8__detail19_Node_iterator_baseISt4pairIKiiELb0EEC2EPNS_10_Hash_nodeIS3_Lb0EEE
FNL:30,403,404
FNA:30,3,_ZNSt8__detail19_Node_iterator_baseISt4pairIKNSt7__cxx1112basic_stringIcSt11char_traitsIcESaIcEEEiELb1EE7_M_incrEv
FNA:30,4,_ZNSt8__detail19_Node_iterator_baseISt4pairIKiiELb0EE7_M_incrEv
FNL:31,407,409
FNA:31,19,_ZNSt8__detaileqERKNS_19_Node_iterator_baseISt4pairIKNSt7__cxx1112basic_stringIcSt11char_traitsIcESaIcEEES7_ELb1EEESC_
FNA:31,4,_ZNSt8__detaileqERKNS_19_Node_iterator_baseISt4pairIKNSt7__cxx1112basic_stringIcSt11char_traitsIcESaIcEEEiELb1EEESC_
FNA:31,7,_ZNSt8__detaileqERKNS_19_Node_iterator_baseISt4pairIKiiELb0EEES6_
FNL:32,442,443
FNA:32,57,_ZNSt8__detail14_Node_iteratorISt4pairIKNSt7__cxx1112basic_stringIcSt11char_traitsIcESaIcEEES7_ELb0ELb1EEC2EPNS_10_Hash_nodeIS9_Lb1EEE
FNA:32,3,_ZNSt8__detail14_Node_iteratorISt4pairIKNSt7__cxx1112basic_stringIcSt11char_traitsIcESaIcEEESt13unordered_mapIiiSt4hashIiESt8equal_toIiESaIS1_IKiiEEEELb0ELb1EEC2EPNS_10_Hash_nodeISI_Lb1EEE
FNA:32,5,_ZNSt8__detail14_Node_iteratorISt4pairIKNSt7__cxx1112basic_stringIcSt11char_traitsIcESaIcEEEiELb0ELb1EEC2EPNS_10_Hash_nodeIS9_Lb1EEE
FNA:32,10,_ZNSt8__detail14_Node_iteratorISt4pairIKiiELb0ELb0EEC2EPNS_10_Hash_nodeIS3_Lb0EEE
FNL:33,446,447
FNA:33,3,_ZNKSt8__detail14_Node_iteratorISt4pairIKNSt7__cxx1112basic_stringIcSt11char_traitsIcESaIcEEEiELb0ELb1EEdeEv
FNA:33,4,_ZNKSt8__detail14_Node_iteratorISt4pairIKiiELb0ELb0EEdeEv
FNL:34,450,451
FNA:34,10,_ZNKSt8__detail14_Node_iteratorISt4pairIKNSt7__cxx1112basic_stringIcSt11char_traitsIcESaIcEEES7_ELb0ELb1EEptEv
FNA:34,3,_ZNKSt8__detail14_Node_iteratorISt4pairIKNSt7__cxx1112basic_stringIcSt11char_traitsIcESaIcEEESt13unordered_mapIiiSt4hashIiESt8equal_toIiESaIS1_IKiiEEEELb0ELb1EEptEv
FNA:34,3,_ZNKSt8__detail14_Node_iteratorISt4pairIKNSt7__cxx1112basic_stringIcSt11char_traitsIcESaIcEEEiELb0ELb1EEptEv
FNA:34,4,_ZNKSt8__detail14_Node_iteratorISt4pairIKiiELb0ELb0EEptEv
FNL:35,454,458
FNA:35,3,_ZNSt8__detail14_Node_iteratorISt4pairIKNSt7__cxx1112basic_stringIcSt11char_traitsIcESaIcEEEiELb0ELb1EEppEv
FNA:35,4,_ZNSt8__detail14_Node_iteratorISt4pairIKiiELb0ELb0EEppEv
FNL:36,532,534
FNA:36,65,_ZNKSt8__detail18_Mod_range_hashingclEmm
FNL:37,550,551
FNA:37,6,_ZNSt8__detail20_Prime_rehash_policyC2Ef
FNL:38,577,578
FNA:38,20,_ZNKSt8__detail20_Prime_rehash_policy8_M_stateEv
FNL:39,585,586
FNA:39,0,_ZNSt8__detail20_Prime_rehash_policy8_M_resetEm
FNL:40,730,733
FNA:40,20,_ZNSt8__detail17_RehashStateGuardINS_20_Prime_rehash_policyEEC2ERS1_
FNL:41,736,740
FNA:41,20,_ZNSt8__detail17_RehashStateGuardINS_20_Prime_rehash_policyEED2Ev
FNL:42,832,853
FNA:42,10,_ZNSt8__detail9_Map_baseINSt7__cxx1112basic_stringIcSt11char_traitsIcESaIcEEESt4pairIKS6_S6_ESaIS9_ENS_10_Select1stESt8equal_toIS6_ESt4hashIS6_ENS_18_Mod_range_hashingENS_20_Default_ranged_hashENS_20_Prime_rehash_policyENS_17_Hashtable_traitsILb1ELb0ELb1EEELb1EEixERS8_
FNA:42,12,_ZNSt8__detail9_Map_baseINSt7__cxx1112basic_stringIcSt11char_traitsIcESaIcEEESt4pairIKS6_St13unordered_mapIiiSt4hashIiESt8equal_toIiESaIS7_IKiiEEEESaISI_ENS_10_Select1stESC_IS6_ESA_IS6_ENS_18_Mod_range_hashingENS_20_Default_ranged_hashENS_20_Prime_rehash_policyENS_17_Hashtable_traitsILb1ELb0ELb1EEELb1EEixERS8_
FNA:42,9,_ZNSt8__detail9_Map_baseINSt7__cxx1112basic_stringIcSt11char_traitsIcESaIcEEESt4pairIKS6_iESaIS9_ENS_10_Select1stESt8equal_toIS6_ESt4hashIS6_ENS_18_Mod_range_hashingENS_20_Default_ranged_hashENS_20_Prime_rehash_policyENS_17_Hashtable_traitsILb1ELb0ELb1EEELb1EEixERS8_
FNA:42,9,_ZNSt8__detail9_Map_baseIiSt4pairIKiiESaIS3_ENS_10_Select1stESt8equal_toIiESt4hashIiENS_18_Mod_range_hashingENS_20_Default_ranged_hashENS_20_Prime_rehash_policyENS_17_Hashtable_traitsILb0ELb0ELb1EEELb1EEixERS2_
FNF:43
FNH:42
DA:112,49
DA:113,49
DA:303,28
DA:304,28
DA:319,26
DA:339,87
DA:344,49
DA:349,27
DA:354,49
DA:386,56
DA:387,56
DA:399,75
DA:400,75
DA:403,7
DA:404,7
DA:407,30
DA:409,30
DA:442,75
DA:443,75
DA:446,7
DA:447,14
DA:450,20
DA:451,40
DA:454,7
DA:456,7
DA:457,7
DA:532,65
DA:534,65
DA:550,6
DA:551,6
DA:577,20
DA:578,20
DA:585,0
DA:586,0
DA:730,20
DA:731,20
DA:732,20
DA:733,20
DA:736,20
DA:738,20
DA:739,0
DA:740,20
DA:832,40
DA:837,40
DA:838,40
DA:839,40
DA:840,40
DA:841,40
DA:843,20
DA:846,20
DA:847,0
DA:850,20
DA:851,20
DA:852,20
DA:853,20
DA:1245,18
DA:1252,89
DA:1253,72
DA:1328,6
DA:1333,41
DA:1337,41
DA:1358,46
DA:1359,46
DA:1362,1
DA:1368,3
DA:1369,1
DA:1373,18
DA:1377,18
DA:1380,4
DA:1381,4
DA:1389,16
DA:1390,16
DA:1402,41
DA:1710,5
DA:1711,5
DA:1719,15
DA:1720,15
DA:1728,6
DA:1735,48
DA:1742,96
DA:1759,20
DA:1761,20
DA:1787,48
DA:1970,6
DA:1980,72
DA:1981,72
DA:2017,20
DA:2020,20
DA:2021,20
DA:2022,20
DA:2025,20
DA:2026,40
DA:2028,20
DA:2030,0
DA:2032,0
DA:2034,0
DA:2040,20
DA:2042,40
DA:2043,20
DA:2044,20
DA:2048,20
DA:2051,20
DA:2052,20
DA:2053,20
DA:2054,20
DA:2058,6
DA:2060,17
DA:2062,11
DA:2063,11
DA:2064,11
DA:2066,6
DA:2070,6
DA:2073,6
DA:2075,6
DA:2076,6
DA:2077,6
DA:2078,12
DA:2083,6
DA:2088,6
DA:2089,6
DA:2091,6
LF:121
LH:114
end_of_record
TN:
SF:/usr/include/c++/14/bits/ios_base.h
FNL:0,139,140
FNA:0,20,_ZStorSt13_Ios_OpenmodeS_
FNF:1
FNH:1
DA:139,20
DA:140,20
LF:2
LH:2
end_of_record
TN:
SF:/usr/include/c++/14/bits/move.h
FNL:0,137,138
FNA:0,1,_ZSt4moveIRN9__gnu_cxx5__ops15_Iter_comp_iterIZ4mainEUlRT_RT0_E_EEEONSt16remove_referenceIS3_E4typeEOS3_
FNA:0,78,_ZSt4moveIRNSt7__cxx1112basic_stringIcSt11char_traitsIcESaIcEEEEONSt16remove_referenceIT_E4typeEOS8_
FNA:0,433,_ZSt4moveIRSaIcEEONSt16remove_referenceIT_E4typeEOS3_
FNA:0,12,_ZSt4moveIRSt4pairINSt7__cxx1112basic_stringIcSt11char_traitsIcESaIcEEEiEEONSt16remove_referenceIT_E4typeEOSA_
FNA:0,6,_ZSt4moveIRSt5tupleIJNSt7__cxx1112basic_stringIcSt11char_traitsIcESaIcEEEiS6_EEEONSt16remove_referenceIT_E4typeEOSA_
FNA:0,3,_ZSt4moveIRZ4mainEUlRT_RT0_E_EONSt16remove_referenceIS0_E4typeEOS0_
FNA:0,0,_ZSt4moveIRiEONSt16remove_referenceIT_E4typeEOS2_
FNL:1,175,176
FNA:1,588,_ZSt9addressofIKcEPT_RS1_
FNA:1,10,_ZSt9addressofINSt8__detail10_Hash_nodeISt4pairIKNSt7__cxx1112basic_stringIcSt11char_traitsIcESaIcEEES8_ELb1EEEEPT_RSC_
FNA:1,3,_ZSt9addressofINSt8__detail10_Hash_nodeISt4pairIKNSt7__cxx1112basic_stringIcSt11char_traitsIcESaIcEEESt13unordered_mapIiiSt4hashIiESt8equal_toIiESaIS2_IKiiEEEELb1EEEEPT_RSL_
FNA:1,3,_ZSt9addressofINSt8__detail10_Hash_nodeISt4pairIKNSt7__cxx1112basic_stringIcSt11char_traitsIcESaIcEEEiELb1EEEEPT_RSC_
FNA:1,4,_ZSt9addressofINSt8__detail10_Hash_nodeISt4pairIKiiELb0EEEEPT_RS6_
FNA:1,6,_ZSt9addressofIPNSt8__detail15_Hash_node_baseEEPT_RS3_
FNA:1,449,_ZSt9addressofIcEPT_RS0_
FNL:2,226,237
FNA:2,0,_ZSt4swapIiENSt9enable_ifIXsrSt6__and_IJSt6__not_ISt15__is_tuple_likeIT_EESt21is_move_constructibleIS4_ESt18is_move_assignableIS4_EEE5valueEvE4typeERS4_SE_
FNL:3,51,52
FNA:3,10,_ZSt11__addressofIKNSt7__cxx1112basic_stringIcSt11char_traitsIcESaIcEEEEPT_RS7_
FNA:3,588,_ZSt11__addressofIKcEPT_RS1_
FNA:3,237,_ZSt11__addressofINSt7__cxx1112basic_stringIcSt11char_traitsIcESaIcEEEEPT_RS6_
FNA:3,10,_ZSt11__addressofINSt8__detail10_Hash_nodeISt4pairIKNSt7__cxx1112basic_stringIcSt11char_traitsIcESaIcEEES8_ELb1EEEEPT_RSC_
FNA:3,3,_ZSt11__addressofINSt8__detail10_Hash_nodeISt4pairIKNSt7__cxx1112basic_stringIcSt11char_traitsIcESaIcEEESt13unordered_mapIiiSt4hashIiESt8equal_toIiESaIS2_IKiiEEEELb1EEEEPT_RSL_
FNA:3,3,_ZSt11__addressofINSt8__detail10_Hash_nodeISt4pairIKNSt7__cxx1112basic_stringIcSt11char_traitsIcESaIcEEEiELb1EEEEPT_RSC_
FNA:3,4,_ZSt11__addressofINSt8__detail10_Hash_nodeISt4pairIKiiELb0EEEEPT_RS6_
FNA:3,20,_ZSt11__addressofINSt8__detail20_Prime_rehash_policyEEPT_RS2_
FNA:3,6,_ZSt11__addressofIPNSt8__detail15_Hash_node_baseEEPT_RS3_
FNA:3,12,_ZSt11__addressofISt4pairINSt7__cxx1112basic_stringIcSt11char_traitsIcESaIcEEEiEEPT_RS8_
FNA:3,12,_ZSt11__addressofISt5tupleIJNSt7__cxx1112basic_stringIcSt11char_traitsIcESaIcEEEiS6_EEEPT_RS8_
FNA:3,449,_ZSt11__addressofIcEPT_RS0_
FNL:4,71,72
FNA:4,120,_ZSt7forwardINSt7__cxx1112basic_stringIcSt11char_traitsIcESaIcEEEEOT_RNSt16remove_referenceIS6_E4typeE
FNA:4,196,_ZSt7forwardIRKNSt7__cxx1112basic_stringIcSt11char_traitsIcESaIcEEEEOT_RNSt16remove_referenceIS8_E4typeE
FNA:4,80,_ZSt7forwardIRKSt21piecewise_construct_tEOT_RNSt16remove_referenceIS3_E4typeE
FNA:4,28,_ZSt7forwardIRKSt4pairIKNSt7__cxx1112basic_stringIcSt11char_traitsIcESaIcEEES6_EEOT_RNSt16remove_referenceISB_E4typeE
FNA:4,9,_ZSt7forwardIRKSt4pairIKNSt7__cxx1112basic_stringIcSt11char_traitsIcESaIcEEESt13unordered_mapIiiSt4hashIiESt8equal_toIiESaIS0_IKiiEEEEEOT_RNSt16remove_referenceISK_E4typeE
FNA:4,6,_ZSt7forwardIRKSt4pairIKNSt7__cxx1112basic_stringIcSt11char_traitsIcESaIcEEEiEEOT_RNSt16remove_referenceISB_E4typeE
FNA:4,6,_ZSt7forwardIRKSt4pairIKiiEEOT_RNSt16remove_referenceIS5_E4typeE
FNA:4,0,_ZSt7forwardIRKcEOT_RNSt16remove_referenceIS2_E4typeE
FNA:4,4,_ZSt7forwardIRKiEOT_RNSt16remove_referenceIS2_E4typeE
FNA:4,24,_ZSt7forwardIRNSt7__cxx1112basic_stringIcSt11char_traitsIcESaIcEEEEOT_RNSt16remove_referenceIS7_E4typeE
FNA:4,15,_ZSt7forwardIRiEOT_RNSt16remove_referenceIS1_E4typeE
FNA:4,18,_ZSt7forwardISt4pairINSt7__cxx1112basic_stringIcSt11char_traitsIcESaIcEEEiEEOT_RNSt16remove_referenceIS8_E4typeE
FNA:4,80,_ZSt7forwardISt5tupleIJEEEOT_RNSt16remove_referenceIS2_E4typeE
FNA:4,18,_ZSt7forwardISt5tupleIJNSt7__cxx1112basic_stringIcSt11char_traitsIcESaIcEEEiS6_EEEOT_RNSt16remove_referenceIS8_E4typeE
FNA:4,64,_ZSt7forwardISt5tupleIJRKNSt7__cxx1112basic_stringIcSt11char_traitsIcESaIcEEEEEEOT_RNSt16remove_referenceISA_E4typeE
FNA:4,16,_ZSt7forwardISt5tupleIJRKiEEEOT_RNSt16remove_referenceIS4_E4typeE
FNA:4,4,_ZSt7forwardIiEOT_RNSt16remove_referenceIS0_E4typeE
FNF:5
FNH:4
DA:51,1354
DA:52,1354
DA:71,688
DA:72,688
DA:137,533
DA:138,533
DA:175,1063
DA:176,1063
DA:226,0
DA:234,0
DA:235,0
DA:236,0
DA:237,0
LF:13
LH:8
end_of_record
TN:
SF:/usr/include/c++/14/bits/new_allocator.h
FNL:0,126,152
FNA:0,59,_ZNSt15__new_allocatorINSt7__cxx1112basic_stringIcSt11char_traitsIcESaIcEEEE8allocateEmPKv
FNA:0,10,_ZNSt15__new_allocatorINSt8__detail10_Hash_nodeISt4pairIKNSt7__cxx1112basic_stringIcSt11char_traitsIcESaIcEEES8_ELb1EEEE8allocateEmPKv
FNA:0,3,_ZNSt15__new_allocatorINSt8__detail10_Hash_nodeISt4pairIKNSt7__cxx1112basic_stringIcSt11char_traitsIcESaIcEEESt13unordered_mapIiiSt4hashIiESt8equal_toIiESaIS2_IKiiEEEELb1EEEE8allocateEmPKv
FNA:0,3,_ZNSt15__new_allocatorINSt8__detail10_Hash_nodeISt4pairIKNSt7__cxx1112basic_stringIcSt11char_traitsIcESaIcEEEiELb1EEEE8allocateEmPKv
FNA:0,4,_ZNSt15__new_allocatorINSt8__detail10_Hash_nodeISt4pairIKiiELb0EEEE8allocateEmPKv
FNA:0,6,_ZNSt15__new_allocatorIPNSt8__detail15_Hash_node_baseEE8allocateEmPKv
FNA:0,3,_ZNSt15__new_allocatorISt4pairINSt7__cxx1112basic_stringIcSt11char_traitsIcESaIcEEEiEE8allocateEmPKv
FNA:0,3,_ZNSt15__new_allocatorISt5tupleIJNSt7__cxx1112basic_stringIcSt11char_traitsIcESaIcEEEiS6_EEE8allocateEmPKv
FNA:0,19,_ZNSt15__new_allocatorIcE8allocateEmPKv
FNL:1,156,173
FNA:1,59,_ZNSt15__new_allocatorINSt7__cxx1112basic_stringIcSt11char_traitsIcESaIcEEEE10deallocateEPS5_m
FNA:1,10,_ZNSt15__new_allocatorINSt8__detail10_Hash_nodeISt4pairIKNSt7__cxx1112basic_stringIcSt11char_traitsIcESaIcEEES8_ELb1EEEE10deallocateEPSB_m
FNA:1,3,_ZNSt15__new_allocatorINSt8__detail10_Hash_nodeISt4pairIKNSt7__cxx1112basic_stringIcSt11char_traitsIcESaIcEEESt13unordered_mapIiiSt4hashIiESt8equal_toIiESaIS2_IKiiEEEELb1EEEE10deallocateEPSK_m
FNA:1,3,_ZNSt15__new_allocatorINSt8__detail10_Hash_nodeISt4pairIKNSt7__cxx1112basic_stringIcSt11char_traitsIcESaIcEEEiELb1EEEE10deallocateEPSB_m
FNA:1,4,_ZNSt15__new_allocatorINSt8__detail10_Hash_nodeISt4pairIKiiELb0EEEE10deallocateEPS5_m
FNA:1,6,_ZNSt15__new_allocatorIPNSt8__detail15_Hash_node_baseEE10deallocateEPS2_m
FNA:1,3,_ZNSt15__new_allocatorISt4pairINSt7__cxx1112basic_stringIcSt11char_traitsIcESaIcEEEiEE10deallocateEPS7_m
FNA:1,3,_ZNSt15__new_allocatorISt5tupleIJNSt7__cxx1112basic_stringIcSt11char_traitsIcESaIcEEEiS6_EEE10deallocateEPS7_m
FNA:1,19,_ZNSt15__new_allocatorIcE10deallocateEPcm
FNF:2
FNH:2
DA:88,105
DA:92,537
DA:126,110
DA:134,110
DA:138,0
DA:139,0
DA:140,0
DA:151,110
DA:156,110
DA:172,110
DA:233,110
LF:11
LH:8
end_of_record
TN:
SF:/usr/include/c++/14/bits/predefined_ops.h
FNL:0,150,152
FNA:0,1,_ZN9__gnu_cxx5__ops15_Iter_comp_iterIZ4mainEUlRT_RT0_E_EC2ES6_
FNL:1,157,158
FNA:1,2,_ZN9__gnu_cxx5__ops15_Iter_comp_iterIZ4mainEUlRT_RT0_E_EclINS_17__normal_iteratorIPSt4pairINSt7__cxx1112basic_stringIcSt11char_traitsIcESaIcEEEiESt6vectorISH_SaISH_EEEESM_EEbS2_S4_
FNL:2,164,165
FNA:2,1,_ZN9__gnu_cxx5__ops16__iter_comp_iterIZ4mainEUlRT_RT0_E_EENS0_15_Iter_comp_iterIS2_EES2_
FNL:3,195,196
FNA:3,0,_ZN9__gnu_cxx5__ops14_Iter_comp_valIZ4mainEUlRT_RT0_E_EclINS_17__normal_iteratorIPSt4pairINSt7__cxx1112basic_stringIcSt11char_traitsIcESaIcEEEiESt6vectorISH_SaISH_EEEESH_EEbS2_S5_
FNL:4,231,233
FNA:4,1,_ZN9__gnu_cxx5__ops14_Val_comp_iterIZ4mainEUlRT_RT0_E_EC2EONS0_15_Iter_comp_iterIS6_EE
FNL:5,239,240
FNA:5,1,_ZN9__gnu_cxx5__ops14_Val_comp_iterIZ4mainEUlRT_RT0_E_EclISt4pairINSt7__cxx1112basic_stringIcSt11char_traitsIcESaIcEEEiENS_17__normal_iteratorIPSG_St6vectorISG_SaISG_EEEEEEbS3_S4_
FNL:6,252,253
FNA:6,1,_ZN9__gnu_cxx5__ops15__val_comp_iterIZ4mainEUlRT_RT0_E_EENS0_14_Val_comp_iterIS2_EENS0_15_Iter_comp_iterIS2_EE
FNF:7
FNH:6
DA:150,1
DA:151,1
DA:152,1
DA:157,2
DA:158,2
DA:164,1
DA:165,1
DA:195,0
DA:196,0
DA:231,1
DA:232,1
DA:233,1
DA:239,1
DA:240,1
DA:252,1
DA:253,1
LF:16
LH:14
end_of_record
TN:
SF:/usr/include/c++/14/bits/ptr_traits.h
FNL:0,134,135
FNA:0,588,_ZNSt19__ptr_traits_ptr_toIPKcS0_Lb0EE10pointer_toERS0_
FNA:0,10,_ZNSt19__ptr_traits_ptr_toIPNSt8__detail10_Hash_nodeISt4pairIKNSt7__cxx1112basic_stringIcSt11char_traitsIcESaIcEEES8_ELb1EEESB_Lb0EE10pointer_toERSB_
FNA:0,3,_ZNSt19__ptr_traits_ptr_toIPNSt8__detail10_Hash_nodeISt4pairIKNSt7__cxx1112basic_stringIcSt11char_traitsIcESaIcEEESt13unordered_mapIiiSt4hashIiESt8equal_toIiESaIS2_IKiiEEEELb1EEESK_Lb0EE10pointer_toERSK_
FNA:0,3,_ZNSt19__ptr_traits_ptr_toIPNSt8__detail10_Hash_nodeISt4pairIKNSt7__cxx1112basic_stringIcSt11char_traitsIcESaIcEEEiELb1EEESB_Lb0EE10pointer_toERSB_
FNA:0,4,_ZNSt19__ptr_traits_ptr_toIPNSt8__detail10_Hash_nodeISt4pairIKiiELb0EEES5_Lb0EE10pointer_toERS5_
FNA:0,6,_ZNSt19__ptr_traits_ptr_toIPPNSt8__detail15_Hash_node_baseES2_Lb0EE10pointer_toERS2_
FNA:0,449,_ZNSt19__ptr_traits_ptr_toIPccLb0EE10pointer_toERc
FNL:1,205,209
FNA:1,59,_ZSt12__to_addressINSt7__cxx1112basic_stringIcSt11char_traitsIcESaIcEEEEPT_S7_
FNA:1,10,_ZSt12__to_addressINSt8__detail10_Hash_nodeISt4pairIKNSt7__cxx1112basic_stringIcSt11char_traitsIcESaIcEEES8_ELb1EEEEPT_SD_
FNA:1,3,_ZSt12__to_addressINSt8__detail10_Hash_nodeISt4pairIKNSt7__cxx1112basic_stringIcSt11char_traitsIcESaIcEEESt13unordered_mapIiiSt4hashIiESt8equal_toIiESaIS2_IKiiEEEELb1EEEEPT_SM_
FNA:1,3,_ZSt12__to_addressINSt8__detail10_Hash_nodeISt4pairIKNSt7__cxx1112basic_stringIcSt11char_traitsIcESaIcEEEiELb1EEEEPT_SD_
FNA:1,4,_ZSt12__to_addressINSt8__detail10_Hash_nodeISt4pairIKiiELb0EEEEPT_S7_
FNA:1,6,_ZSt12__to_addressIPNSt8__detail15_Hash_node_baseEEPT_S4_
FNA:1,3,_ZSt12__to_addressISt4pairINSt7__cxx1112basic_stringIcSt11char_traitsIcESaIcEEEiEEPT_S9_
FNA:1,3,_ZSt12__to_addressISt5tupleIJNSt7__cxx1112basic_stringIcSt11char_traitsIcESaIcEEEiS6_EEEPT_S9_
FNF:2
FNH:2
DA:134,1063
DA:135,1063
DA:205,91
DA:208,91
LF:4
LH:4
end_of_record
TN:
SF:/usr/include/c++/14/bits/stl_algo.h
FNL:0,1589,1597
FNA:0,0,_ZSt13__heap_selectIN9__gnu_cxx17__normal_iteratorIPSt4pairINSt7__cxx1112basic_stringIcSt11char_traitsIcESaIcEEEiESt6vectorIS9_SaIS9_EEEENS0_5__ops15_Iter_comp_iterIZ4mainEUlRT_RT0_E_EEEvSH_SH_SH_SJ_
FNL:1,1750,1764
FNA:1,1,_ZSt25__unguarded_linear_insertIN9__gnu_cxx17__normal_iteratorIPSt4pairINSt7__cxx1112basic_stringIcSt11char_traitsIcESaIcEEEiESt6vectorIS9_SaIS9_EEEENS0_5__ops14_Val_comp_iterIZ4mainEUlRT_RT0_E_EEEvSH_SJ_
FNL:2,1770,1788
FNA:2,1,_ZSt16__insertion_sortIN9__gnu_cxx17__normal_iteratorIPSt4pairINSt7__cxx1112basic_stringIcSt11char_traitsIcESaIcEEEiESt6vectorIS9_SaIS9_EEEENS0_5__ops15_Iter_comp_iterIZ4mainEUlRT_RT0_E_EEEvSH_SH_SJ_
FNL:3,1794,1800
FNA:3,0,_ZSt26__unguarded_insertion_sortIN9__gnu_cxx17__normal_iteratorIPSt4pairINSt7__cxx1112basic_stringIcSt11char_traitsIcESaIcEEEiESt6vectorIS9_SaIS9_EEEENS0_5__ops15_Iter_comp_iterIZ4mainEUlRT_RT0_E_EEEvSH_SH_SJ_
FNL:4,1812,1823
FNA:4,1,_ZSt22__final_insertion_sortIN9__gnu_cxx17__normal_iteratorIPSt4pairINSt7__cxx1112basic_stringIcSt11char_traitsIcESaIcEEEiESt6vectorIS9_SaIS9_EEEENS0_5__ops15_Iter_comp_iterIZ4mainEUlRT_RT0_E_EEEvSH_SH_SJ_
FNL:5,1829,1845
FNA:5,0,_ZSt21__unguarded_partitionIN9__gnu_cxx17__normal_iteratorIPSt4pairINSt7__cxx1112basic_stringIcSt11char_traitsIcESaIcEEEiESt6vectorIS9_SaIS9_EEEENS0_5__ops15_Iter_comp_iterIZ4mainEUlRT_RT0_E_EEESH_SH_SH_SH_SJ_
FNL:6,1851,1858
FNA:6,0,_ZSt27__unguarded_partition_pivotIN9__gnu_cxx17__normal_iteratorIPSt4pairINSt7__cxx1112basic_stringIcSt11char_traitsIcESaIcEEEiESt6vectorIS9_SaIS9_EEEENS0_5__ops15_Iter_comp_iterIZ4mainEUlRT_RT0_E_EEESH_SH_SH_SJ_
FNL:7,1863,1870
FNA:7,0,_ZSt14__partial_sortIN9__gnu_cxx17__normal_iteratorIPSt4pairINSt7__cxx1112basic_stringIcSt11char_traitsIcESaIcEEEiESt6vectorIS9_SaIS9_EEEENS0_5__ops15_Iter_comp_iterIZ4mainEUlRT_RT0_E_EEEvSH_SH_SH_SJ_
FNL:8,1876,1893
FNA:8,1,_ZSt16__introsort_loopIN9__gnu_cxx17__normal_iteratorIPSt4pairINSt7__cxx1112basic_stringIcSt11char_traitsIcESaIcEEEiESt6vectorIS9_SaIS9_EEEElNS0_5__ops15_Iter_comp_iterIZ4mainEUlRT_RT0_E_EEEvSH_SH_SJ_T1_
FNL:9,1900,1910
FNA:9,1,_ZSt6__sortIN9__gnu_cxx17__normal_iteratorIPSt4pairINSt7__cxx1112basic_stringIcSt11char_traitsIcESaIcEEEiESt6vectorIS9_SaIS9_EEEENS0_5__ops15_Iter_comp_iterIZ4mainEUlRT_RT0_E_EEEvSH_SH_SJ_
FNL:10,4793,4806
FNA:10,1,_ZSt4sortIN9__gnu_cxx17__normal_iteratorIPSt4pairINSt7__cxx1112basic_stringIcSt11char_traitsIcESaIcEEEiESt6vectorIS9_SaIS9_EEEEZ4mainEUlRT_RT0_E_EvSF_SF_SH_
FNL:11,85,103
FNA:11,0,_ZSt22__move_median_to_firstIN9__gnu_cxx17__normal_iteratorIPSt4pairINSt7__cxx1112basic_stringIcSt11char_traitsIcESaIcEEEiESt6vectorIS9_SaIS9_EEEENS0_5__ops15_Iter_comp_iterIZ4mainEUlRT_RT0_E_EEEvSH_SH_SH_SH_SJ_
FNF:12
FNH:6
DA:85,0
DA:88,0
DA:90,0
DA:91,0
DA:92,0
DA:93,0
DA:95,0
DA:97,0
DA:98,0
DA:99,0
DA:100,0
DA:102,0
DA:103,0
DA:1589,0
DA:1593,0
DA:1594,0
DA:1595,0
DA:1596,0
DA:1597,0
DA:1750,1
DA:1754,1
DA:1755,1
DA:1756,1
DA:1757,1
DA:1759,0
DA:1760,0
DA:1761,0
DA:1763,1
DA:1764,1
DA:1770,1
DA:1773,1
DA:1775,3
DA:1777,2
DA:1780,1
DA:1781,1
DA:1782,1
DA:1783,1
DA:1785,1
DA:1794,0
DA:1797,0
DA:1798,0
DA:1800,0
DA:1812,1
DA:1815,1
DA:1817,0
DA:1818,0
DA:1822,1
DA:1823,1
DA:1829,0
DA:1835,0
DA:1836,0
DA:1837,0
DA:1838,0
DA:1839,0
DA:1840,0
DA:1841,0
DA:1842,0
DA:1843,0
DA:1851,0
DA:1854,0
DA:1855,0
DA:1857,0
DA:1863,0
DA:1868,0
DA:1869,0
DA:1870,0
DA:1876,1
DA:1880,1
DA:1882,0
DA:1884,0
DA:1885,0
DA:1887,0
DA:1889,0
DA:1890,0
DA:1891,0
DA:1900,1
DA:1903,1
DA:1905,1
DA:1906,1
DA:1908,1
DA:1910,1
DA:4793,1
DA:4805,1
DA:4806,1
LF:84
LH:31
end_of_record
TN:
SF:/usr/include/c++/14/bits/stl_algobase.h
FNL:0,1544,1557
FNA:0,1,_ZSt4__lgIlET_S0_
FNL:1,155,187
FNA:1,0,_ZSt9iter_swapIN9__gnu_cxx17__normal_iteratorIPSt4pairINSt7__cxx1112basic_stringIcSt11char_traitsIcESaIcEEEiESt6vectorIS9_SaIS9_EEEESE_EvT_T0_
FNL:2,233,241
FNA:2,1,_ZSt3minIiERKT_S2_S2_
FNA:2,130,_ZSt3minImERKT_S2_S2_
FNL:3,257,265
FNA:3,65,_ZSt3maxImERKT_S2_S2_
FNL:4,316,318
FNA:4,177,_ZSt12__niter_baseIPNSt7__cxx1112basic_stringIcSt11char_traitsIcESaIcEEEET_S7_
FNA:4,10,_ZSt12__niter_baseIPSt4pairINSt7__cxx1112basic_stringIcSt11char_traitsIcESaIcEEEiEET_S9_
FNA:4,9,_ZSt12__niter_baseIPSt5tupleIJNSt7__cxx1112basic_stringIcSt11char_traitsIcESaIcEEEiS6_EEET_S9_
FNL:5,346,347
FNA:5,1,_ZSt12__niter_wrapIN9__gnu_cxx17__normal_iteratorIPSt4pairINSt7__cxx1112basic_stringIcSt11char_traitsIcESaIcEEEiESt6vectorIS9_SaIS9_EEEESA_ET_SF_T0_
FNL:6,745,752
FNA:6,1,_ZNSt20__copy_move_backwardILb1ELb0ESt26random_access_iterator_tagE13__copy_move_bIPSt4pairINSt7__cxx1112basic_stringIcSt11char_traitsIcESaIcEEEiESB_EET0_T_SD_SC_
FNL:7,777,790
FNA:7,1,_ZSt23__copy_move_backward_a2ILb1EPSt4pairINSt7__cxx1112basic_stringIcSt11char_traitsIcESaIcEEEiES8_ET1_T0_SA_S9_
FNL:8,795,796
FNA:8,1,_ZSt23__copy_move_backward_a1ILb1EPSt4pairINSt7__cxx1112basic_stringIcSt11char_traitsIcESaIcEEEiES8_ET1_T0_SA_S9_
FNL:9,823,829
FNA:9,1,_ZSt22__copy_move_backward_aILb1EN9__gnu_cxx17__normal_iteratorIPSt4pairINSt7__cxx1112basic_stringIcSt11char_traitsIcESaIcEEEiESt6vectorIS9_SaIS9_EEEESE_ET1_T0_SG_SF_
FNL:10,913,925
FNA:10,1,_ZSt13move_backwardIN9__gnu_cxx17__normal_iteratorIPSt4pairINSt7__cxx1112basic_stringIcSt11char_traitsIcESaIcEEEiESt6vectorIS9_SaIS9_EEEESE_ET0_T_SG_SF_
FNF:11
FNH:10
DA:155,0
DA:185,0
DA:187,0
DA:233,131
DA:238,131
DA:239,0
DA:240,131
DA:257,65
DA:262,65
DA:263,22
DA:264,43
DA:316,196
DA:318,196
DA:346,1
DA:347,1
DA:745,1
DA:748,1
DA:749,3
DA:750,2
DA:751,1
DA:777,1
DA:781,1
DA:783,0
DA:787,1
DA:789,1
DA:795,1
DA:796,1
DA:823,1
DA:825,1
DA:828,1
DA:913,1
DA:922,1
DA:924,1
DA:1544,1
DA:1547,1
LF:35
LH:30
end_of_record
TN:
SF:/usr/include/c++/14/bits/stl_construct.h
FNL:0,146,153
FNA:0,59,_ZSt8_DestroyINSt7__cxx1112basic_stringIcSt11char_traitsIcESaIcEEEEvPT_
FNA:0,3,_ZSt8_DestroyISt4pairINSt7__cxx1112basic_stringIcSt11char_traitsIcESaIcEEEiEEvPT_
FNA:0,3,_ZSt8_DestroyISt5tupleIJNSt7__cxx1112basic_stringIcSt11char_traitsIcESaIcEEEiS6_EEEvPT_
FNL:1,160,164
FNA:1,20,_ZNSt12_Destroy_auxILb0EE9__destroyIPNSt7__cxx1112basic_stringIcSt11char_traitsIcESaIcEEEEEvT_S9_
FNA:1,1,_ZNSt12_Destroy_auxILb0EE9__destroyIPSt4pairINSt7__cxx1112basic_stringIcSt11char_traitsIcESaIcEEEiEEEvT_SB_
FNA:1,1,_ZNSt12_Destroy_auxILb0EE9__destroyIPSt5tupleIJNSt7__cxx1112basic_stringIcSt11char_traitsIcESaIcEEEiS8_EEEEvT_SB_
FNL:2,182,197
FNA:2,20,_ZSt8_DestroyIPNSt7__cxx1112basic_stringIcSt11char_traitsIcESaIcEEEEvT_S7_
FNA:2,1,_ZSt8_DestroyIPSt4pairINSt7__cxx1112basic_stringIcSt11char_traitsIcESaIcEEEiEEvT_S9_
FNA:2,1,_ZSt8_DestroyIPSt5tupleIJNSt7__cxx1112basic_stringIcSt11char_traitsIcESaIcEEEiS6_EEEvT_S9_
FNL:3,80,89
FNA:3,117,_ZSt10destroy_atINSt7__cxx1112basic_stringIcSt11char_traitsIcESaIcEEEEvPT_
FNA:3,10,_ZSt10destroy_atISt4pairIKNSt7__cxx1112basic_stringIcSt11char_traitsIcESaIcEEES6_EEvPT_
FNA:3,3,_ZSt10destroy_atISt4pairIKNSt7__cxx1112basic_stringIcSt11char_traitsIcESaIcEEESt13unordered_mapIiiSt4hashIiESt8equal_toIiESaIS0_IKiiEEEEEvPT_
FNA:3,3,_ZSt10destroy_atISt4pairIKNSt7__cxx1112basic_stringIcSt11char_traitsIcESaIcEEEiEEvPT_
FNA:3,4,_ZSt10destroy_atISt4pairIKiiEEvPT_
FNA:3,6,_ZSt10destroy_atISt4pairINSt7__cxx1112basic_stringIcSt11char_traitsIcESaIcEEEiEEvPT_
FNA:3,6,_ZSt10destroy_atISt5tupleIJNSt7__cxx1112basic_stringIcSt11char_traitsIcESaIcEEEiS6_EEEvPT_
FNL:4,94,97
FNA:4,59,_ZSt12construct_atINSt7__cxx1112basic_stringIcSt11char_traitsIcESaIcEEEJRKS5_EEDTgsnwcvPvLi0E_T_pispcl7declvalIT0_EEEEPS9_DpOSA_
FNA:4,58,_ZSt12construct_atINSt7__cxx1112basic_stringIcSt11char_traitsIcESaIcEEEJS5_EEDTgsnwcvPvLi0E_T_pispcl7declvalIT0_EEEEPS7_DpOS8_
FNA:4,10,_ZSt12construct_atISt4pairIKNSt7__cxx1112basic_stringIcSt11char_traitsIcESaIcEEES6_EJRKSt21piecewise_construct_tSt5tupleIJRS7_EESC_IJEEEEDTgsnwcvPvLi0E_T_pispcl7declvalIT0_EEEEPSH_DpOSI_
FNA:4,3,_ZSt12construct_atISt4pairIKNSt7__cxx1112basic_stringIcSt11char_traitsIcESaIcEEESt13unordered_mapIiiSt4hashIiESt8equal_toIiESaIS0_IKiiEEEEJRKSt21piecewise_construct_tSt5tupleIJRS7_EESL_IJEEEEDTgsnwcvPvLi0E_T_pispcl7declvalIT0_EEEEPSQ_DpOSR_
FNA:4,3,_ZSt12construct_atISt4pairIKNSt7__cxx1112basic_stringIcSt11char_traitsIcESaIcEEEiEJRKSt21piecewise_construct_tSt5tupleIJRS7_EESC_IJEEEEDTgsnwcvPvLi0E_T_pispcl7declvalIT0_EEEEPSH_DpOSI_
FNA:4,4,_ZSt12construct_atISt4pairIKiiEJRKSt21piecewise_construct_tSt5tupleIJRS1_EES6_IJEEEEDTgsnwcvPvLi0E_T_pispcl7declvalIT0_EEEEPSB_DpOSC_
FNA:4,6,_ZSt12construct_atISt4pairINSt7__cxx1112basic_stringIcSt11char_traitsIcESaIcEEEiEJS7_EEDTgsnwcvPvLi0E_T_pispcl7declvalIT0_EEEEPS9_DpOSA_
FNA:4,6,_ZSt12construct_atISt5tupleIJNSt7__cxx1112basic_stringIcSt11char_traitsIcESaIcEEEiS6_EEJS7_EEDTgsnwcvPvLi0E_T_pispcl7declvalIT0_EEEEPS9_DpOSA_
FNA:4,0,_ZSt12construct_atIcJRKcEEDTgsnwcvPvLi0E_T_pispcl7declvalIT0_EEEEPS3_DpOS4_
FNF:5
FNH:5
DA:80,149
DA:88,149
DA:89,149
DA:94,149
DA:97,149
DA:146,65
DA:149,65
DA:153,65
DA:160,22
DA:162,87
DA:163,65
DA:164,22
DA:182,22
DA:192,22
DA:193,0
DA:196,22
LF:16
LH:15
end_of_record
TN:
SF:/usr/include/c++/14/bits/stl_function.h
FNL:0,374,375
FNA:0,43,_ZNKSt8equal_toINSt7__cxx1112basic_stringIcSt11char_traitsIcESaIcEEEEclERKS5_S8_
FNA:0,5,_ZNKSt8equal_toIiEclERKiS2_
FNF:1
FNH:1
DA:374,48
DA:375,48
LF:2
LH:2
end_of_record
TN:
SF:/usr/include/c++/14/bits/stl_heap.h
FNL:0,135,147
FNA:0,0,_ZSt11__push_heapIN9__gnu_cxx17__normal_iteratorIPSt4pairINSt7__cxx1112basic_stringIcSt11char_traitsIcESaIcEEEiESt6vectorIS9_SaIS9_EEEElS9_NS0_5__ops14_Iter_comp_valIZ4mainEUlRT_RT0_E_EEEvSH_SJ_SJ_T1_RT2_
FNL:1,224,249
FNA:1,0,_ZSt13__adjust_heapIN9__gnu_cxx17__normal_iteratorIPSt4pairINSt7__cxx1112basic_stringIcSt11char_traitsIcESaIcEEEiESt6vectorIS9_SaIS9_EEEElS9_NS0_5__ops15_Iter_comp_iterIZ4mainEUlRT_RT0_E_EEEvSH_SJ_SJ_T1_T2_
FNL:2,254,267
FNA:2,0,_ZSt10__pop_heapIN9__gnu_cxx17__normal_iteratorIPSt4pairINSt7__cxx1112basic_stringIcSt11char_traitsIcESaIcEEEiESt6vectorIS9_SaIS9_EEEENS0_5__ops15_Iter_comp_iterIZ4mainEUlRT_RT0_E_EEEvSH_SH_SH_SK_
FNL:3,340,362
FNA:3,0,_ZSt11__make_heapIN9__gnu_cxx17__normal_iteratorIPSt4pairINSt7__cxx1112basic_stringIcSt11char_traitsIcESaIcEEEiESt6vectorIS9_SaIS9_EEEENS0_5__ops15_Iter_comp_iterIZ4mainEUlRT_RT0_E_EEEvSH_SH_SK_
FNL:4,419,427
FNA:4,0,_ZSt11__sort_heapIN9__gnu_cxx17__normal_iteratorIPSt4pairINSt7__cxx1112basic_stringIcSt11char_traitsIcESaIcEEEiESt6vectorIS9_SaIS9_EEEENS0_5__ops15_Iter_comp_iterIZ4mainEUlRT_RT0_E_EEEvSH_SH_SK_
FNF:5
FNH:0
DA:135,0
DA:139,0
DA:140,0
DA:142,0
DA:143,0
DA:144,0
DA:146,0
DA:147,0
DA:224,0
DA:227,0
DA:228,0
DA:229,0
DA:231,0
DA:232,0
DA:234,0
DA:235,0
DA:236,0
DA:238,0
DA:240,0
DA:241,0
DA:243,0
DA:247,0
DA:248,0
DA:249,0
DA:254,0
DA:262,0
DA:263,0
DA:264,0
DA:265,0
DA:266,0
DA:267,0
DA:340,0
DA:348,0
DA:349,0
DA:351,0
DA:352,0
DA:353,0
DA:355,0
DA:356,0
DA:358,0
DA:359,0
DA:360,0
DA:419,0
DA:422,0
DA:424,0
DA:425,0
DA:427,0
LF:47
LH:0
end_of_record
TN:
SF:/usr/include/c++/14/bits/stl_iterator.h
FNL:0,1067,1068
FNA:0,118,_ZN9__gnu_cxx17__normal_iteratorIPNSt7__cxx1112basic_stringIcSt11char_traitsIcESaIcEEESt6vectorIS6_SaIS6_EEEC2ERKS7_
FNA:0,19,_ZN9__gnu_cxx17__normal_iteratorIPSt4pairINSt7__cxx1112basic_stringIcSt11char_traitsIcESaIcEEEiESt6vectorIS8_SaIS8_EEEC2ERKS9_
FNA:0,12,_ZN9__gnu_cxx17__normal_iteratorIPSt5tupleIJNSt7__cxx1112basic_stringIcSt11char_traitsIcESaIcEEEiS7_EESt6vectorIS8_SaIS8_EEEC2ERKS9_
FNL:1,1090,1091
FNA:1,15,_ZNK9__gnu_cxx17__normal_iteratorIPSt4pairINSt7__cxx1112basic_stringIcSt11char_traitsIcESaIcEEEiESt6vectorIS8_SaIS8_EEEdeEv
FNA:1,3,_ZNK9__gnu_cxx17__normal_iteratorIPSt5tupleIJNSt7__cxx1112basic_stringIcSt11char_traitsIcESaIcEEEiS7_EESt6vectorIS8_SaIS8_EEEdeEv
FNL:2,1100,1104
FNA:2,5,_ZN9__gnu_cxx17__normal_iteratorIPSt4pairINSt7__cxx1112basic_stringIcSt11char_traitsIcESaIcEEEiESt6vectorIS8_SaIS8_EEEppEv
FNL:3,1114,1118
FNA:3,1,_ZN9__gnu_cxx17__normal_iteratorIPSt4pairINSt7__cxx1112basic_stringIcSt11char_traitsIcESaIcEEEiESt6vectorIS8_SaIS8_EEEmmEv
FNL:4,1138,1139
FNA:4,3,_ZNK9__gnu_cxx17__normal_iteratorIPSt4pairINSt7__cxx1112basic_stringIcSt11char_traitsIcESaIcEEEiESt6vectorIS8_SaIS8_EEEplEl
FNL:5,1148,1149
FNA:5,3,_ZNK9__gnu_cxx17__normal_iteratorIPSt4pairINSt7__cxx1112basic_stringIcSt11char_traitsIcESaIcEEEiESt6vectorIS8_SaIS8_EEEmiEl
FNA:5,3,_ZNK9__gnu_cxx17__normal_iteratorIPSt5tupleIJNSt7__cxx1112basic_stringIcSt11char_traitsIcESaIcEEEiS7_EESt6vectorIS8_SaIS8_EEEmiEl
FNL:6,1153,1154
FNA:6,118,_ZNK9__gnu_cxx17__normal_iteratorIPNSt7__cxx1112basic_stringIcSt11char_traitsIcESaIcEEESt6vectorIS6_SaIS6_EEE4baseEv
FNA:6,34,_ZNK9__gnu_cxx17__normal_iteratorIPSt4pairINSt7__cxx1112basic_stringIcSt11char_traitsIcESaIcEEEiESt6vectorIS8_SaIS8_EEE4baseEv
FNA:6,6,_ZNK9__gnu_cxx17__normal_iteratorIPSt5tupleIJNSt7__cxx1112basic_stringIcSt11char_traitsIcESaIcEEEiS7_EESt6vectorIS8_SaIS8_EEE4baseEv
FNL:7,1188,1194
FNA:7,9,_ZN9__gnu_cxxeqIPSt4pairINSt7__cxx1112basic_stringIcSt11char_traitsIcESaIcEEEiESt6vectorIS8_SaIS8_EEEEbRKNS_17__normal_iteratorIT_T0_EESI_QrqXeqcldtfL0p_4baseEcldtfL0p0_4baseERSt14convertible_toIbEE
FNL:8,1199,1202
FNA:8,0,_ZN9__gnu_cxxssIPSt4pairINSt7__cxx1112basic_stringIcSt11char_traitsIcESaIcEEEiESt6vectorIS8_SaIS8_EEEEDTclL_ZNSt8__detail11__synth3wayEEcl7declvalIRT_EEcl7declvalISF_EEEERKNS_17__normal_iteratorISE_T0_EESL_
FNL:9,1325,1328
FNA:9,59,_ZN9__gnu_cxxmiIPNSt7__cxx1112basic_stringIcSt11char_traitsIcESaIcEEESt6vectorIS6_SaIS6_EEEENS_17__normal_iteratorIT_T0_E15difference_typeERKSE_SH_
FNA:9,6,_ZN9__gnu_cxxmiIPSt4pairINSt7__cxx1112basic_stringIcSt11char_traitsIcESaIcEEEiESt6vectorIS8_SaIS8_EEEENS_17__normal_iteratorIT_T0_E15difference_typeERKSG_SJ_
FNA:9,3,_ZN9__gnu_cxxmiIPSt5tupleIJNSt7__cxx1112basic_stringIcSt11char_traitsIcESaIcEEEiS7_EESt6vectorIS8_SaIS8_EEEENS_17__normal_iteratorIT_T0_E15difference_typeERKSG_SJ_
FNL:10,1348,1350
FNA:10,4,_ZSt12__niter_baseIPSt4pairINSt7__cxx1112basic_stringIcSt11char_traitsIcESaIcEEEiESt6vectorIS7_SaIS7_EEET_N9__gnu_cxx17__normal_iteratorISC_T0_EE
FNF:11
FNH:10
DA:1067,149
DA:1068,149
DA:1090,18
DA:1091,18
DA:1100,5
DA:1102,5
DA:1103,5
DA:1114,1
DA:1116,1
DA:1117,1
DA:1138,3
DA:1139,3
DA:1148,6
DA:1149,6
DA:1153,158
DA:1154,158
DA:1188,9
DA:1194,9
DA:1199,0
DA:1202,0
DA:1325,68
DA:1328,68
DA:1348,4
DA:1350,4
LF:24
LH:22
end_of_record
TN:
SF:/usr/include/c++/14/bits/stl_iterator_base_funcs.h
FNF:0
FNH:0
DA:106,182
DA:151,364
DA:152,364
LF:3
LH:3
end_of_record
TN:
SF:/usr/include/c++/14/bits/stl_iterator_base_types.h
FNF:0
FNH:0
DA:240,182
LF:1
LH:1
end_of_record
TN:
SF:/usr/include/c++/14/bits/stl_pair.h
FNL:0,1089,1091
FNA:0,0,_ZSt4swapINSt7__cxx1112basic_stringIcSt11char_traitsIcESaIcEEEiENSt9enable_ifIXsrSt6__and_IJSt14__is_swappableIT_ES8_IT0_EEE5valueEvE4typeERSt4pairIS9_SB_ESI_
FNL:1,295,295
FNA:1,8,_ZNSt4pairINSt7__cxx1112basic_stringIcSt11char_traitsIcESaIcEEEiEC2EOS6_
FNL:2,303,310
FNA:2,0,_ZNSt4pairINSt7__cxx1112basic_stringIcSt11char_traitsIcESaIcEEEiE4swapERS6_
FNL:3,442,445
FNA:3,3,_ZNSt4pairINSt7__cxx1112basic_stringIcSt11char_traitsIcESaIcEEEiEC2IRKS5_RiEEOT_OT0_
FNL:4,602,609
FNA:4,4,_ZNSt4pairINSt7__cxx1112basic_stringIcSt11char_traitsIcESaIcEEEiEaSEOS6_Qcl13_S_assignableIT_T0_EE
FNF:5
FNH:3
DA:295,8
DA:303,0
DA:308,0
DA:309,0
DA:310,0
DA:442,3
DA:444,3
DA:445,3
DA:602,4
DA:606,4
DA:607,4
DA:608,4
DA:1089,0
DA:1091,0
LF:14
LH:8
end_of_record
TN:
SF:/usr/include/c++/14/bits/stl_uninitialized.h
FNL:0,1067,1077
FNA:0,58,_ZSt19__relocate_object_aINSt7__cxx1112basic_stringIcSt11char_traitsIcESaIcEEES5_SaIS5_EEvPT_PT0_RT1_
FNA:0,3,_ZSt19__relocate_object_aISt4pairINSt7__cxx1112basic_stringIcSt11char_traitsIcESaIcEEEiES7_SaIS7_EEvPT_PT0_RT1_
FNA:0,3,_ZSt19__relocate_object_aISt5tupleIJNSt7__cxx1112basic_stringIcSt11char_traitsIcESaIcEEEiS6_EES7_SaIS7_EEvPT_PT0_RT1_
FNL:1,1089,1106
FNA:1,59,_ZSt14__relocate_a_1IPNSt7__cxx1112basic_stringIcSt11char_traitsIcESaIcEEES6_SaIS5_EET0_T_S9_S8_RT1_
FNA:1,3,_ZSt14__relocate_a_1IPSt4pairINSt7__cxx1112basic_stringIcSt11char_traitsIcESaIcEEEiES8_SaIS7_EET0_T_SB_SA_RT1_
FNA:1,3,_ZSt14__relocate_a_1IPSt5tupleIJNSt7__cxx1112basic_stringIcSt11char_traitsIcESaIcEEEiS6_EES8_SaIS7_EET0_T_SB_SA_RT1_
FNL:2,1139,1148
FNA:2,59,_ZSt12__relocate_aIPNSt7__cxx1112basic_stringIcSt11char_traitsIcESaIcEEES6_SaIS5_EET0_T_S9_S8_RT1_
FNA:2,3,_ZSt12__relocate_aIPSt4pairINSt7__cxx1112basic_stringIcSt11char_traitsIcESaIcEEEiES8_SaIS7_EET0_T_SB_SA_RT1_
FNA:2,3,_ZSt12__relocate_aIPSt5tupleIJNSt7__cxx1112basic_stringIcSt11char_traitsIcESaIcEEEiS6_EES8_SaIS7_EET0_T_SB_SA_RT1_
FNF:3
FNH:3
DA:1067,64
DA:1075,64
DA:1076,64
DA:1077,64
DA:1089,65
DA:1101,65
DA:1102,129
DA:1103,64
DA:1105,65
DA:1139,65
DA:1145,65
DA:1147,65
LF:12
LH:12
end_of_record
TN:
SF:/usr/include/c++/14/bits/stl_vector.h
FNL:0,1128,1132
FNA:0,59,_ZNSt6vectorINSt7__cxx1112basic_stringIcSt11char_traitsIcESaIcEEESaIS5_EEixEm
FNA:0,3,_ZNSt6vectorISt5tupleIJNSt7__cxx1112basic_stringIcSt11char_traitsIcESaIcEEEiS6_EESaIS7_EEixEm
FNL:1,1235,1239
FNA:1,3,_ZNSt6vectorISt4pairINSt7__cxx1112basic_stringIcSt11char_traitsIcESaIcEEEiESaIS7_EE4backEv
FNA:1,3,_ZNSt6vectorISt5tupleIJNSt7__cxx1112basic_stringIcSt11char_traitsIcESaIcEEEiS6_EESaIS7_EE4backEv
FNL:2,1283,1295
FNA:2,59,_ZNSt6vectorINSt7__cxx1112basic_stringIcSt11char_traitsIcESaIcEEESaIS5_EE9push_backERKS5_
FNL:3,1300,1301
FNA:3,3,_ZNSt6vectorISt4pairINSt7__cxx1112basic_stringIcSt11char_traitsIcESaIcEEEiESaIS7_EE9push_backEOS7_
FNA:3,3,_ZNSt6vectorISt5tupleIJNSt7__cxx1112basic_stringIcSt11char_traitsIcESaIcEEEiS6_EESaIS7_EE9push_backEOS7_
FNL:4,1906,1913
FNA:4,59,_ZNKSt6vectorINSt7__cxx1112basic_stringIcSt11char_traitsIcESaIcEEESaIS5_EE12_M_check_lenEmPKc
FNA:4,3,_ZNKSt6vectorISt4pairINSt7__cxx1112basic_stringIcSt11char_traitsIcESaIcEEEiESaIS7_EE12_M_check_lenEmPKc
FNA:4,3,_ZNKSt6vectorISt5tupleIJNSt7__cxx1112basic_stringIcSt11char_traitsIcESaIcEEEiS6_EESaIS7_EE12_M_check_lenEmPKc
FNL:5,1926,1935
FNA:5,118,_ZNSt6vectorINSt7__cxx1112basic_stringIcSt11char_traitsIcESaIcEEESaIS5_EE11_S_max_sizeERKS6_
FNA:5,6,_ZNSt6vectorISt4pairINSt7__cxx1112basic_stringIcSt11char_traitsIcESaIcEEEiESaIS7_EE11_S_max_sizeERKS8_
FNA:5,6,_ZNSt6vectorISt5tupleIJNSt7__cxx1112basic_stringIcSt11char_traitsIcESaIcEEEiS6_EESaIS7_EE11_S_max_sizeERKS8_
FNL:6,300,301
FNA:6,79,_ZNSt12_Vector_baseINSt7__cxx1112basic_stringIcSt11char_traitsIcESaIcEEESaIS5_EE19_M_get_Tp_allocatorEv
FNA:6,4,_ZNSt12_Vector_baseISt4pairINSt7__cxx1112basic_stringIcSt11char_traitsIcESaIcEEEiESaIS7_EE19_M_get_Tp_allocatorEv
FNA:6,4,_ZNSt12_Vector_baseISt5tupleIJNSt7__cxx1112basic_stringIcSt11char_traitsIcESaIcEEEiS6_EESaIS7_EE19_M_get_Tp_allocatorEv
FNL:7,305,306
FNA:7,118,_ZNKSt12_Vector_baseINSt7__cxx1112basic_stringIcSt11char_traitsIcESaIcEEESaIS5_EE19_M_get_Tp_allocatorEv
FNA:7,6,_ZNKSt12_Vector_baseISt4pairINSt7__cxx1112basic_stringIcSt11char_traitsIcESaIcEEEiESaIS7_EE19_M_get_Tp_allocatorEv
FNA:7,6,_ZNKSt12_Vector_baseISt5tupleIJNSt7__cxx1112basic_stringIcSt11char_traitsIcESaIcEEEiS6_EESaIS7_EE19_M_get_Tp_allocatorEv
FNL:8,366,370
FNA:8,20,_ZNSt12_Vector_baseINSt7__cxx1112basic_stringIcSt11char_traitsIcESaIcEEESaIS5_EED2Ev
FNA:8,1,_ZNSt12_Vector_baseISt4pairINSt7__cxx1112basic_stringIcSt11char_traitsIcESaIcEEEiESaIS7_EED2Ev
FNA:8,1,_ZNSt12_Vector_baseISt5tupleIJNSt7__cxx1112basic_stringIcSt11char_traitsIcESaIcEEEiS6_EESaIS7_EED2Ev
FNL:9,377,381
FNA:9,59,_ZNSt12_Vector_baseINSt7__cxx1112basic_stringIcSt11char_traitsIcESaIcEEESaIS5_EE11_M_allocateEm
FNA:9,3,_ZNSt12_Vector_baseISt4pairINSt7__cxx1112basic_stringIcSt11char_traitsIcESaIcEEEiESaIS7_EE11_M_allocateEm
FNA:9,3,_ZNSt12_Vector_baseISt5tupleIJNSt7__cxx1112basic_stringIcSt11char_traitsIcESaIcEEEiS6_EESaIS7_EE11_M_allocateEm
FNL:10,385,390
FNA:10,20,_ZNSt12_Vector_baseINSt7__cxx1112basic_stringIcSt11char_traitsIcESaIcEEESaIS5_EE13_M_deallocateEPS5_m
FNA:10,1,_ZNSt12_Vector_baseISt4pairINSt7__cxx1112basic_stringIcSt11char_traitsIcESaIcEEEiESaIS7_EE13_M_deallocateEPS7_m
FNA:10,1,_ZNSt12_Vector_baseISt5tupleIJNSt7__cxx1112basic_stringIcSt11char_traitsIcESaIcEEEiS6_EESaIS7_EE13_M_deallocateEPS7_m
FNL:11,504,514
FNA:11,59,_ZNSt6vectorINSt7__cxx1112basic_stringIcSt11char_traitsIcESaIcEEESaIS5_EE11_S_relocateEPS5_S8_S8_RS6_
FNA:11,3,_ZNSt6vectorISt4pairINSt7__cxx1112basic_stringIcSt11char_traitsIcESaIcEEEiESaIS7_EE11_S_relocateEPS7_SA_SA_RS8_
FNA:11,3,_ZNSt6vectorISt5tupleIJNSt7__cxx1112basic_stringIcSt11char_traitsIcESaIcEEEiS6_EESaIS7_EE11_S_relocateEPS7_SA_SA_RS8_
FNL:12,733,738
FNA:12,20,_ZNSt6vectorINSt7__cxx1112basic_stringIcSt11char_traitsIcESaIcEEESaIS5_EED2Ev
FNA:12,1,_ZNSt6vectorISt4pairINSt7__cxx1112basic_stringIcSt11char_traitsIcESaIcEEEiESaIS7_EED2Ev
FNA:12,1,_ZNSt6vectorISt5tupleIJNSt7__cxx1112basic_stringIcSt11char_traitsIcESaIcEEEiS6_EESaIS7_EED2Ev
FNL:13,873,874
FNA:13,59,_ZNSt6vectorINSt7__cxx1112basic_stringIcSt11char_traitsIcESaIcEEESaIS5_EE5beginEv
FNA:13,5,_ZNSt6vectorISt4pairINSt7__cxx1112basic_stringIcSt11char_traitsIcESaIcEEEiESaIS7_EE5beginEv
FNA:13,3,_ZNSt6vectorISt5tupleIJNSt7__cxx1112basic_stringIcSt11char_traitsIcESaIcEEEiS6_EESaIS7_EE5beginEv
FNL:14,893,894
FNA:14,59,_ZNSt6vectorINSt7__cxx1112basic_stringIcSt11char_traitsIcESaIcEEESaIS5_EE3endEv
FNA:14,8,_ZNSt6vectorISt4pairINSt7__cxx1112basic_stringIcSt11char_traitsIcESaIcEEEiESaIS7_EE3endEv
FNA:14,6,_ZNSt6vectorISt5tupleIJNSt7__cxx1112basic_stringIcSt11char_traitsIcESaIcEEEiS6_EESaIS7_EE3endEv
FNL:15,992,993
FNA:15,276,_ZNKSt6vectorINSt7__cxx1112basic_stringIcSt11char_traitsIcESaIcEEESaIS5_EE4sizeEv
FNA:15,12,_ZNKSt6vectorISt4pairINSt7__cxx1112basic_stringIcSt11char_traitsIcESaIcEEEiESaIS7_EE4sizeEv
FNA:15,13,_ZNKSt6vectorISt5tupleIJNSt7__cxx1112basic_stringIcSt11char_traitsIcESaIcEEEiS6_EESaIS7_EE4sizeEv
FNL:16,998,999
FNA:16,118,_ZNKSt6vectorINSt7__cxx1112basic_stringIcSt11char_traitsIcESaIcEEESaIS5_EE8max_sizeEv
FNA:16,6,_ZNKSt6vectorISt4pairINSt7__cxx1112basic_stringIcSt11char_traitsIcESaIcEEEiESaIS7_EE8max_sizeEv
FNA:16,6,_ZNKSt6vectorISt5tupleIJNSt7__cxx1112basic_stringIcSt11char_traitsIcESaIcEEEiS6_EESaIS7_EE8max_sizeEv
FNF:17
FNH:17
DA:300,87
DA:301,87
DA:305,130
DA:306,130
DA:366,22
DA:368,22
DA:369,22
DA:370,22
DA:377,65
DA:380,130
DA:385,22
DA:388,22
DA:389,22
DA:390,22
DA:504,65
DA:509,65
DA:733,22
DA:735,22
DA:736,22
DA:738,22
DA:873,67
DA:874,67
DA:893,73
DA:894,73
DA:992,301
DA:993,301
DA:998,130
DA:999,130
DA:1128,62
DA:1131,62
DA:1235,6
DA:1238,6
DA:1283,59
DA:1285,59
DA:1288,0
DA:1290,0
DA:1294,59
DA:1295,59
DA:1300,6
DA:1301,6
DA:1906,65
DA:1908,65
DA:1909,0
DA:1911,65
DA:1912,65
DA:1926,130
DA:1931,130
DA:1933,130
DA:1934,130
LF:49
LH:46
end_of_record
TN:
SF:/usr/include/c++/14/bits/unordered_map.h
FNL:0,148,148
FNA:0,1,_ZNSt13unordered_mapINSt7__cxx1112basic_stringIcSt11char_traitsIcESaIcEEES5_St4hashIS5_ESt8equal_toIS5_ESaISt4pairIKS5_S5_EEEC2Ev
FNA:0,1,_ZNSt13unordered_mapINSt7__cxx1112basic_stringIcSt11char_traitsIcESaIcEEES_IiiSt4hashIiESt8equal_toIiESaISt4pairIKiiEEES6_IS5_ES8_IS5_ESaISA_IKS5_SE_EEEC2Ev
FNA:0,1,_ZNSt13unordered_mapINSt7__cxx1112basic_stringIcSt11char_traitsIcESaIcEEEiSt4hashIS5_ESt8equal_toIS5_ESaISt4pairIKS5_iEEEC2Ev
FNA:0,3,_ZNSt13unordered_mapIiiSt4hashIiESt8equal_toIiESaISt4pairIKiiEEEC2Ev
FNL:1,332,333
FNA:1,1,_ZNSt13unordered_mapINSt7__cxx1112basic_stringIcSt11char_traitsIcESaIcEEEiSt4hashIS5_ESt8equal_toIS5_ESaISt4pairIKS5_iEEE5beginEv
FNA:1,3,_ZNSt13unordered_mapIiiSt4hashIiESt8equal_toIiESaISt4pairIKiiEEE5beginEv
FNL:2,354,355
FNA:2,19,_ZNSt13unordered_mapINSt7__cxx1112basic_stringIcSt11char_traitsIcESaIcEEES5_St4hashIS5_ESt8equal_toIS5_ESaISt4pairIKS5_S5_EEE3endEv
FNA:2,1,_ZNSt13unordered_mapINSt7__cxx1112basic_stringIcSt11char_traitsIcESaIcEEEiSt4hashIS5_ESt8equal_toIS5_ESaISt4pairIKS5_iEEE3endEv
FNA:2,3,_ZNSt13unordered_mapIiiSt4hashIiESt8equal_toIiESaISt4pairIKiiEEE3endEv
FNL:3,770,771
FNA:3,9,_ZNSt13unordered_mapINSt7__cxx1112basic_stringIcSt11char_traitsIcESaIcEEES5_St4hashIS5_ESt8equal_toIS5_ESaISt4pairIKS5_S5_EEE5eraseERSB_
FNL:4,876,877
FNA:4,19,_ZNSt13unordered_mapINSt7__cxx1112basic_stringIcSt11char_traitsIcESaIcEEES5_St4hashIS5_ESt8equal_toIS5_ESaISt4pairIKS5_S5_EEE4findERSB_
FNL:5,987,988
FNA:5,10,_ZNSt13unordered_mapINSt7__cxx1112basic_stringIcSt11char_traitsIcESaIcEEES5_St4hashIS5_ESt8equal_toIS5_ESaISt4pairIKS5_S5_EEEixERSB_
FNA:5,12,_ZNSt13unordered_mapINSt7__cxx1112basic_stringIcSt11char_traitsIcESaIcEEES_IiiSt4hashIiESt8equal_toIiESaISt4pairIKiiEEES6_IS5_ES8_IS5_ESaISA_IKS5_SE_EEEixERSH_
FNA:5,9,_ZNSt13unordered_mapINSt7__cxx1112basic_stringIcSt11char_traitsIcESaIcEEEiSt4hashIS5_ESt8equal_toIS5_ESaISt4pairIKS5_iEEEixERSB_
FNA:5,9,_ZNSt13unordered_mapIiiSt4hashIiESt8equal_toIiESaISt4pairIKiiEEEixERS5_
FNF:6
FNH:6
DA:148,6
DA:332,4
DA:333,4
DA:354,23
DA:355,23
DA:770,9
DA:771,9
DA:876,19
DA:877,19
DA:987,40
DA:988,40
LF:11
LH:11
end_of_record
TN:
SF:/usr/include/c++/14/bits/vector.tcc
FNL:0,111,127
FNA:0,3,_ZNSt6vectorISt4pairINSt7__cxx1112basic_stringIcSt11char_traitsIcESaIcEEEiESaIS7_EE12emplace_backIJS7_EEERS7_DpOT_
FNA:0,3,_ZNSt6vectorISt5tupleIJNSt7__cxx1112basic_stringIcSt11char_traitsIcESaIcEEEiS6_EESaIS7_EE12emplace_backIJS7_EEERS7_DpOT_
FNL:1,581,695
FNA:1,59,_ZNSt6vectorINSt7__cxx1112basic_stringIcSt11char_traitsIcESaIcEEESaIS5_EE17_M_realloc_appendIJRKS5_EEEvDpOT_
FNA:1,3,_ZNSt6vectorISt4pairINSt7__cxx1112basic_stringIcSt11char_traitsIcESaIcEEEiESaIS7_EE17_M_realloc_appendIJS7_EEEvDpOT_
FNA:1,3,_ZNSt6vectorISt5tupleIJNSt7__cxx1112basic_stringIcSt11char_traitsIcESaIcEEEiS6_EESaIS7_EE17_M_realloc_appendIJS7_EEEvDpOT_
FNL:2,607,609
FNA:2,59,_ZZNSt6vectorINSt7__cxx1112basic_stringIcSt11char_traitsIcESaIcEEESaIS5_EE17_M_realloc_appendIJRKS5_EEEvDpOT_EN6_GuardC2EPS5_mRS6_
FNA:2,3,_ZZNSt6vectorISt4pairINSt7__cxx1112basic_stringIcSt11char_traitsIcESaIcEEEiESaIS7_EE17_M_realloc_appendIJS7_EEEvDpOT_EN6_GuardC2EPS7_mRS8_
FNA:2,3,_ZZNSt6vectorISt5tupleIJNSt7__cxx1112basic_stringIcSt11char_traitsIcESaIcEEEiS6_EESaIS7_EE17_M_realloc_appendIJS7_EEEvDpOT_EN6_GuardC2EPS7_mRS8_
FNL:3,612,617
FNA:3,59,_ZZNSt6vectorINSt7__cxx1112basic_stringIcSt11char_traitsIcESaIcEEESaIS5_EE17_M_realloc_appendIJRKS5_EEEvDpOT_EN6_GuardD2Ev
FNA:3,3,_ZZNSt6vectorISt4pairINSt7__cxx1112basic_stringIcSt11char_traitsIcESaIcEEEiESaIS7_EE17_M_realloc_appendIJS7_EEEvDpOT_EN6_GuardD2Ev
FNA:3,3,_ZZNSt6vectorISt5tupleIJNSt7__cxx1112basic_stringIcSt11char_traitsIcESaIcEEEiS6_EESaIS7_EE17_M_realloc_appendIJS7_EEEvDpOT_EN6_GuardD2Ev
FNF:4
FNH:4
DA:111,6
DA:114,6
DA:117,0
DA:119,0
DA:123,6
DA:125,6
DA:581,65
DA:590,65
DA:591,65
DA:592,0
DA:593,65
DA:594,65
DA:595,65
DA:596,65
DA:597,65
DA:607,65
DA:608,65
DA:609,65
DA:612,65
DA:614,65
DA:616,43
DA:617,65
DA:624,65
DA:634,130
DA:635,65
DA:647,65
DA:648,65
DA:649,65
DA:686,65
DA:687,65
DA:688,65
DA:692,65
DA:693,65
DA:694,65
DA:695,65
LF:35
LH:32
end_of_record
TN:
SF:/usr/include/c++/14/compare
FNL:0,1224,1243
FNA:0,0,_ZNKSt8__detail10_Synth3wayclIPSt4pairINSt7__cxx1112basic_stringIcSt11char_traitsIcESaIcEEEiESA_EEDaRKT_RKT0_QrqXltfL0p_fL0p0_RNS_18__boolean_testableEXltfL0p0_fL0p_RNS_18__boolean_testableEE
FNL:1,291,292
FNA:1,0,_ZStltSt15strong_orderingNSt9__cmp_cat8__unspecE
FNF:2
FNH:0
DA:291,0
DA:292,0
DA:1224,0
DA:1233,0
LF:4
LH:0
end_of_record
TN:
SF:/usr/include/c++/14/ext/aligned_buffer.h
FNL:0,104,107
FNA:0,30,_ZN9__gnu_cxx16__aligned_bufferISt4pairIKNSt7__cxx1112basic_stringIcSt11char_traitsIcESaIcEEES7_EE7_M_addrEv
FNA:0,18,_ZN9__gnu_cxx16__aligned_bufferISt4pairIKNSt7__cxx1112basic_stringIcSt11char_traitsIcESaIcEEESt13unordered_mapIiiSt4hashIiESt8equal_toIiESaIS1_IKiiEEEEE7_M_addrEv
FNA:0,18,_ZN9__gnu_cxx16__aligned_bufferISt4pairIKNSt7__cxx1112basic_stringIcSt11char_traitsIcESaIcEEEiEE7_M_addrEv
FNA:0,21,_ZN9__gnu_cxx16__aligned_bufferISt4pairIKiiEE7_M_addrEv
FNL:1,110,113
FNA:1,28,_ZNK9__gnu_cxx16__aligned_bufferISt4pairIKNSt7__cxx1112basic_stringIcSt11char_traitsIcESaIcEEES7_EE7_M_addrEv
FNA:1,9,_ZNK9__gnu_cxx16__aligned_bufferISt4pairIKNSt7__cxx1112basic_stringIcSt11char_traitsIcESaIcEEESt13unordered_mapIiiSt4hashIiESt8equal_toIiESaIS1_IKiiEEEEE7_M_addrEv
FNA:1,6,_ZNK9__gnu_cxx16__aligned_bufferISt4pairIKNSt7__cxx1112basic_stringIcSt11char_traitsIcESaIcEEEiEE7_M_addrEv
FNA:1,6,_ZNK9__gnu_cxx16__aligned_bufferISt4pairIKiiEE7_M_addrEv
FNL:2,116,117
FNA:2,30,_ZN9__gnu_cxx16__aligned_bufferISt4pairIKNSt7__cxx1112basic_stringIcSt11char_traitsIcESaIcEEES7_EE6_M_ptrEv
FNA:2,18,_ZN9__gnu_cxx16__aligned_bufferISt4pairIKNSt7__cxx1112basic_stringIcSt11char_traitsIcESaIcEEESt13unordered_mapIiiSt4hashIiESt8equal_toIiESaIS1_IKiiEEEEE6_M_ptrEv
FNA:2,18,_ZN9__gnu_cxx16__aligned_bufferISt4pairIKNSt7__cxx1112basic_stringIcSt11char_traitsIcESaIcEEEiEE6_M_ptrEv
FNA:2,21,_ZN9__gnu_cxx16__aligned_bufferISt4pairIKiiEE6_M_ptrEv
FNL:3,120,121
FNA:3,28,_ZNK9__gnu_cxx16__aligned_bufferISt4pairIKNSt7__cxx1112basic_stringIcSt11char_traitsIcESaIcEEES7_EE6_M_ptrEv
FNA:3,9,_ZNK9__gnu_cxx16__aligned_bufferISt4pairIKNSt7__cxx1112basic_stringIcSt11char_traitsIcESaIcEEESt13unordered_mapIiiSt4hashIiESt8equal_toIiESaIS1_IKiiEEEEE6_M_ptrEv
FNA:3,6,_ZNK9__gnu_cxx16__aligned_bufferISt4pairIKNSt7__cxx1112basic_stringIcSt11char_traitsIcESaIcEEEiEE6_M_ptrEv
FNA:3,6,_ZNK9__gnu_cxx16__aligned_bufferISt4pairIKiiEE6_M_ptrEv
FNF:4
FNH:4
DA:104,87
DA:106,87
DA:110,49
DA:112,49
DA:116,87
DA:117,87
DA:120,49
DA:121,49
LF:8
LH:8
end_of_record
TN:
SF:/usr/include/c++/14/ext/alloc_traits.h
FNF:0
FNH:0
DA:98,166
DA:102,0
DA:106,10
DA:110,0
DA:118,0
LF:5
LH:2
end_of_record
TN:
SF:/usr/include/c++/14/ext/string_conversions.h
FNL:0,56,96
FNA:0,27,_ZN9__gnu_cxx6__stoaIlicJiEEET0_PFT_PKT1_PPS3_DpT2_EPKcS5_PmS9_
FNL:1,65,65
FNA:1,27,_ZZN9__gnu_cxx6__stoaIlicJiEEET0_PFT_PKT1_PPS3_DpT2_EPKcS5_PmS9_EN11_Save_errnoC2Ev
FNL:2,66,66
FNA:2,27,_ZZN9__gnu_cxx6__stoaIlicJiEEET0_PFT_PKT1_PPS3_DpT2_EPKcS5_PmS9_EN11_Save_errnoD2Ev
FNL:3,75,79
FNA:3,27,_ZZN9__gnu_cxx6__stoaIlicJiEEET0_PFT_PKT1_PPS3_DpT2_EPKcS5_PmS9_EN10_Range_chk6_S_chkElSt17integral_constantIbLb1EE
FNF:4
FNH:4
DA:56,27
DA:65,27
DA:66,27
DA:68,27
DA:75,27
DA:78,27
DA:82,27
DA:84,27
DA:85,0
DA:86,54
DA:87,27
DA:88,0
DA:90,27
DA:92,27
DA:93,0
DA:95,27
DA:96,27
LF:17
LH:14
end_of_record
TN:
SF:/usr/include/c++/14/new
FNL:0,179,180
FNA:0,169,_ZnwmPv
FNL:1,185,185
FNA:1,0,_ZdlPvS_
FNF:2
FNH:1
DA:179,169
DA:180,169
DA:185,0
LF:3
LH:2
end_of_record
TN:
SF:/usr/include/c++/14/tuple
FNL:0,201,202
FNA:0,16,_ZNSt10_Head_baseILm0ERKNSt7__cxx1112basic_stringIcSt11char_traitsIcESaIcEEELb0EEC2ES7_
FNA:0,4,_ZNSt10_Head_baseILm0ERKiLb0EEC2ES1_
FNL:1,205,205
FNA:1,6,_ZNSt10_Head_baseILm0ENSt7__cxx1112basic_stringIcSt11char_traitsIcESaIcEEELb0EEC2EOS6_
FNA:1,6,_ZNSt10_Head_baseILm2ENSt7__cxx1112basic_stringIcSt11char_traitsIcESaIcEEELb0EEC2EOS6_
FNL:2,208,209
FNA:2,3,_ZNSt10_Head_baseILm0ENSt7__cxx1112basic_stringIcSt11char_traitsIcESaIcEEELb0EEC2IRS5_EEOT_
FNA:2,3,_ZNSt10_Head_baseILm1EiLb0EEC2IRiEEOT_
FNA:2,3,_ZNSt10_Head_baseILm2ENSt7__cxx1112basic_stringIcSt11char_traitsIcESaIcEEELb0EEC2IRS5_EEOT_
FNL:3,242,242
FNA:3,3,_ZNSt10_Head_baseILm0ENSt7__cxx1112basic_stringIcSt11char_traitsIcESaIcEEELb0EE7_M_headERS6_
FNA:3,16,_ZNSt10_Head_baseILm0ERKNSt7__cxx1112basic_stringIcSt11char_traitsIcESaIcEEELb0EE7_M_headERS8_
FNA:3,4,_ZNSt10_Head_baseILm0ERKiLb0EE7_M_headERS2_
FNA:3,3,_ZNSt10_Head_baseILm1EiLb0EE7_M_headERS0_
FNA:3,3,_ZNSt10_Head_baseILm2ENSt7__cxx1112basic_stringIcSt11char_traitsIcESaIcEEELb0EE7_M_headERS6_
FNL:4,2427,2428
FNA:4,3,_ZSt12__get_helperILm0ENSt7__cxx1112basic_stringIcSt11char_traitsIcESaIcEEEJiS5_EERT0_RSt11_Tuple_implIXT_EJS6_DpT1_EE
FNA:4,16,_ZSt12__get_helperILm0ERKNSt7__cxx1112basic_stringIcSt11char_traitsIcESaIcEEEJEERT0_RSt11_Tuple_implIXT_EJS8_DpT1_EE
FNA:4,4,_ZSt12__get_helperILm0ERKiJEERT0_RSt11_Tuple_implIXT_EJS2_DpT1_EE
FNA:4,3,_ZSt12__get_helperILm1EiJNSt7__cxx1112basic_stringIcSt11char_traitsIcESaIcEEEEERT0_RSt11_Tuple_implIXT_EJS6_DpT1_EE
FNA:4,3,_ZSt12__get_helperILm2ENSt7__cxx1112basic_stringIcSt11char_traitsIcESaIcEEEJEERT0_RSt11_Tuple_implIXT_EJS6_DpT1_EE
FNL:5,2443,2444
FNA:5,3,_ZSt3getILm0EJNSt7__cxx1112basic_stringIcSt11char_traitsIcESaIcEEEiS5_EERNSt13tuple_elementIXT_ESt5tupleIJDpT0_EEE4typeERSA_
FNA:5,16,_ZSt3getILm0EJRKNSt7__cxx1112basic_stringIcSt11char_traitsIcESaIcEEEEERNSt13tuple_elementIXT_ESt5tupleIJDpT0_EEE4typeERSC_
FNA:5,4,_ZSt3getILm0EJRKiEERNSt13tuple_elementIXT_ESt5tupleIJDpT0_EEE4typeERS6_
FNA:5,3,_ZSt3getILm1EJNSt7__cxx1112basic_stringIcSt11char_traitsIcESaIcEEEiS5_EERNSt13tuple_elementIXT_ESt5tupleIJDpT0_EEE4typeERSA_
FNA:5,3,_ZSt3getILm2EJNSt7__cxx1112basic_stringIcSt11char_traitsIcESaIcEEEiS5_EERNSt13tuple_elementIXT_ESt5tupleIJDpT0_EEE4typeERSA_
FNL:6,2872,2878
FNA:6,10,_ZNSt4pairIKNSt7__cxx1112basic_stringIcSt11char_traitsIcESaIcEEES5_EC2IJRS6_EJEEESt21piecewise_construct_tSt5tupleIJDpT_EESB_IJDpT0_EE
FNA:6,3,_ZNSt4pairIKNSt7__cxx1112basic_stringIcSt11char_traitsIcESaIcEEESt13unordered_mapIiiSt4hashIiESt8equal_toIiESaIS_IKiiEEEEC2IJRS6_EJEEESt21piecewise_construct_tSt5tupleIJDpT_EESK_IJDpT0_EE
FNA:6,3,_ZNSt4pairIKNSt7__cxx1112basic_stringIcSt11char_traitsIcESaIcEEEiEC2IJRS6_EJEEESt21piecewise_construct_tSt5tupleIJDpT_EESB_IJDpT0_EE
FNA:6,4,_ZNSt4pairIKiiEC2IJRS0_EJEEESt21piecewise_construct_tSt5tupleIJDpT_EES5_IJDpT0_EE
FNL:7,2884,2889
FNA:7,10,_ZNSt4pairIKNSt7__cxx1112basic_stringIcSt11char_traitsIcESaIcEEES5_EC2IJRS6_EJLm0EEJEJEEERSt5tupleIJDpT_EERSA_IJDpT1_EESt12_Index_tupleIJXspT0_EEESJ_IJXspT2_EEE
FNA:7,3,_ZNSt4pairIKNSt7__cxx1112basic_stringIcSt11char_traitsIcESaIcEEESt13unordered_mapIiiSt4hashIiESt8equal_toIiESaIS_IKiiEEEEC2IJRS6_EJLm0EEJEJEEERSt5tupleIJDpT_EERSJ_IJDpT1_EESt12_Index_tupleIJXspT0_EEESS_IJXspT2_EEE
FNA:7,3,_ZNSt4pairIKNSt7__cxx1112basic_stringIcSt11char_traitsIcESaIcEEEiEC2IJRS6_EJLm0EEJEJEEERSt5tupleIJDpT_EERSA_IJDpT1_EESt12_Index_tupleIJXspT0_EEESJ_IJXspT2_EEE
FNA:7,4,_ZNSt4pairIKiiEC2IJRS0_EJLm0EEJEJEEERSt5tupleIJDpT_EERS4_IJDpT1_EESt12_Index_tupleIJXspT0_EEESD_IJXspT2_EEE
FNL:8,293,293
FNA:8,3,_ZNSt11_Tuple_implILm0EJNSt7__cxx1112basic_stringIcSt11char_traitsIcESaIcEEEiS5_EE7_M_headERS6_
FNA:8,3,_ZNSt11_Tuple_implILm1EJiNSt7__cxx1112basic_stringIcSt11char_traitsIcESaIcEEEEE7_M_headERS6_
FNL:9,315,318
FNA:9,3,_ZNSt11_Tuple_implILm0EJNSt7__cxx1112basic_stringIcSt11char_traitsIcESaIcEEEiS5_EEC2IRS5_JRiS8_EvEEOT_DpOT0_
FNA:9,3,_ZNSt11_Tuple_implILm1EJiNSt7__cxx1112basic_stringIcSt11char_traitsIcESaIcEEEEEC2IRiJRS5_EvEEOT_DpOT0_
FNL:10,326,326
FNA:10,6,_ZNSt11_Tuple_implILm0EJNSt7__cxx1112basic_stringIcSt11char_traitsIcESaIcEEEiS5_EEC2EOS6_
FNA:10,6,_ZNSt11_Tuple_implILm1EJiNSt7__cxx1112basic_stringIcSt11char_traitsIcESaIcEEEEEC2EOS6_
FNL:11,556,556
FNA:11,16,_ZNSt11_Tuple_implILm0EJRKNSt7__cxx1112basic_stringIcSt11char_traitsIcESaIcEEEEE7_M_headERS8_
FNA:11,4,_ZNSt11_Tuple_implILm0EJRKiEE7_M_headERS2_
FNA:11,3,_ZNSt11_Tuple_implILm2EJNSt7__cxx1112basic_stringIcSt11char_traitsIcESaIcEEEEE7_M_headERS6_
FNL:12,566,568
FNA:12,16,_ZNSt11_Tuple_implILm0EJRKNSt7__cxx1112basic_stringIcSt11char_traitsIcESaIcEEEEEC2ES7_
FNA:12,4,_ZNSt11_Tuple_implILm0EJRKiEEC2ES1_
FNL:13,572,574
FNA:13,3,_ZNSt11_Tuple_implILm2EJNSt7__cxx1112basic_stringIcSt11char_traitsIcESaIcEEEEEC2IRS5_EEOT_
FNL:14,586,589
FNA:14,16,_ZNSt11_Tuple_implILm0EJRKNSt7__cxx1112basic_stringIcSt11char_traitsIcESaIcEEEEEC2EOS8_
FNA:14,4,_ZNSt11_Tuple_implILm0EJRKiEEC2EOS2_
FNA:14,6,_ZNSt11_Tuple_implILm2EJNSt7__cxx1112basic_stringIcSt11char_traitsIcESaIcEEEEEC2EOS6_
FNL:15,971,975
FNA:15,16,_ZNSt5tupleIJRKNSt7__cxx1112basic_stringIcSt11char_traitsIcESaIcEEEEEC2ES7_Qcl15__constructibleIDpRKT_EE
FNA:15,4,_ZNSt5tupleIJRKiEEC2ES1_Qcl15__constructibleIDpRKT_EE
FNL:16,982,985
FNA:16,3,_ZNSt5tupleIJNSt7__cxx1112basic_stringIcSt11char_traitsIcESaIcEEEiS5_EEC2IJRS5_RiS8_EEEDpOT_
FNL:17,995,995
FNA:17,6,_ZNSt5tupleIJNSt7__cxx1112basic_stringIcSt11char_traitsIcESaIcEEEiS5_EEC2EOS6_
FNA:17,16,_ZNSt5tupleIJRKNSt7__cxx1112basic_stringIcSt11char_traitsIcESaIcEEEEEC2EOS8_
FNA:17,4,_ZNSt5tupleIJRKiEEC2EOS2_
FNF:18
FNH:18
DA:201,20
DA:202,20
DA:205,12
DA:208,9
DA:209,9
DA:242,29
DA:293,6
DA:315,6
DA:317,6
DA:318,6
DA:326,12
DA:556,23
DA:566,20
DA:567,20
DA:568,20
DA:572,3
DA:573,3
DA:574,3
DA:586,26
DA:588,26
DA:589,26
DA:971,20
DA:974,20
DA:975,20
DA:982,3
DA:984,3
DA:985,3
DA:995,26
DA:2427,29
DA:2428,29
DA:2443,29
DA:2444,29
DA:2872,20
DA:2877,20
DA:2878,20
DA:2884,20
DA:2887,20
DA:2888,20
DA:2889,20
LF:39
LH:39
end_of_record
TN:
SF:/usr/include/c++/14/type_traits
FNL:0,3832,3839
FNA:0,450,_ZSt21is_constant_evaluatedv
FNF:1
FNH:1
DA:3832,450
DA:3835,450
LF:2
LH:2
end_of_record
TN:
SF:/usr/include/c++/14/x86_64-redhat-linux/bits/c++config.h
FNF:0
FNH:0
DA:2394,1148
LF:1
LH:1
end_of_record
