TN:
SF:/home/monika/Documents/problems/16862번： An I for an Eye/main.cpp
FNL:0,38,126
FNA:0,1,main
FNL:1,9,30
FNA:1,1,_Z8fastscanRi
FNF:2
FNH:2
DA:9,1
DA:11,1
DA:13,1
DA:15,1
DA:16,1
DA:18,0
DA:19,0
DA:22,2
DA:24,1
DA:26,1
DA:28,0
DA:30,1
DA:38,1
DA:40,1
DA:41,1
DA:44,1
DA:45,1
DA:48,0
DA:67,22
DA:69,4
DA:71,3
DA:72,3
DA:73,3
DA:74,3
DA:75,73
DA:77,70
DA:78,70
DA:80,1470
DA:82,1400
DA:83,1400
DA:85,1361
DA:87,1459
DA:89,1448
DA:91,1350
DA:92,1350
DA:96,1361
DA:98,11
DA:99,11
DA:104,70
DA:107,11
DA:109,0
DA:111,11
DA:112,11
DA:117,59
DA:118,59
DA:121,3
DA:122,3
DA:123,2
DA:124,3
DA:125,1
DA:126,3
LF:51
LH:46
end_of_record
TN:
SF:/usr/include/c++/14/bits/alloc_traits.h
FNF:0
FNH:0
DA:515,5
DA:550,5
DA:615,7
DA:627,20
DA:993,1
DA:994,1
LF:6
LH:6
end_of_record
TN:
SF:/usr/include/c++/14/bits/allocator.h
FNF:0
FNH:0
DA:161,8
DA:166,68
DA:182,29
DA:189,5
DA:191,0
DA:192,0
DA:193,0
DA:196,5
DA:203,5
DA:205,0
DA:206,0
DA:208,5
LF:12
LH:7
end_of_record
TN:
SF:/usr/include/c++/14/bits/basic_string.h
FNL:0,1076,1077
FNA:0,2943,_ZNKSt7__cxx1112basic_stringIcSt11char_traitsIcESaIcEE4sizeEv
FNL:1,1083,1084
FNA:1,28,_ZNKSt7__cxx1112basic_stringIcSt11char_traitsIcESaIcEE6lengthEv
FNL:2,1089,1090
FNA:2,7,_ZNKSt7__cxx1112basic_stringIcSt11char_traitsIcESaIcEE8max_sizeEv
FNL:3,1180,1184
FNA:3,74,_ZNKSt7__cxx1112basic_stringIcSt11char_traitsIcESaIcEE8capacityEv
FNL:4,1265,1273
FNA:4,2966,_ZNSt7__cxx1112basic_stringIcSt11char_traitsIcESaIcEEixEm
FNL:5,129,142
FNA:5,4,_ZNSt7__cxx1112basic_stringIcSt11char_traitsIcESaIcEE11_S_allocateERS3_m
FNL:6,1572,1579
FNA:6,70,_ZNSt7__cxx1112basic_stringIcSt11char_traitsIcESaIcEE9push_backEc
FNL:7,193,194
FNA:7,20,_ZNSt7__cxx1112basic_stringIcSt11char_traitsIcESaIcEE12_Alloc_hiderC2EPcRKS3_
FNL:8,197,198
FNA:8,26,_ZNSt7__cxx1112basic_stringIcSt11char_traitsIcESaIcEE12_Alloc_hiderC2EPcOS3_
FNL:9,217,218
FNA:9,4,_ZNSt7__cxx1112basic_stringIcSt11char_traitsIcESaIcEE7_M_dataEPc
FNL:10,222,223
FNA:10,116,_ZNSt7__cxx1112basic_stringIcSt11char_traitsIcESaIcEE9_M_lengthEm
FNL:11,227,228
FNA:11,3362,_ZNKSt7__cxx1112basic_stringIcSt11char_traitsIcESaIcEE7_M_dataEv
FNL:12,232,239
FNA:12,46,_ZNSt7__cxx1112basic_stringIcSt11char_traitsIcESaIcEE13_M_local_dataEv
FNL:13,243,250
FNA:13,124,_ZNKSt7__cxx1112basic_stringIcSt11char_traitsIcESaIcEE13_M_local_dataEv
FNL:14,254,255
FNA:14,4,_ZNSt7__cxx1112basic_stringIcSt11char_traitsIcESaIcEE11_M_capacityEm
FNL:15,259,263
FNA:15,116,_ZNSt7__cxx1112basic_stringIcSt11char_traitsIcESaIcEE13_M_set_lengthEm
FNL:16,267,276
FNA:16,124,_ZNKSt7__cxx1112basic_stringIcSt11char_traitsIcESaIcEE11_M_is_localEv
FNL:17,285,289
FNA:17,50,_ZNSt7__cxx1112basic_stringIcSt11char_traitsIcESaIcEE10_M_disposeEv
FNL:18,293,294
FNA:18,4,_ZNSt7__cxx1112basic_stringIcSt11char_traitsIcESaIcEE10_M_destroyEm
FNL:19,341,342
FNA:19,8,_ZNSt7__cxx1112basic_stringIcSt11char_traitsIcESaIcEE16_M_get_allocatorEv
FNL:20,346,347
FNA:20,27,_ZNKSt7__cxx1112basic_stringIcSt11char_traitsIcESaIcEE16_M_get_allocatorEv
FNL:21,430,436
FNA:21,44,_ZNSt7__cxx1112basic_stringIcSt11char_traitsIcESaIcEE7_S_copyEPcPKcm
FNL:22,482,483
FNA:22,20,_ZNSt7__cxx1112basic_stringIcSt11char_traitsIcESaIcEE13_S_copy_charsEPcS5_S5_
FNL:23,487,489
FNA:23,20,_ZNSt7__cxx1112basic_stringIcSt11char_traitsIcESaIcEE13_S_copy_charsEPcPKcS7_
FNL:24,527,533
FNA:24,6,_ZNSt7__cxx1112basic_stringIcSt11char_traitsIcESaIcEEC2Ev
FNL:25,552,558
FNA:25,20,_ZNSt7__cxx1112basic_stringIcSt11char_traitsIcESaIcEEC2ERKS4_
FNL:26,646,655
FNA:26,20,_ZNSt7__cxx1112basic_stringIcSt11char_traitsIcESaIcEEC2IS3_EEPKcRKS3_
FNL:27,808,809
FNA:27,46,_ZNSt7__cxx1112basic_stringIcSt11char_traitsIcESaIcEED2Ev
FNF:28
FNH:28
DA:129,4
DA:131,4
DA:141,4
DA:193,20
DA:194,20
DA:197,26
DA:198,26
DA:217,4
DA:218,4
DA:222,116
DA:223,116
DA:227,3362
DA:228,3362
DA:232,46
DA:235,46
DA:243,124
DA:246,124
DA:254,4
DA:255,4
DA:259,116
DA:261,116
DA:262,116
DA:263,116
DA:267,124
DA:269,124
DA:271,84
DA:272,0
DA:273,84
DA:275,40
DA:285,50
DA:287,50
DA:288,4
DA:289,50
DA:293,4
DA:294,4
DA:341,8
DA:342,8
DA:346,27
DA:347,27
DA:356,46
DA:357,0
DA:358,0
DA:360,46
DA:430,44
DA:432,44
DA:433,0
DA:435,44
DA:436,44
DA:482,20
DA:483,20
DA:487,20
DA:489,20
DA:527,6
DA:529,18
DA:532,6
DA:533,6
DA:552,20
DA:553,20
DA:554,20
DA:556,20
DA:558,20
DA:646,20
DA:647,20
DA:650,20
DA:651,0
DA:653,20
DA:654,20
DA:655,20
DA:808,46
DA:809,46
DA:1076,2943
DA:1077,2943
DA:1083,28
DA:1084,28
DA:1089,7
DA:1090,14
DA:1180,74
DA:1182,74
DA:1183,74
DA:1265,2966
DA:1269,2966
DA:1272,2966
DA:1572,70
DA:1574,70
DA:1575,70
DA:1576,2
DA:1577,70
DA:1578,70
DA:1579,70
LF:89
LH:84
end_of_record
TN:
SF:/usr/include/c++/14/bits/basic_string.tcc
FNL:0,138,160
FNA:0,4,_ZNSt7__cxx1112basic_stringIcSt11char_traitsIcESaIcEE9_M_createERmm
FNL:1,221,252
FNA:1,20,_ZNSt7__cxx1112basic_stringIcSt11char_traitsIcESaIcEE12_M_constructIPKcEEvT_S8_St20forward_iterator_tag
FNA:1,20,_ZNSt7__cxx1112basic_stringIcSt11char_traitsIcESaIcEE12_M_constructIPcEEvT_S7_St20forward_iterator_tag
FNL:2,239,239
FNA:2,20,_ZZNSt7__cxx1112basic_stringIcSt11char_traitsIcESaIcEE12_M_constructIPKcEEvT_S8_St20forward_iterator_tagEN6_GuardC2EPS4_
FNA:2,20,_ZZNSt7__cxx1112basic_stringIcSt11char_traitsIcESaIcEE12_M_constructIPcEEvT_S7_St20forward_iterator_tagEN6_GuardC2EPS4_
FNL:3,242,242
FNA:3,20,_ZZNSt7__cxx1112basic_stringIcSt11char_traitsIcESaIcEE12_M_constructIPKcEEvT_S8_St20forward_iterator_tagEN6_GuardD2Ev
FNA:3,20,_ZZNSt7__cxx1112basic_stringIcSt11char_traitsIcESaIcEE12_M_constructIPcEEvT_S7_St20forward_iterator_tagEN6_GuardD2Ev
FNL:4,325,345
FNA:4,4,_ZNSt7__cxx1112basic_stringIcSt11char_traitsIcESaIcEE9_M_mutateEmmPKcm
FNF:5
FNH:5
DA:138,4
DA:143,4
DA:144,0
DA:149,4
DA:151,3
DA:153,3
DA:154,0
DA:159,4
DA:221,40
DA:225,40
DA:227,40
DA:229,0
DA:230,0
DA:239,40
DA:242,40
DA:245,40
DA:247,40
DA:249,40
DA:251,40
DA:252,40
DA:325,4
DA:329,4
DA:331,4
DA:332,4
DA:334,4
DA:335,2
DA:336,4
DA:337,2
DA:338,4
DA:339,0
DA:340,0
DA:342,4
DA:343,4
DA:344,4
DA:345,4
LF:35
LH:29
end_of_record
TN:
SF:/usr/include/c++/14/bits/char_traits.h
FNL:0,136,137
FNA:0,0,_ZN9__gnu_cxx11char_traitsIcE2eqERKcS3_
FNL:1,199,206
FNA:1,0,_ZN9__gnu_cxx11char_traitsIcE6lengthEPKc
FNL:2,253,268
FNA:2,0,_ZN9__gnu_cxx11char_traitsIcE4copyEPcPKcm
FNL:3,343,351
FNA:3,186,_ZNSt11char_traitsIcE6assignERcRKc
FNL:4,385,392
FNA:4,20,_ZNSt11char_traitsIcE6lengthEPKc
FNL:5,419,428
FNA:5,44,_ZNSt11char_traitsIcE4copyEPcPKcm
FNF:6
FNH:3
DA:136,0
DA:137,0
DA:199,0
DA:202,0
DA:203,0
DA:204,0
DA:205,0
DA:253,0
DA:256,0
DA:257,0
DA:259,0
DA:261,0
DA:262,0
DA:263,0
DA:266,0
DA:267,0
DA:343,186
DA:346,186
DA:347,0
DA:350,186
DA:351,186
DA:385,20
DA:388,20
DA:389,0
DA:391,20
DA:419,44
DA:421,44
DA:422,0
DA:424,44
DA:425,0
DA:427,44
LF:31
LH:11
end_of_record
TN:
SF:/usr/include/c++/14/bits/move.h
FNL:0,137,138
FNA:0,26,_ZSt4moveIRSaIcEEONSt16remove_referenceIT_E4typeEOS3_
FNL:1,175,176
FNA:1,124,_ZSt9addressofIKcEPT_RS1_
FNA:1,46,_ZSt9addressofIcEPT_RS0_
FNL:2,51,52
FNA:2,40,_ZSt11__addressofI4RuleEPT_RS1_
FNA:2,124,_ZSt11__addressofIKcEPT_RS1_
FNA:2,46,_ZSt11__addressofIcEPT_RS0_
FNL:3,71,72
FNA:3,20,_ZSt7forwardIRK4RuleEOT_RNSt16remove_referenceIS3_E4typeE
FNA:3,0,_ZSt7forwardIRKcEOT_RNSt16remove_referenceIS2_E4typeE
FNF:4
FNH:4
DA:51,210
DA:52,210
DA:71,20
DA:72,20
DA:137,26
DA:138,26
DA:175,170
DA:176,170
LF:8
LH:8
end_of_record
TN:
SF:/usr/include/c++/14/bits/new_allocator.h
FNL:0,126,152
FNA:0,1,_ZNSt15__new_allocatorI4RuleE8allocateEmPKv
FNA:0,4,_ZNSt15__new_allocatorIcE8allocateEmPKv
FNL:1,156,173
FNA:1,1,_ZNSt15__new_allocatorI4RuleE10deallocateEPS0_m
FNA:1,4,_ZNSt15__new_allocatorIcE10deallocateEPcm
FNF:2
FNH:2
DA:88,8
DA:92,68
DA:126,5
DA:134,5
DA:138,0
DA:139,0
DA:140,0
DA:151,5
DA:156,5
DA:172,5
DA:233,5
LF:11
LH:8
end_of_record
TN:
SF:/usr/include/c++/14/bits/ptr_traits.h
FNL:0,134,135
FNA:0,124,_ZNSt19__ptr_traits_ptr_toIPKcS0_Lb0EE10pointer_toERS0_
FNA:0,46,_ZNSt19__ptr_traits_ptr_toIPccLb0EE10pointer_toERc
FNF:1
FNH:1
DA:134,170
DA:135,170
LF:2
LH:2
end_of_record
TN:
SF:/usr/include/c++/14/bits/stl_algobase.h
FNL:0,233,241
FNA:0,1,_ZSt3minImERKT_S2_S2_
FNF:1
FNH:1
DA:233,1
DA:238,1
DA:239,0
DA:240,1
LF:4
LH:3
end_of_record
TN:
SF:/usr/include/c++/14/bits/stl_construct.h
FNL:0,109,120
FNA:0,20,_ZSt10_ConstructI4RuleJRKS0_EEvPT_DpOT0_
FNL:1,146,153
FNA:1,20,_ZSt8_DestroyI4RuleEvPT_
FNL:2,160,164
FNA:2,1,_ZNSt12_Destroy_auxILb0EE9__destroyIP4RuleEEvT_S4_
FNL:3,182,197
FNA:3,1,_ZSt8_DestroyIP4RuleEvT_S2_
FNL:4,80,89
FNA:4,20,_ZSt10destroy_atI4RuleEvPT_
FNL:5,94,97
FNA:5,0,_ZSt12construct_atI4RuleJRKS0_EEDTgsnwcvPvLi0E_T_pispcl7declvalIT0_EEEEPS4_DpOS5_
FNA:5,0,_ZSt12construct_atIcJRKcEEDTgsnwcvPvLi0E_T_pispcl7declvalIT0_EEEEPS3_DpOS4_
FNF:6
FNH:5
DA:80,20
DA:88,20
DA:89,20
DA:94,0
DA:97,0
DA:109,20
DA:112,20
DA:115,0
DA:116,0
DA:119,20
DA:146,20
DA:149,20
DA:153,20
DA:160,1
DA:162,21
DA:163,20
DA:164,1
DA:182,1
DA:192,1
DA:193,0
DA:196,1
LF:21
LH:16
end_of_record
TN:
SF:/usr/include/c++/14/bits/stl_iterator.h
FNL:0,1067,1068
FNA:0,140,_ZN9__gnu_cxx17__normal_iteratorIP4RuleSt6vectorIS1_SaIS1_EEEC2ERKS2_
FNL:1,1090,1091
FNA:1,1400,_ZNK9__gnu_cxx17__normal_iteratorIP4RuleSt6vectorIS1_SaIS1_EEEdeEv
FNL:2,1100,1104
FNA:2,1400,_ZN9__gnu_cxx17__normal_iteratorIP4RuleSt6vectorIS1_SaIS1_EEEppEv
FNL:3,1153,1154
FNA:3,2940,_ZNK9__gnu_cxx17__normal_iteratorIP4RuleSt6vectorIS1_SaIS1_EEE4baseEv
FNL:4,1188,1194
FNA:4,1470,_ZN9__gnu_cxxeqIP4RuleSt6vectorIS1_SaIS1_EEEEbRKNS_17__normal_iteratorIT_T0_EESB_QrqXeqcldtfL0p_4baseEcldtfL0p0_4baseERSt14convertible_toIbEE
FNF:5
FNH:5
DA:1067,140
DA:1068,140
DA:1090,1400
DA:1091,1400
DA:1100,1400
DA:1102,1400
DA:1103,1400
DA:1153,2940
DA:1154,2940
DA:1188,1470
DA:1194,1470
LF:11
LH:11
end_of_record
TN:
SF:/usr/include/c++/14/bits/stl_iterator_base_funcs.h
FNF:0
FNH:0
DA:106,41
DA:151,82
DA:152,82
LF:3
LH:3
end_of_record
TN:
SF:/usr/include/c++/14/bits/stl_iterator_base_types.h
FNF:0
FNH:0
DA:240,41
LF:1
LH:1
end_of_record
TN:
SF:/usr/include/c++/14/bits/stl_uninitialized.h
FNL:0,113,128
FNA:0,1,_ZSt16__do_uninit_copyIPK4RulePS0_ET0_T_S5_S4_
FNL:1,135,137
FNA:1,1,_ZNSt20__uninitialized_copyILb0EE13__uninit_copyIPK4RulePS2_EET0_T_S7_S6_
FNL:2,163,186
FNA:2,1,_ZSt18uninitialized_copyIPK4RulePS0_ET0_T_S5_S4_
FNL:3,366,374
FNA:3,1,_ZSt22__uninitialized_copy_aIPK4RulePS0_S0_ET0_T_S5_S4_RSaIT1_E
FNF:4
FNH:4
DA:113,1
DA:116,1
DA:119,21
DA:120,20
DA:121,1
DA:123,0
DA:125,0
DA:126,0
DA:135,1
DA:137,1
DA:163,1
DA:174,1
DA:181,1
DA:185,1
DA:366,1
DA:370,1
DA:371,0
DA:373,1
LF:18
LH:14
end_of_record
TN:
SF:/usr/include/c++/14/bits/stl_vector.h
FNL:0,145,147
FNA:0,1,_ZNSt12_Vector_baseI4RuleSaIS0_EE12_Vector_implC2ERKS1_
FNL:1,1689,1700
FNA:1,1,_ZNSt6vectorI4RuleSaIS0_EE19_M_range_initializeIPKS0_EEvT_S6_St20forward_iterator_tag
FNL:2,1917,1923
FNA:2,1,_ZNSt6vectorI4RuleSaIS0_EE17_S_check_init_lenEmRKS1_
FNL:3,1926,1935
FNA:3,1,_ZNSt6vectorI4RuleSaIS0_EE11_S_max_sizeERKS1_
FNL:4,300,301
FNA:4,3,_ZNSt12_Vector_baseI4RuleSaIS0_EE19_M_get_Tp_allocatorEv
FNL:5,320,321
FNA:5,1,_ZNSt12_Vector_baseI4RuleSaIS0_EEC2ERKS1_
FNL:6,366,370
FNA:6,1,_ZNSt12_Vector_baseI4RuleSaIS0_EED2Ev
FNL:7,377,381
FNA:7,1,_ZNSt12_Vector_baseI4RuleSaIS0_EE11_M_allocateEm
FNL:8,385,390
FNA:8,1,_ZNSt12_Vector_baseI4RuleSaIS0_EE13_M_deallocateEPS0_m
FNL:9,678,684
FNA:9,1,_ZNSt6vectorI4RuleSaIS0_EEC2ESt16initializer_listIS0_ERKS1_
FNL:10,733,738
FNA:10,1,_ZNSt6vectorI4RuleSaIS0_EED2Ev
FNL:11,873,874
FNA:11,70,_ZNSt6vectorI4RuleSaIS0_EE5beginEv
FNL:12,893,894
FNA:12,70,_ZNSt6vectorI4RuleSaIS0_EE3endEv
FNL:13,98,100
FNA:13,1,_ZNSt12_Vector_baseI4RuleSaIS0_EE17_Vector_impl_dataC2Ev
FNF:14
FNH:14
DA:98,1
DA:99,1
DA:100,1
DA:145,1
DA:146,1
DA:147,1
DA:300,3
DA:301,3
DA:320,1
DA:321,1
DA:366,1
DA:368,1
DA:369,1
DA:370,1
DA:377,1
DA:380,2
DA:385,1
DA:388,1
DA:389,1
DA:390,1
DA:678,1
DA:680,1
DA:682,1
DA:683,1
DA:684,1
DA:733,1
DA:735,1
DA:736,1
DA:738,1
DA:873,70
DA:874,70
DA:893,70
DA:894,70
DA:1689,1
DA:1692,1
DA:1694,1
DA:1695,1
DA:1696,1
DA:1697,1
DA:1699,1
DA:1700,1
DA:1917,1
DA:1919,1
DA:1920,0
DA:1922,1
DA:1926,1
DA:1931,1
DA:1933,1
DA:1934,1
LF:49
LH:48
end_of_record
TN:
SF:/usr/include/c++/14/ext/alloc_traits.h
FNF:0
FNH:0
DA:98,20
LF:1
LH:1
end_of_record
TN:
SF:/usr/include/c++/14/initializer_list
FNL:0,69,69
FNA:0,1,_ZNKSt16initializer_listI4RuleE4sizeEv
FNL:1,73,73
FNA:1,2,_ZNKSt16initializer_listI4RuleE5beginEv
FNL:2,77,77
FNA:2,1,_ZNKSt16initializer_listI4RuleE3endEv
FNF:3
FNH:3
DA:69,1
DA:73,2
DA:77,1
LF:3
LH:3
end_of_record
TN:
SF:/usr/include/c++/14/new
FNL:0,179,180
FNA:0,20,_ZnwmPv
FNL:1,185,185
FNA:1,0,_ZdlPvS_
FNF:2
FNH:1
DA:179,20
DA:180,20
DA:185,0
LF:3
LH:2
end_of_record
TN:
SF:/usr/include/c++/14/type_traits
FNL:0,3832,3839
FNA:0,47,_ZSt21is_constant_evaluatedv
FNF:1
FNH:1
DA:3832,47
DA:3835,47
LF:2
LH:2
end_of_record
TN:
SF:/usr/include/c++/14/x86_64-redhat-linux/bits/c++config.h
FNF:0
FNH:0
DA:2394,3247
DA:2456,0
LF:2
LH:1
end_of_record
