TN:
SF:/home/monika/Documents/problems/14247번： 나무 자르기/main.cpp
FNL:0,11,41
FNA:0,1,main
FNF:1
FNH:1
DA:11,1
DA:13,1
DA:14,1
DA:16,1
DA:17,1
DA:18,1
DA:20,6
DA:22,5
DA:24,6
DA:26,5
DA:29,10
DA:30,9
DA:32,1
DA:33,6
DA:35,5
DA:38,1
DA:40,1
DA:41,1
LF:18
LH:18
end_of_record
TN:
SF:/usr/include/c++/14/bit
FNF:0
FNH:0
DA:201,1
DA:204,1
DA:206,1
DA:209,1
DA:210,1
DA:211,1
DA:220,1
DA:221,1
DA:371,1
DA:373,1
DA:374,1
LF:11
LH:11
end_of_record
TN:
SF:/usr/include/c++/14/bits/alloc_traits.h
FNF:0
FNH:0
DA:514,1
DA:515,1
DA:549,1
DA:550,1
DA:990,1
LF:5
LH:5
end_of_record
TN:
SF:/usr/include/c++/14/bits/allocator.h
FNF:0
FNH:0
DA:161,1
DA:182,1
DA:187,1
DA:196,1
DA:201,1
DA:208,1
LF:6
LH:6
end_of_record
TN:
SF:/usr/include/c++/14/bits/basic_ios.h
FNF:0
FNH:0
DA:311,1
DA:313,1
DA:314,1
LF:3
LH:3
end_of_record
TN:
SF:/usr/include/c++/14/bits/invoke.h
FNF:0
FNH:0
DA:60,9
DA:61,9
DA:90,9
DA:96,9
LF:4
LH:4
end_of_record
TN:
SF:/usr/include/c++/14/bits/move.h
FNF:0
FNH:0
DA:226,0
DA:234,0
DA:235,0
DA:236,0
LF:4
LH:0
end_of_record
TN:
SF:/usr/include/c++/14/bits/new_allocator.h
FNL:0,126,152
FNA:0,1,_ZNSt15__new_allocatorI4TreeE8allocateEmPKv
FNF:1
FNH:1
DA:126,1
DA:134,1
DA:138,0
DA:139,0
DA:140,0
DA:151,1
DA:156,1
DA:172,1
LF:8
LH:5
end_of_record
TN:
SF:/usr/include/c++/14/bits/predefined_ops.h
FNF:0
FNH:0
DA:150,1
DA:157,4
DA:158,4
DA:164,1
DA:165,1
DA:187,0
DA:195,0
DA:196,0
DA:231,3
DA:239,5
DA:240,5
DA:252,3
DA:253,3
LF:13
LH:10
end_of_record
TN:
SF:/usr/include/c++/14/bits/ranges_algo.h
FNL:0,1799,1803
FNA:0,1,_ZNKSt6ranges9__sort_fnclIRSt6vectorI4TreeSaIS3_EEZ4mainEUlRKS3_S8_E_St8identityEENSt13__conditionalIX14borrowed_rangeIT_EEE4typeIDTcl7__begincl7declvalIRSC_EEEENS_8danglingEEEOSC_T0_T1_
FNF:1
FNH:1
DA:52,1
DA:54,9
DA:57,9
DA:1786,1
DA:1789,1
DA:1790,1
DA:1799,1
DA:1801,1
DA:1802,1
LF:9
LH:9
end_of_record
TN:
SF:/usr/include/c++/14/bits/ranges_base.h
FNF:0
FNH:0
DA:117,1
DA:125,1
DA:167,1
DA:175,1
LF:4
LH:4
end_of_record
TN:
SF:/usr/include/c++/14/bits/stl_algo.h
FNL:0,1589,1597
FNA:0,0,_ZSt13__heap_selectIN9__gnu_cxx17__normal_iteratorIP4TreeSt6vectorIS2_SaIS2_EEEENS0_5__ops15_Iter_comp_iterIZNSt6ranges8__detail16__make_comp_projIZ4mainEUlRKS2_SE_E_St8identityEEDaRT_RT0_EUlOSH_OSJ_E_EEEvSH_SH_SH_SJ_
FNL:1,1750,1764
FNA:1,3,_ZSt25__unguarded_linear_insertIN9__gnu_cxx17__normal_iteratorIP4TreeSt6vectorIS2_SaIS2_EEEENS0_5__ops14_Val_comp_iterIZNSt6ranges8__detail16__make_comp_projIZ4mainEUlRKS2_SE_E_St8identityEEDaRT_RT0_EUlOSH_OSJ_E_EEEvSH_SJ_
FNL:2,1770,1788
FNA:2,1,_ZSt16__insertion_sortIN9__gnu_cxx17__normal_iteratorIP4TreeSt6vectorIS2_SaIS2_EEEENS0_5__ops15_Iter_comp_iterIZNSt6ranges8__detail16__make_comp_projIZ4mainEUlRKS2_SE_E_St8identityEEDaRT_RT0_EUlOSH_OSJ_E_EEEvSH_SH_SJ_
FNL:3,1794,1800
FNA:3,0,_ZSt26__unguarded_insertion_sortIN9__gnu_cxx17__normal_iteratorIP4TreeSt6vectorIS2_SaIS2_EEEENS0_5__ops15_Iter_comp_iterIZNSt6ranges8__detail16__make_comp_projIZ4mainEUlRKS2_SE_E_St8identityEEDaRT_RT0_EUlOSH_OSJ_E_EEEvSH_SH_SJ_
FNL:4,1812,1823
FNA:4,1,_ZSt22__final_insertion_sortIN9__gnu_cxx17__normal_iteratorIP4TreeSt6vectorIS2_SaIS2_EEEENS0_5__ops15_Iter_comp_iterIZNSt6ranges8__detail16__make_comp_projIZ4mainEUlRKS2_SE_E_St8identityEEDaRT_RT0_EUlOSH_OSJ_E_EEEvSH_SH_SJ_
FNL:5,1829,1845
FNA:5,0,_ZSt21__unguarded_partitionIN9__gnu_cxx17__normal_iteratorIP4TreeSt6vectorIS2_SaIS2_EEEENS0_5__ops15_Iter_comp_iterIZNSt6ranges8__detail16__make_comp_projIZ4mainEUlRKS2_SE_E_St8identityEEDaRT_RT0_EUlOSH_OSJ_E_EEESH_SH_SH_SH_SJ_
FNL:6,1851,1858
FNA:6,0,_ZSt27__unguarded_partition_pivotIN9__gnu_cxx17__normal_iteratorIP4TreeSt6vectorIS2_SaIS2_EEEENS0_5__ops15_Iter_comp_iterIZNSt6ranges8__detail16__make_comp_projIZ4mainEUlRKS2_SE_E_St8identityEEDaRT_RT0_EUlOSH_OSJ_E_EEESH_SH_SH_SJ_
FNL:7,1863,1870
FNA:7,0,_ZSt14__partial_sortIN9__gnu_cxx17__normal_iteratorIP4TreeSt6vectorIS2_SaIS2_EEEENS0_5__ops15_Iter_comp_iterIZNSt6ranges8__detail16__make_comp_projIZ4mainEUlRKS2_SE_E_St8identityEEDaRT_RT0_EUlOSH_OSJ_E_EEEvSH_SH_SH_SJ_
FNL:8,1876,1893
FNA:8,1,_ZSt16__introsort_loopIN9__gnu_cxx17__normal_iteratorIP4TreeSt6vectorIS2_SaIS2_EEEElNS0_5__ops15_Iter_comp_iterIZNSt6ranges8__detail16__make_comp_projIZ4mainEUlRKS2_SE_E_St8identityEEDaRT_RT0_EUlOSH_OSJ_E_EEEvSH_SH_SJ_T1_
FNL:9,1900,1910
FNA:9,1,_ZSt6__sortIN9__gnu_cxx17__normal_iteratorIP4TreeSt6vectorIS2_SaIS2_EEEENS0_5__ops15_Iter_comp_iterIZNSt6ranges8__detail16__make_comp_projIZ4mainEUlRKS2_SE_E_St8identityEEDaRT_RT0_EUlOSH_OSJ_E_EEEvSH_SH_SJ_
FNL:10,85,103
FNA:10,0,_ZSt22__move_median_to_firstIN9__gnu_cxx17__normal_iteratorIP4TreeSt6vectorIS2_SaIS2_EEEENS0_5__ops15_Iter_comp_iterIZNSt6ranges8__detail16__make_comp_projIZ4mainEUlRKS2_SE_E_St8identityEEDaRT_RT0_EUlOSH_OSJ_E_EEEvSH_SH_SH_SH_SJ_
FNF:11
FNH:5
DA:85,0
DA:88,0
DA:90,0
DA:91,0
DA:92,0
DA:93,0
DA:95,0
DA:97,0
DA:98,0
DA:99,0
DA:100,0
DA:102,0
DA:103,0
DA:1589,0
DA:1593,0
DA:1594,0
DA:1595,0
DA:1596,0
DA:1597,0
DA:1750,3
DA:1754,3
DA:1755,3
DA:1756,3
DA:1757,5
DA:1759,2
DA:1760,2
DA:1761,2
DA:1763,3
DA:1764,3
DA:1770,1
DA:1773,1
DA:1775,5
DA:1777,4
DA:1780,1
DA:1781,1
DA:1782,1
DA:1785,3
DA:1794,0
DA:1797,0
DA:1798,0
DA:1800,0
DA:1812,1
DA:1815,1
DA:1817,0
DA:1818,0
DA:1822,1
DA:1823,1
DA:1829,0
DA:1833,0
DA:1835,0
DA:1836,0
DA:1837,0
DA:1838,0
DA:1839,0
DA:1840,0
DA:1841,0
DA:1842,0
DA:1843,0
DA:1851,0
DA:1854,0
DA:1855,0
DA:1857,0
DA:1863,0
DA:1868,0
DA:1869,0
DA:1870,0
DA:1876,1
DA:1880,1
DA:1882,0
DA:1884,0
DA:1885,0
DA:1887,0
DA:1889,0
DA:1890,0
DA:1891,0
DA:1900,1
DA:1903,1
DA:1905,1
DA:1906,2
DA:1908,1
DA:1910,1
DA:4793,1
DA:4805,1
LF:83
LH:32
end_of_record
TN:
SF:/usr/include/c++/14/bits/stl_algobase.h
FNL:0,762,771
FNA:0,1,_ZNSt20__copy_move_backwardILb1ELb1ESt26random_access_iterator_tagE13__copy_move_bI4TreeS3_EEPT0_PT_S7_S5_
FNF:1
FNH:1
DA:155,0
DA:185,0
DA:346,1
DA:347,1
DA:437,0
DA:438,0
DA:762,1
DA:764,1
DA:765,1
DA:766,1
DA:767,0
DA:769,0
DA:770,1
DA:777,1
DA:787,1
DA:795,1
DA:796,1
DA:823,1
DA:825,1
DA:913,1
DA:922,1
DA:936,1
DA:939,5
DA:940,4
DA:997,1
DA:998,1
DA:1140,1
DA:1146,1
DA:1151,1
DA:1175,1
DA:1180,1
DA:1544,1
DA:1547,2
LF:33
LH:27
end_of_record
TN:
SF:/usr/include/c++/14/bits/stl_construct.h
FNF:0
FNH:0
DA:109,1
DA:119,1
LF:2
LH:2
end_of_record
TN:
SF:/usr/include/c++/14/bits/stl_heap.h
FNL:0,135,147
FNA:0,0,_ZSt11__push_heapIN9__gnu_cxx17__normal_iteratorIP4TreeSt6vectorIS2_SaIS2_EEEElS2_NS0_5__ops14_Iter_comp_valIZNSt6ranges8__detail16__make_comp_projIZ4mainEUlRKS2_SE_E_St8identityEEDaRT_RT0_EUlOSH_OSJ_E_EEEvSH_SJ_SJ_T1_RT2_
FNL:1,224,249
FNA:1,0,_ZSt13__adjust_heapIN9__gnu_cxx17__normal_iteratorIP4TreeSt6vectorIS2_SaIS2_EEEElS2_NS0_5__ops15_Iter_comp_iterIZNSt6ranges8__detail16__make_comp_projIZ4mainEUlRKS2_SE_E_St8identityEEDaRT_RT0_EUlOSH_OSJ_E_EEEvSH_SJ_SJ_T1_T2_
FNL:2,254,267
FNA:2,0,_ZSt10__pop_heapIN9__gnu_cxx17__normal_iteratorIP4TreeSt6vectorIS2_SaIS2_EEEENS0_5__ops15_Iter_comp_iterIZNSt6ranges8__detail16__make_comp_projIZ4mainEUlRKS2_SE_E_St8identityEEDaRT_RT0_EUlOSH_OSJ_E_EEEvSH_SH_SH_SK_
FNL:3,340,362
FNA:3,0,_ZSt11__make_heapIN9__gnu_cxx17__normal_iteratorIP4TreeSt6vectorIS2_SaIS2_EEEENS0_5__ops15_Iter_comp_iterIZNSt6ranges8__detail16__make_comp_projIZ4mainEUlRKS2_SE_E_St8identityEEDaRT_RT0_EUlOSH_OSJ_E_EEEvSH_SH_SK_
FNL:4,419,427
FNA:4,0,_ZSt11__sort_heapIN9__gnu_cxx17__normal_iteratorIP4TreeSt6vectorIS2_SaIS2_EEEENS0_5__ops15_Iter_comp_iterIZNSt6ranges8__detail16__make_comp_projIZ4mainEUlRKS2_SE_E_St8identityEEDaRT_RT0_EUlOSH_OSJ_E_EEEvSH_SH_SK_
FNF:5
FNH:0
DA:135,0
DA:139,0
DA:140,0
DA:142,0
DA:143,0
DA:144,0
DA:146,0
DA:147,0
DA:224,0
DA:227,0
DA:228,0
DA:229,0
DA:231,0
DA:232,0
DA:234,0
DA:235,0
DA:236,0
DA:238,0
DA:240,0
DA:241,0
DA:243,0
DA:246,0
DA:247,0
DA:249,0
DA:254,0
DA:262,0
DA:263,0
DA:264,0
DA:265,0
DA:266,0
DA:267,0
DA:340,0
DA:348,0
DA:351,0
DA:352,0
DA:353,0
DA:355,0
DA:356,0
DA:358,0
DA:359,0
DA:360,0
DA:419,0
DA:422,0
DA:424,0
DA:425,0
DA:427,0
LF:46
LH:0
end_of_record
TN:
SF:/usr/include/c++/14/bits/stl_iterator.h
FNF:0
FNH:0
DA:1067,4
DA:1068,1
DA:1090,3
DA:1100,4
DA:1102,0
DA:1103,4
DA:1114,5
DA:1116,5
DA:1117,5
DA:1138,1
DA:1139,2
DA:1148,0
DA:1149,0
DA:1188,0
DA:1194,0
DA:1199,0
DA:1202,0
DA:1325,3
DA:1328,3
LF:19
LH:12
end_of_record
TN:
SF:/usr/include/c++/14/bits/stl_uninitialized.h
FNL:0,660,671
FNA:0,1,_ZNSt27__uninitialized_default_n_1ILb1EE18__uninit_default_nIP4TreemEET_S4_T0_
FNF:1
FNH:1
DA:660,1
DA:662,1
DA:664,1
DA:666,1
DA:667,1
DA:668,1
DA:670,1
DA:696,1
DA:707,1
DA:712,1
DA:777,1
DA:779,1
LF:12
LH:12
end_of_record
TN:
SF:/usr/include/c++/14/bits/stl_vector.h
FNL:0,366,370
FNA:0,1,_ZNSt12_Vector_baseI4TreeSaIS0_EED2Ev
FNL:1,396,401
FNA:1,1,_ZNSt12_Vector_baseI4TreeSaIS0_EE17_M_create_storageEm
FNL:2,556,558
FNA:2,1,_ZNSt6vectorI4TreeSaIS0_EEC2EmRKS1_
FNF:3
FNH:3
DA:98,1
DA:99,1
DA:132,1
DA:145,1
DA:146,1
DA:300,1
DA:332,1
DA:333,1
DA:334,1
DA:366,1
DA:368,2
DA:369,1
DA:370,1
DA:377,1
DA:380,1
DA:385,1
DA:388,1
DA:389,1
DA:396,1
DA:398,1
DA:399,1
DA:400,1
DA:401,1
DA:556,1
DA:557,1
DA:558,1
DA:733,1
DA:735,1
DA:736,1
DA:738,1
DA:873,1
DA:874,1
DA:893,1
DA:894,1
DA:1128,15
DA:1131,15
DA:1717,1
DA:1719,1
DA:1720,2
DA:1721,1
DA:1917,1
DA:1919,1
DA:1920,0
LF:43
LH:42
end_of_record
TN:
SF:/usr/include/c++/14/compare
FNF:0
FNH:0
DA:1224,0
DA:1233,0
LF:2
LH:0
end_of_record
TN:
SF:/usr/include/c++/14/ostream
FNF:0
FNH:0
DA:209,1
DA:210,1
LF:2
LH:2
end_of_record
