TN:
SF:/home/monika/Documents/problems/16514번： Travel the Skies/main.cpp
FNL:0,103,178
FNA:0,0,main
FNL:1,111,114
FNA:1,0,_ZZ4mainENKUliiE_clEii
FNL:2,23,23
FNA:2,0,_ZN5DinicC2Ei
FNL:3,25,31
FNA:3,0,_ZN5Dinic8add_edgeEiix
FNL:4,33,54
FNA:4,0,_ZN5Dinic3bfsEii
FNL:5,56,78
FNA:5,0,_ZN5Dinic3dfsEiix
FNL:6,80,93
FNA:6,0,_ZN5Dinic8max_flowEii
FNF:7
FNH:0
DA:23,0
DA:25,0
DA:27,0
DA:28,0
DA:29,0
DA:30,0
DA:31,0
DA:33,0
DA:35,0
DA:36,0
DA:37,0
DA:38,0
DA:40,0
DA:42,0
DA:43,0
DA:44,0
DA:46,0
DA:48,0
DA:49,0
DA:53,0
DA:54,0
DA:56,0
DA:58,0
DA:59,0
DA:60,0
DA:61,0
DA:62,0
DA:64,0
DA:65,0
DA:67,0
DA:68,0
DA:70,0
DA:71,0
DA:72,0
DA:77,0
DA:80,0
DA:82,0
DA:83,0
DA:85,0
DA:86,0
DA:88,0
DA:89,0
DA:92,0
DA:103,0
DA:105,0
DA:106,0
DA:109,0
DA:111,0
DA:113,0
DA:114,0
DA:116,0
DA:117,0
DA:118,0
DA:119,0
DA:121,0
DA:122,0
DA:124,0
DA:128,0
DA:129,0
DA:130,0
DA:132,0
DA:133,0
DA:134,0
DA:137,0
DA:139,0
DA:141,0
DA:142,0
DA:143,0
DA:147,0
DA:151,0
DA:153,0
DA:154,0
DA:157,0
DA:159,0
DA:160,0
DA:163,0
DA:165,0
DA:167,0
DA:169,0
DA:171,0
DA:172,0
DA:175,0
DA:177,0
DA:178,0
LF:84
LH:0
end_of_record
TN:
SF:/usr/include/c++/14/bits/alloc_traits.h
FNF:0
FNH:0
DA:515,0
DA:550,0
DA:577,0
DA:581,0
DA:599,0
DA:601,0
DA:993,0
DA:994,0
LF:8
LH:0
end_of_record
TN:
SF:/usr/include/c++/14/bits/allocator.h
FNF:0
FNH:0
DA:161,0
DA:166,0
DA:176,0
DA:182,0
DA:189,0
DA:191,0
DA:192,0
DA:193,0
DA:196,0
DA:203,0
DA:205,0
DA:206,0
DA:208,0
LF:13
LH:0
end_of_record
TN:
SF:/usr/include/c++/14/bits/cpp_type_traits.h
FNL:0,608,609
FNA:0,0,_ZSt12__miter_baseIPPiET_S2_
FNF:1
FNH:0
DA:608,0
DA:609,0
LF:2
LH:0
end_of_record
TN:
SF:/usr/include/c++/14/bits/deque.tcc
FNL:0,484,516
FNA:0,0,_ZNSt5dequeIiSaIiEE16_M_push_back_auxIJRKiEEEvDpOT_
FNL:1,576,584
FNA:1,0,_ZNSt5dequeIiSaIiEE16_M_pop_front_auxEv
FNL:2,934,976
FNA:2,0,_ZNSt5dequeIiSaIiEE17_M_reallocate_mapEmb
FNF:3
FNH:0
DA:484,0
DA:492,0
DA:493,0
DA:496,0
DA:497,0
DA:501,0
DA:507,0
DA:509,0
DA:516,0
DA:576,0
DA:579,0
DA:581,0
DA:582,0
DA:583,0
DA:584,0
DA:934,0
DA:937,0
DA:938,0
DA:939,0
DA:942,0
DA:944,0
DA:945,0
DA:946,0
DA:947,0
DA:948,0
DA:949,0
DA:952,0
DA:953,0
DA:954,0
DA:958,0
DA:959,0
DA:962,0
DA:963,0
DA:964,0
DA:965,0
DA:966,0
DA:968,0
DA:970,0
DA:971,0
DA:974,0
DA:975,0
DA:976,0
LF:42
LH:0
end_of_record
TN:
SF:/usr/include/c++/14/bits/move.h
FNL:0,137,138
FNA:0,0,_ZSt4moveIR10FlightEdgeEONSt16remove_referenceIT_E4typeEOS3_
FNA:0,0,_ZSt4moveIR4EdgeEONSt16remove_referenceIT_E4typeEOS3_
FNL:1,51,52
FNA:1,0,_ZSt11__addressofI10FlightEdgeEPT_RS1_
FNA:1,0,_ZSt11__addressofI4EdgeEPT_RS1_
FNA:1,0,_ZSt11__addressofISt6vectorI4EdgeSaIS1_EEEPT_RS4_
FNA:1,0,_ZSt11__addressofIiEPT_RS0_
FNL:2,71,72
FNA:2,0,_ZSt7forwardI10FlightEdgeEOT_RNSt16remove_referenceIS1_E4typeE
FNA:2,0,_ZSt7forwardI4EdgeEOT_RNSt16remove_referenceIS1_E4typeE
FNA:2,0,_ZSt7forwardIRK4EdgeEOT_RNSt16remove_referenceIS3_E4typeE
FNA:2,0,_ZSt7forwardIRKiEOT_RNSt16remove_referenceIS2_E4typeE
FNF:3
FNH:0
DA:51,0
DA:52,0
DA:71,0
DA:72,0
DA:137,0
DA:138,0
LF:6
LH:0
end_of_record
TN:
SF:/usr/include/c++/14/bits/new_allocator.h
FNL:0,126,152
FNA:0,0,_ZNSt15__new_allocatorI10FlightEdgeE8allocateEmPKv
FNA:0,0,_ZNSt15__new_allocatorI4EdgeE8allocateEmPKv
FNA:0,0,_ZNSt15__new_allocatorIPiE8allocateEmPKv
FNA:0,0,_ZNSt15__new_allocatorISt6vectorI4EdgeSaIS1_EEE8allocateEmPKv
FNA:0,0,_ZNSt15__new_allocatorIiE8allocateEmPKv
FNL:1,156,173
FNA:1,0,_ZNSt15__new_allocatorI10FlightEdgeE10deallocateEPS0_m
FNA:1,0,_ZNSt15__new_allocatorI4EdgeE10deallocateEPS0_m
FNA:1,0,_ZNSt15__new_allocatorIPiE10deallocateEPS0_m
FNA:1,0,_ZNSt15__new_allocatorISt6vectorI4EdgeSaIS1_EEE10deallocateEPS3_m
FNA:1,0,_ZNSt15__new_allocatorIiE10deallocateEPim
FNF:2
FNH:0
DA:88,0
DA:92,0
DA:126,0
DA:134,0
DA:138,0
DA:139,0
DA:140,0
DA:151,0
DA:156,0
DA:172,0
DA:233,0
LF:11
LH:0
end_of_record
TN:
SF:/usr/include/c++/14/bits/ptr_traits.h
FNL:0,205,209
FNA:0,0,_ZSt12__to_addressI10FlightEdgeEPT_S2_
FNA:0,0,_ZSt12__to_addressI4EdgeEPT_S2_
FNF:1
FNH:0
DA:205,0
DA:208,0
LF:2
LH:0
end_of_record
TN:
SF:/usr/include/c++/14/bits/stl_algobase.h
FNL:0,1022,1030
FNA:0,0,_ZSt4fillIN9__gnu_cxx17__normal_iteratorIPiSt6vectorIiSaIiEEEEiEvT_S7_RKT0_
FNL:1,1040,1040
FNA:1,0,_ZSt17__size_to_integerm
FNL:2,1140,1153
FNA:2,0,_ZSt10__fill_n_aIPimiET_S1_T0_RKT1_St26random_access_iterator_tag
FNL:3,1175,1182
FNA:3,0,_ZSt6fill_nIPimiET_S1_T0_RKT1_
FNL:4,233,241
FNA:4,0,_ZSt3minImERKT_S2_S2_
FNA:4,0,_ZSt3minIxERKT_S2_S2_
FNL:5,257,265
FNA:5,0,_ZSt3maxImERKT_S2_S2_
FNL:6,316,318
FNA:6,0,_ZSt12__niter_baseIP10FlightEdgeET_S2_
FNA:6,0,_ZSt12__niter_baseIP4EdgeET_S2_
FNA:6,0,_ZSt12__niter_baseIPPiET_S2_
FNL:7,353,354
FNA:7,0,_ZSt12__niter_wrapIPPiET_RKS2_S2_
FNL:8,398,408
FNA:8,0,_ZNSt11__copy_moveILb0ELb0ESt26random_access_iterator_tagE8__copy_mIPPiS4_EET0_T_S6_S5_
FNL:9,412,413
FNA:9,0,_ZNSt11__copy_moveILb0ELb0ESt26random_access_iterator_tagE12__assign_oneIPiS3_EEvPT_PT0_
FNL:10,448,457
FNA:10,0,_ZNSt11__copy_moveILb0ELb1ESt26random_access_iterator_tagE8__copy_mIPiS3_EEPT0_PT_S7_S5_
FNL:11,512,522
FNA:11,0,_ZSt14__copy_move_a2ILb0EPPiS1_ET1_T0_S3_S2_
FNL:12,547,548
FNA:12,0,_ZSt14__copy_move_a1ILb0EPPiS1_ET1_T0_S3_S2_
FNL:13,553,559
FNA:13,0,_ZSt13__copy_move_aILb0EPPiS1_ET1_T0_S3_S2_
FNL:14,642,652
FNA:14,0,_ZSt4copyIPPiS1_ET0_T_S3_S2_
FNL:15,728,735
FNA:15,0,_ZNSt20__copy_move_backwardILb0ELb0ESt26random_access_iterator_tagE13__copy_move_bIPPiS4_EET0_T_S6_S5_
FNL:16,762,771
FNA:16,0,_ZNSt20__copy_move_backwardILb0ELb1ESt26random_access_iterator_tagE13__copy_move_bIPiS3_EEPT0_PT_S7_S5_
FNL:17,777,790
FNA:17,0,_ZSt23__copy_move_backward_a2ILb0EPPiS1_ET1_T0_S3_S2_
FNL:18,795,796
FNA:18,0,_ZSt23__copy_move_backward_a1ILb0EPPiS1_ET1_T0_S3_S2_
FNL:19,823,829
FNA:19,0,_ZSt22__copy_move_backward_aILb0EPPiS1_ET1_T0_S3_S2_
FNL:20,878,889
FNA:20,0,_ZSt13copy_backwardIPPiS1_ET0_T_S3_S2_
FNL:21,947,953
FNA:21,0,_ZSt9__fill_a1IPiiEN9__gnu_cxx11__enable_ifIXsrSt11__is_scalarIT0_E7__valueEvE6__typeET_S8_RKS4_
FNL:22,978,981
FNA:22,0,_ZSt9__fill_a1IPiSt6vectorIiSaIiEEiEvN9__gnu_cxx17__normal_iteratorIT_T0_EES8_RKT1_
FNL:23,997,998
FNA:23,0,_ZSt8__fill_aIN9__gnu_cxx17__normal_iteratorIPiSt6vectorIiSaIiEEEEiEvT_S7_RKT0_
FNA:23,0,_ZSt8__fill_aIPiiEvT_S1_RKT0_
FNF:24
FNH:0
DA:233,0
DA:238,0
DA:239,0
DA:240,0
DA:257,0
DA:262,0
DA:263,0
DA:264,0
DA:316,0
DA:318,0
DA:353,0
DA:354,0
DA:398,0
DA:401,0
DA:403,0
DA:404,0
DA:405,0
DA:407,0
DA:412,0
DA:413,0
DA:448,0
DA:450,0
DA:451,0
DA:452,0
DA:453,0
DA:455,0
DA:456,0
DA:512,0
DA:516,0
DA:518,0
DA:521,0
DA:547,0
DA:548,0
DA:553,0
DA:555,0
DA:558,0
DA:642,0
DA:651,0
DA:728,0
DA:731,0
DA:732,0
DA:733,0
DA:734,0
DA:762,0
DA:764,0
DA:765,0
DA:766,0
DA:767,0
DA:769,0
DA:770,0
DA:777,0
DA:781,0
DA:783,0
DA:787,0
DA:789,0
DA:795,0
DA:796,0
DA:823,0
DA:825,0
DA:828,0
DA:878,0
DA:888,0
DA:947,0
DA:950,0
DA:951,0
DA:952,0
DA:953,0
DA:978,0
DA:981,0
DA:997,0
DA:998,0
DA:1022,0
DA:1029,0
DA:1030,0
DA:1040,0
DA:1140,0
DA:1146,0
DA:1147,0
DA:1151,0
DA:1152,0
DA:1175,0
DA:1180,0
DA:1181,0
LF:83
LH:0
end_of_record
TN:
SF:/usr/include/c++/14/bits/stl_construct.h
FNL:0,109,120
FNA:0,0,_ZSt10_ConstructISt6vectorI4EdgeSaIS1_EEJEEvPT_DpOT0_
FNA:0,0,_ZSt10_ConstructIiJEEvPT_DpOT0_
FNL:1,146,153
FNA:1,0,_ZSt8_DestroyI10FlightEdgeEvPT_
FNA:1,0,_ZSt8_DestroyI4EdgeEvPT_
FNA:1,0,_ZSt8_DestroyISt6vectorI4EdgeSaIS1_EEEvPT_
FNA:1,0,_ZSt8_DestroyIiEvPT_
FNL:2,160,164
FNA:2,0,_ZNSt12_Destroy_auxILb0EE9__destroyIP10FlightEdgeEEvT_S4_
FNA:2,0,_ZNSt12_Destroy_auxILb0EE9__destroyIP4EdgeEEvT_S4_
FNA:2,0,_ZNSt12_Destroy_auxILb0EE9__destroyIPSt6vectorI4EdgeSaIS3_EEEEvT_S7_
FNA:2,0,_ZNSt12_Destroy_auxILb0EE9__destroyIPiEEvT_S3_
FNL:3,172,172
FNA:3,0,_ZNSt12_Destroy_auxILb1EE9__destroyIP10FlightEdgeEEvT_S4_
FNA:3,0,_ZNSt12_Destroy_auxILb1EE9__destroyIP4EdgeEEvT_S4_
FNA:3,0,_ZNSt12_Destroy_auxILb1EE9__destroyIPiEEvT_S3_
FNL:4,182,197
FNA:4,0,_ZSt8_DestroyIP10FlightEdgeEvT_S2_
FNA:4,0,_ZSt8_DestroyIP4EdgeEvT_S2_
FNA:4,0,_ZSt8_DestroyIPSt6vectorI4EdgeSaIS1_EEEvT_S5_
FNA:4,0,_ZSt8_DestroyIPiEvT_S1_
FNL:5,80,89
FNA:5,0,_ZSt10destroy_atI10FlightEdgeEvPT_
FNA:5,0,_ZSt10destroy_atI4EdgeEvPT_
FNA:5,0,_ZSt10destroy_atISt6vectorI4EdgeSaIS1_EEEvPT_
FNA:5,0,_ZSt10destroy_atIiEvPT_
FNL:6,94,97
FNA:6,0,_ZSt12construct_atI10FlightEdgeJS0_EEDTgsnwcvPvLi0E_T_pispcl7declvalIT0_EEEEPS2_DpOS3_
FNA:6,0,_ZSt12construct_atI4EdgeJRKS0_EEDTgsnwcvPvLi0E_T_pispcl7declvalIT0_EEEEPS4_DpOS5_
FNA:6,0,_ZSt12construct_atI4EdgeJS0_EEDTgsnwcvPvLi0E_T_pispcl7declvalIT0_EEEEPS2_DpOS3_
FNA:6,0,_ZSt12construct_atISt6vectorI4EdgeSaIS1_EEJEEDTgsnwcvPvLi0E_T_pispcl7declvalIT0_EEEEPS5_DpOS6_
FNA:6,0,_ZSt12construct_atIiJEEDTgsnwcvPvLi0E_T_pispcl7declvalIT0_EEEEPS1_DpOS2_
FNA:6,0,_ZSt12construct_atIiJRKiEEDTgsnwcvPvLi0E_T_pispcl7declvalIT0_EEEEPS3_DpOS4_
FNF:7
FNH:0
DA:80,0
DA:88,0
DA:89,0
DA:94,0
DA:97,0
DA:109,0
DA:112,0
DA:115,0
DA:116,0
DA:119,0
DA:146,0
DA:149,0
DA:153,0
DA:160,0
DA:162,0
DA:163,0
DA:164,0
DA:172,0
DA:182,0
DA:192,0
DA:193,0
DA:196,0
LF:22
LH:0
end_of_record
TN:
SF:/usr/include/c++/14/bits/stl_deque.h
FNL:0,1027,1028
FNA:0,0,_ZNSt5dequeIiSaIiEED2Ev
FNL:1,1151,1152
FNA:1,0,_ZNSt5dequeIiSaIiEE5beginEv
FNL:2,1170,1171
FNA:2,0,_ZNSt5dequeIiSaIiEE3endEv
FNL:3,1268,1269
FNA:3,0,_ZNKSt5dequeIiSaIiEE4sizeEv
FNL:4,1274,1275
FNA:4,0,_ZNKSt5dequeIiSaIiEE8max_sizeEv
FNL:5,131,132
FNA:5,0,_ZNSt15_Deque_iteratorIiRiPiE14_S_buffer_sizeEv
FNL:6,1347,1348
FNA:6,0,_ZNKSt5dequeIiSaIiEE5emptyEv
FNL:7,1444,1448
FNA:7,0,_ZNSt5dequeIiSaIiEE5frontEv
FNL:8,151,152
FNA:8,0,_ZNSt15_Deque_iteratorIiRiPiEC2Ev
FNL:9,1538,1549
FNA:9,0,_ZNSt5dequeIiSaIiEE9push_backERKi
FNL:10,1574,1586
FNA:10,0,_ZNSt5dequeIiSaIiEE9pop_frontEv
FNL:11,168,170
FNA:11,0,_ZNSt15_Deque_iteratorIiRiPiEC2ERKS2_
FNL:12,181,182
FNA:12,0,_ZNKSt15_Deque_iteratorIiRiPiEdeEv
FNL:13,1876,1881
FNA:13,0,_ZNSt5dequeIiSaIiEE11_S_max_sizeERKS0_
FNL:14,2087,2092
FNA:14,0,_ZNSt5dequeIiSaIiEE15_M_destroy_dataESt15_Deque_iteratorIiRiPiES5_RKS0_
FNL:15,2168,2173
FNA:15,0,_ZNSt5dequeIiSaIiEE22_M_reserve_map_at_backEm
FNL:16,263,268
FNA:16,0,_ZNSt15_Deque_iteratorIiRiPiE11_M_set_nodeEPS1_
FNL:17,272,273
FNA:17,0,_ZSteqRKSt15_Deque_iteratorIiRiPiES4_
FNL:18,370,376
FNA:18,0,_ZStmiRKSt15_Deque_iteratorIiRiPiES4_
FNL:19,458,460
FNA:19,0,_ZNSt11_Deque_baseIiSaIiEEC2Ev
FNL:20,516,518
FNA:20,0,_ZNSt11_Deque_baseIiSaIiEE16_Deque_impl_dataC2Ev
FNL:21,545,548
FNA:21,0,_ZNSt11_Deque_baseIiSaIiEE11_Deque_implC2Ev
FNL:22,568,569
FNA:22,0,_ZNSt11_Deque_baseIiSaIiEE19_M_get_Tp_allocatorEv
FNL:23,572,573
FNA:23,0,_ZNKSt11_Deque_baseIiSaIiEE19_M_get_Tp_allocatorEv
FNL:24,576,577
FNA:24,0,_ZNKSt11_Deque_baseIiSaIiEE20_M_get_map_allocatorEv
FNL:25,580,584
FNA:25,0,_ZNSt11_Deque_baseIiSaIiEE16_M_allocate_nodeEv
FNL:26,587,591
FNA:26,0,_ZNSt11_Deque_baseIiSaIiEE18_M_deallocate_nodeEPi
FNL:27,594,598
FNA:27,0,_ZNSt11_Deque_baseIiSaIiEE15_M_allocate_mapEm
FNL:28,601,605
FNA:28,0,_ZNSt11_Deque_baseIiSaIiEE17_M_deallocate_mapEPPim
FNL:29,617,626
FNA:29,0,_ZNSt11_Deque_baseIiSaIiEED2Ev
FNL:30,638,673
FNA:30,0,_ZNSt11_Deque_baseIiSaIiEE17_M_initialize_mapEm
FNL:31,677,691
FNA:31,0,_ZNSt11_Deque_baseIiSaIiEE15_M_create_nodesEPPiS3_
FNL:32,695,701
FNA:32,0,_ZNSt11_Deque_baseIiSaIiEE16_M_destroy_nodesEPPiS3_
FNL:33,855,855
FNA:33,0,_ZNSt5dequeIiSaIiEEC2Ev
FNL:34,96,98
FNA:34,0,_ZSt16__deque_buf_sizem
FNF:35
FNH:0
DA:96,0
DA:98,0
DA:131,0
DA:132,0
DA:151,0
DA:152,0
DA:168,0
DA:169,0
DA:170,0
DA:181,0
DA:182,0
DA:263,0
DA:265,0
DA:266,0
DA:267,0
DA:268,0
DA:272,0
DA:273,0
DA:370,0
DA:372,0
DA:373,0
DA:374,0
DA:375,0
DA:458,0
DA:459,0
DA:460,0
DA:516,0
DA:517,0
DA:518,0
DA:545,0
DA:547,0
DA:548,0
DA:568,0
DA:569,0
DA:572,0
DA:573,0
DA:576,0
DA:577,0
DA:580,0
DA:583,0
DA:587,0
DA:590,0
DA:591,0
DA:594,0
DA:596,0
DA:597,0
DA:601,0
DA:603,0
DA:605,0
DA:617,0
DA:620,0
DA:622,0
DA:623,0
DA:624,0
DA:626,0
DA:638,0
DA:641,0
DA:644,0
DA:645,0
DA:646,0
DA:653,0
DA:654,0
DA:655,0
DA:658,0
DA:659,0
DA:661,0
DA:662,0
DA:663,0
DA:664,0
DA:667,0
DA:668,0
DA:669,0
DA:670,0
DA:671,0
DA:672,0
DA:673,0
DA:677,0
DA:683,0
DA:684,0
DA:686,0
DA:688,0
DA:689,0
DA:691,0
DA:695,0
DA:699,0
DA:700,0
DA:701,0
DA:855,0
DA:1027,0
DA:1028,0
DA:1151,0
DA:1152,0
DA:1170,0
DA:1171,0
DA:1268,0
DA:1269,0
DA:1274,0
DA:1275,0
DA:1347,0
DA:1348,0
DA:1444,0
DA:1447,0
DA:1538,0
DA:1540,0
DA:1541,0
DA:1543,0
DA:1545,0
DA:1548,0
DA:1549,0
DA:1574,0
DA:1577,0
DA:1578,0
DA:1580,0
DA:1582,0
DA:1585,0
DA:1586,0
DA:1876,0
DA:1878,0
DA:1879,0
DA:1880,0
DA:2087,0
DA:2092,0
DA:2168,0
DA:2170,0
DA:2171,0
DA:2172,0
DA:2173,0
LF:127
LH:0
end_of_record
TN:
SF:/usr/include/c++/14/bits/stl_iterator.h
FNL:0,1067,1068
FNA:0,0,_ZN9__gnu_cxx17__normal_iteratorIP10FlightEdgeSt6vectorIS1_SaIS1_EEEC2ERKS2_
FNA:0,0,_ZN9__gnu_cxx17__normal_iteratorIP10FlightEdgevEC2ERKS2_
FNA:0,0,_ZN9__gnu_cxx17__normal_iteratorIP4EdgeSt6vectorIS1_SaIS1_EEEC2ERKS2_
FNA:0,0,_ZN9__gnu_cxx17__normal_iteratorIP4EdgevEC2ERKS2_
FNA:0,0,_ZN9__gnu_cxx17__normal_iteratorIPiSt6vectorIiSaIiEEEC2ERKS1_
FNL:1,1090,1091
FNA:1,0,_ZNK9__gnu_cxx17__normal_iteratorIP10FlightEdgeSt6vectorIS1_SaIS1_EEEdeEv
FNA:1,0,_ZNK9__gnu_cxx17__normal_iteratorIP10FlightEdgevEdeEv
FNA:1,0,_ZNK9__gnu_cxx17__normal_iteratorIP4EdgeSt6vectorIS1_SaIS1_EEEdeEv
FNA:1,0,_ZNK9__gnu_cxx17__normal_iteratorIP4EdgevEdeEv
FNL:2,1100,1104
FNA:2,0,_ZN9__gnu_cxx17__normal_iteratorIP10FlightEdgeSt6vectorIS1_SaIS1_EEEppEv
FNA:2,0,_ZN9__gnu_cxx17__normal_iteratorIP10FlightEdgevEppEv
FNA:2,0,_ZN9__gnu_cxx17__normal_iteratorIP4EdgeSt6vectorIS1_SaIS1_EEEppEv
FNA:2,0,_ZN9__gnu_cxx17__normal_iteratorIP4EdgevEppEv
FNL:3,1148,1149
FNA:3,0,_ZNK9__gnu_cxx17__normal_iteratorIP10FlightEdgeSt6vectorIS1_SaIS1_EEEmiEl
FNL:4,1153,1154
FNA:4,0,_ZNK9__gnu_cxx17__normal_iteratorIP10FlightEdgeSt6vectorIS1_SaIS1_EEE4baseEv
FNA:4,0,_ZNK9__gnu_cxx17__normal_iteratorIP10FlightEdgevE4baseEv
FNA:4,0,_ZNK9__gnu_cxx17__normal_iteratorIP4EdgeSt6vectorIS1_SaIS1_EEE4baseEv
FNA:4,0,_ZNK9__gnu_cxx17__normal_iteratorIP4EdgevE4baseEv
FNA:4,0,_ZNK9__gnu_cxx17__normal_iteratorIPiSt6vectorIiSaIiEEE4baseEv
FNL:5,1188,1194
FNA:5,0,_ZN9__gnu_cxxeqIP10FlightEdgeSt6vectorIS1_SaIS1_EEEEbRKNS_17__normal_iteratorIT_T0_EESB_QrqXeqcldtfL0p_4baseEcldtfL0p0_4baseERSt14convertible_toIbEE
FNA:5,0,_ZN9__gnu_cxxeqIP4EdgeSt6vectorIS1_SaIS1_EEEEbRKNS_17__normal_iteratorIT_T0_EESB_QrqXeqcldtfL0p_4baseEcldtfL0p0_4baseERSt14convertible_toIbEE
FNL:6,1325,1328
FNA:6,0,_ZN9__gnu_cxxmiIP10FlightEdgeSt6vectorIS1_SaIS1_EEEENS_17__normal_iteratorIT_T0_E15difference_typeERKS9_SC_
FNA:6,0,_ZN9__gnu_cxxmiIP4EdgeSt6vectorIS1_SaIS1_EEEENS_17__normal_iteratorIT_T0_E15difference_typeERKS9_SC_
FNF:7
FNH:0
DA:1067,0
DA:1068,0
DA:1090,0
DA:1091,0
DA:1100,0
DA:1102,0
DA:1103,0
DA:1148,0
DA:1149,0
DA:1153,0
DA:1154,0
DA:1188,0
DA:1194,0
DA:1325,0
DA:1328,0
LF:15
LH:0
end_of_record
TN:
SF:/usr/include/c++/14/bits/stl_iterator_base_types.h
FNF:0
FNH:0
DA:240,0
LF:1
LH:0
end_of_record
TN:
SF:/usr/include/c++/14/bits/stl_queue.h
FNL:0,166,167
FNA:0,0,_ZNSt5queueIiSt5dequeIiSaIiEEEC2IS2_vEEv
FNL:1,216,217
FNA:1,0,_ZNKSt5queueIiSt5dequeIiSaIiEEE5emptyEv
FNL:2,231,235
FNA:2,0,_ZNSt5queueIiSt5dequeIiSaIiEEE5frontEv
FNL:3,283,284
FNA:3,0,_ZNSt5queueIiSt5dequeIiSaIiEEE4pushERKi
FNL:4,316,320
FNA:4,0,_ZNSt5queueIiSt5dequeIiSaIiEEE3popEv
FNF:5
FNH:0
DA:166,0
DA:167,0
DA:216,0
DA:217,0
DA:231,0
DA:234,0
DA:283,0
DA:284,0
DA:316,0
DA:319,0
DA:320,0
LF:11
LH:0
end_of_record
TN:
SF:/usr/include/c++/14/bits/stl_uninitialized.h
FNL:0,1067,1077
FNA:0,0,_ZSt19__relocate_object_aI10FlightEdgeS0_SaIS0_EEvPT_PT0_RT1_
FNA:0,0,_ZSt19__relocate_object_aI4EdgeS0_SaIS0_EEvPT_PT0_RT1_
FNL:1,1089,1106
FNA:1,0,_ZSt14__relocate_a_1IP10FlightEdgeN9__gnu_cxx17__normal_iteratorIS1_vEESaIS0_EET0_T_S7_S6_RT1_
FNA:1,0,_ZSt14__relocate_a_1IP4EdgeN9__gnu_cxx17__normal_iteratorIS1_vEESaIS0_EET0_T_S7_S6_RT1_
FNL:2,1112,1132
FNA:2,0,_ZSt14__relocate_a_1I10FlightEdgeS0_ENSt9enable_ifIXsrSt24__is_bitwise_relocatableIT_vE5valueEPS3_E4typeES5_S5_S5_RSaIT0_E
FNA:2,0,_ZSt14__relocate_a_1I4EdgeS0_ENSt9enable_ifIXsrSt24__is_bitwise_relocatableIT_vE5valueEPS3_E4typeES5_S5_S5_RSaIT0_E
FNL:3,1139,1148
FNA:3,0,_ZSt12__relocate_aIP10FlightEdgeS1_SaIS0_EET0_T_S4_S3_RT1_
FNA:3,0,_ZSt12__relocate_aIP4EdgeS1_SaIS0_EET0_T_S4_S3_RT1_
FNL:4,637,651
FNA:4,0,_ZNSt27__uninitialized_default_n_1ILb0EE18__uninit_default_nIPSt6vectorI4EdgeSaIS3_EEmEET_S7_T0_
FNA:4,0,_ZNSt27__uninitialized_default_n_1ILb0EE18__uninit_default_nIPimEET_S3_T0_
FNL:5,660,671
FNA:5,0,_ZNSt27__uninitialized_default_n_1ILb1EE18__uninit_default_nIPimEET_S3_T0_
FNL:6,696,713
FNA:6,0,_ZSt25__uninitialized_default_nIPSt6vectorI4EdgeSaIS1_EEmET_S5_T0_
FNA:6,0,_ZSt25__uninitialized_default_nIPimET_S1_T0_
FNL:7,777,779
FNA:7,0,_ZSt27__uninitialized_default_n_aIPSt6vectorI4EdgeSaIS1_EEmS3_ET_S5_T0_RSaIT1_E
FNA:7,0,_ZSt27__uninitialized_default_n_aIPimiET_S1_T0_RSaIT1_E
FNF:8
FNH:0
DA:637,0
DA:639,0
DA:642,0
DA:643,0
DA:644,0
DA:660,0
DA:662,0
DA:665,0
DA:666,0
DA:667,0
DA:668,0
DA:670,0
DA:696,0
DA:699,0
DA:701,0
DA:707,0
DA:712,0
DA:777,0
DA:779,0
DA:1067,0
DA:1075,0
DA:1076,0
DA:1077,0
DA:1089,0
DA:1101,0
DA:1102,0
DA:1103,0
DA:1105,0
DA:1112,0
DA:1116,0
DA:1117,0
DA:1120,0
DA:1124,0
DA:1125,0
DA:1126,0
DA:1129,0
DA:1131,0
DA:1139,0
DA:1145,0
DA:1147,0
LF:40
LH:0
end_of_record
TN:
SF:/usr/include/c++/14/bits/stl_vector.h
FNL:0,1128,1132
FNA:0,0,_ZNSt6vectorI4EdgeSaIS0_EEixEm
FNA:0,0,_ZNSt6vectorIS_I4EdgeSaIS0_EESaIS2_EEixEm
FNA:0,0,_ZNSt6vectorIiSaIiEEixEm
FNL:1,1235,1239
FNA:1,0,_ZNSt6vectorI10FlightEdgeSaIS0_EE4backEv
FNL:2,1283,1295
FNA:2,0,_ZNSt6vectorI4EdgeSaIS0_EE9push_backERKS0_
FNL:3,1300,1301
FNA:3,0,_ZNSt6vectorI10FlightEdgeSaIS0_EE9push_backEOS0_
FNL:4,136,142
FNA:4,0,_ZNSt12_Vector_baseI4EdgeSaIS0_EE12_Vector_implC2EvQ26is_default_constructible_vIN9__gnu_cxx14__alloc_traitsIT0_NS6_10value_typeEE6rebindIT_E5otherEE
FNL:5,145,147
FNA:5,0,_ZNSt12_Vector_baseISt6vectorI4EdgeSaIS1_EESaIS3_EE12_Vector_implC2ERKS4_
FNA:5,0,_ZNSt12_Vector_baseIiSaIiEE12_Vector_implC2ERKS0_
FNL:6,1717,1722
FNA:6,0,_ZNSt6vectorIS_I4EdgeSaIS0_EESaIS2_EE21_M_default_initializeEm
FNA:6,0,_ZNSt6vectorIiSaIiEE21_M_default_initializeEm
FNL:7,1906,1913
FNA:7,0,_ZNKSt6vectorI10FlightEdgeSaIS0_EE12_M_check_lenEmPKc
FNA:7,0,_ZNKSt6vectorI4EdgeSaIS0_EE12_M_check_lenEmPKc
FNL:8,1917,1923
FNA:8,0,_ZNSt6vectorIS_I4EdgeSaIS0_EESaIS2_EE17_S_check_init_lenEmRKS3_
FNA:8,0,_ZNSt6vectorIiSaIiEE17_S_check_init_lenEmRKS0_
FNL:9,1926,1935
FNA:9,0,_ZNSt6vectorI10FlightEdgeSaIS0_EE11_S_max_sizeERKS1_
FNA:9,0,_ZNSt6vectorI4EdgeSaIS0_EE11_S_max_sizeERKS1_
FNA:9,0,_ZNSt6vectorIS_I4EdgeSaIS0_EESaIS2_EE11_S_max_sizeERKS3_
FNA:9,0,_ZNSt6vectorIiSaIiEE11_S_max_sizeERKS0_
FNL:10,300,301
FNA:10,0,_ZNSt12_Vector_baseI10FlightEdgeSaIS0_EE19_M_get_Tp_allocatorEv
FNA:10,0,_ZNSt12_Vector_baseI4EdgeSaIS0_EE19_M_get_Tp_allocatorEv
FNA:10,0,_ZNSt12_Vector_baseISt6vectorI4EdgeSaIS1_EESaIS3_EE19_M_get_Tp_allocatorEv
FNA:10,0,_ZNSt12_Vector_baseIiSaIiEE19_M_get_Tp_allocatorEv
FNL:11,305,306
FNA:11,0,_ZNKSt12_Vector_baseI10FlightEdgeSaIS0_EE19_M_get_Tp_allocatorEv
FNA:11,0,_ZNKSt12_Vector_baseI4EdgeSaIS0_EE19_M_get_Tp_allocatorEv
FNL:12,314,314
FNA:12,0,_ZNSt12_Vector_baseI4EdgeSaIS0_EEC2Ev
FNL:13,332,334
FNA:13,0,_ZNSt12_Vector_baseISt6vectorI4EdgeSaIS1_EESaIS3_EEC2EmRKS4_
FNA:13,0,_ZNSt12_Vector_baseIiSaIiEEC2EmRKS0_
FNL:14,366,370
FNA:14,0,_ZNSt12_Vector_baseI10FlightEdgeSaIS0_EED2Ev
FNA:14,0,_ZNSt12_Vector_baseI4EdgeSaIS0_EED2Ev
FNA:14,0,_ZNSt12_Vector_baseISt6vectorI4EdgeSaIS1_EESaIS3_EED2Ev
FNA:14,0,_ZNSt12_Vector_baseIiSaIiEED2Ev
FNL:15,377,381
FNA:15,0,_ZNSt12_Vector_baseI10FlightEdgeSaIS0_EE11_M_allocateEm
FNA:15,0,_ZNSt12_Vector_baseI4EdgeSaIS0_EE11_M_allocateEm
FNA:15,0,_ZNSt12_Vector_baseISt6vectorI4EdgeSaIS1_EESaIS3_EE11_M_allocateEm
FNA:15,0,_ZNSt12_Vector_baseIiSaIiEE11_M_allocateEm
FNL:16,385,390
FNA:16,0,_ZNSt12_Vector_baseI10FlightEdgeSaIS0_EE13_M_deallocateEPS0_m
FNA:16,0,_ZNSt12_Vector_baseI4EdgeSaIS0_EE13_M_deallocateEPS0_m
FNA:16,0,_ZNSt12_Vector_baseISt6vectorI4EdgeSaIS1_EESaIS3_EE13_M_deallocateEPS3_m
FNA:16,0,_ZNSt12_Vector_baseIiSaIiEE13_M_deallocateEPim
FNL:17,396,401
FNA:17,0,_ZNSt12_Vector_baseISt6vectorI4EdgeSaIS1_EESaIS3_EE17_M_create_storageEm
FNA:17,0,_ZNSt12_Vector_baseIiSaIiEE17_M_create_storageEm
FNL:18,504,514
FNA:18,0,_ZNSt6vectorI10FlightEdgeSaIS0_EE11_S_relocateEPS0_S3_S3_RS1_
FNA:18,0,_ZNSt6vectorI4EdgeSaIS0_EE11_S_relocateEPS0_S3_S3_RS1_
FNL:19,531,531
FNA:19,0,_ZNSt6vectorI4EdgeSaIS0_EEC2Ev
FNL:20,556,558
FNA:20,0,_ZNSt6vectorIS_I4EdgeSaIS0_EESaIS2_EEC2EmRKS3_
FNA:20,0,_ZNSt6vectorIiSaIiEEC2EmRKS0_
FNL:21,733,738
FNA:21,0,_ZNSt6vectorI10FlightEdgeSaIS0_EED2Ev
FNA:21,0,_ZNSt6vectorI4EdgeSaIS0_EED2Ev
FNA:21,0,_ZNSt6vectorIS_I4EdgeSaIS0_EESaIS2_EED2Ev
FNA:21,0,_ZNSt6vectorIiSaIiEED2Ev
FNL:22,873,874
FNA:22,0,_ZNSt6vectorI10FlightEdgeSaIS0_EE5beginEv
FNA:22,0,_ZNSt6vectorI4EdgeSaIS0_EE5beginEv
FNA:22,0,_ZNSt6vectorIiSaIiEE5beginEv
FNL:23,893,894
FNA:23,0,_ZNSt6vectorI10FlightEdgeSaIS0_EE3endEv
FNA:23,0,_ZNSt6vectorI4EdgeSaIS0_EE3endEv
FNA:23,0,_ZNSt6vectorIiSaIiEE3endEv
FNL:24,98,100
FNA:24,0,_ZNSt12_Vector_baseI4EdgeSaIS0_EE17_Vector_impl_dataC2Ev
FNA:24,0,_ZNSt12_Vector_baseISt6vectorI4EdgeSaIS1_EESaIS3_EE17_Vector_impl_dataC2Ev
FNA:24,0,_ZNSt12_Vector_baseIiSaIiEE17_Vector_impl_dataC2Ev
FNL:25,992,993
FNA:25,0,_ZNKSt6vectorI10FlightEdgeSaIS0_EE4sizeEv
FNA:25,0,_ZNKSt6vectorI4EdgeSaIS0_EE4sizeEv
FNL:26,998,999
FNA:26,0,_ZNKSt6vectorI10FlightEdgeSaIS0_EE8max_sizeEv
FNA:26,0,_ZNKSt6vectorI4EdgeSaIS0_EE8max_sizeEv
FNF:27
FNH:0
DA:98,0
DA:99,0
DA:100,0
DA:136,0
DA:141,0
DA:142,0
DA:145,0
DA:146,0
DA:147,0
DA:300,0
DA:301,0
DA:305,0
DA:306,0
DA:314,0
DA:332,0
DA:333,0
DA:334,0
DA:366,0
DA:368,0
DA:369,0
DA:370,0
DA:377,0
DA:380,0
DA:385,0
DA:388,0
DA:389,0
DA:390,0
DA:396,0
DA:398,0
DA:399,0
DA:400,0
DA:401,0
DA:504,0
DA:509,0
DA:531,0
DA:556,0
DA:557,0
DA:558,0
DA:733,0
DA:735,0
DA:736,0
DA:738,0
DA:873,0
DA:874,0
DA:893,0
DA:894,0
DA:992,0
DA:993,0
DA:998,0
DA:999,0
DA:1128,0
DA:1131,0
DA:1235,0
DA:1238,0
DA:1283,0
DA:1285,0
DA:1288,0
DA:1290,0
DA:1294,0
DA:1295,0
DA:1300,0
DA:1301,0
DA:1717,0
DA:1719,0
DA:1720,0
DA:1721,0
DA:1722,0
DA:1906,0
DA:1908,0
DA:1909,0
DA:1911,0
DA:1912,0
DA:1917,0
DA:1919,0
DA:1920,0
DA:1922,0
DA:1926,0
DA:1931,0
DA:1933,0
DA:1934,0
LF:80
LH:0
end_of_record
TN:
SF:/usr/include/c++/14/bits/vector.tcc
FNL:0,111,127
FNA:0,0,_ZNSt6vectorI10FlightEdgeSaIS0_EE12emplace_backIJS0_EEERS0_DpOT_
FNL:1,581,695
FNA:1,0,_ZNSt6vectorI10FlightEdgeSaIS0_EE17_M_realloc_appendIJS0_EEEvDpOT_
FNA:1,0,_ZNSt6vectorI4EdgeSaIS0_EE17_M_realloc_appendIJRKS0_EEEvDpOT_
FNL:2,607,609
FNA:2,0,_ZZNSt6vectorI10FlightEdgeSaIS0_EE17_M_realloc_appendIJS0_EEEvDpOT_EN6_GuardC2EPS0_mRS1_
FNA:2,0,_ZZNSt6vectorI4EdgeSaIS0_EE17_M_realloc_appendIJRKS0_EEEvDpOT_EN6_GuardC2EPS0_mRS1_
FNL:3,612,617
FNA:3,0,_ZZNSt6vectorI10FlightEdgeSaIS0_EE17_M_realloc_appendIJS0_EEEvDpOT_EN6_GuardD2Ev
FNA:3,0,_ZZNSt6vectorI4EdgeSaIS0_EE17_M_realloc_appendIJRKS0_EEEvDpOT_EN6_GuardD2Ev
FNF:4
FNH:0
DA:111,0
DA:114,0
DA:117,0
DA:119,0
DA:123,0
DA:125,0
DA:581,0
DA:590,0
DA:591,0
DA:592,0
DA:593,0
DA:594,0
DA:595,0
DA:596,0
DA:597,0
DA:607,0
DA:608,0
DA:609,0
DA:612,0
DA:614,0
DA:616,0
DA:617,0
DA:624,0
DA:634,0
DA:635,0
DA:647,0
DA:648,0
DA:649,0
DA:686,0
DA:687,0
DA:688,0
DA:692,0
DA:693,0
DA:694,0
DA:695,0
LF:35
LH:0
end_of_record
TN:
SF:/usr/include/c++/14/new
FNL:0,179,180
FNA:0,0,_ZnwmPv
FNF:1
FNH:0
DA:179,0
DA:180,0
LF:2
LH:0
end_of_record
TN:
SF:/usr/include/c++/14/type_traits
FNL:0,3832,3839
FNA:0,0,_ZSt21is_constant_evaluatedv
FNF:1
FNH:0
DA:3832,0
DA:3835,0
LF:2
LH:0
end_of_record
TN:
SF:/usr/include/c++/14/x86_64-redhat-linux/bits/c++config.h
FNF:0
FNH:0
DA:2394,0
LF:1
LH:0
end_of_record
