TN:
SF:/home/monika/Documents/problems/18712번： Ice-cream Knapsack/main.cpp
FNL:0,13,63
FNA:0,1,main
FNL:1,40,41
FNA:1,8,_ZZ4mainENKUlRK3IceS1_E_clES1_S1_
FNL:2,50,51
FNA:2,4,_ZZ4mainENKUlRK3IceS1_E0_clES1_S1_
FNF:3
FNH:3
DA:13,1
DA:15,1
DA:16,1
DA:19,1
DA:21,2
DA:24,1
DA:26,3
DA:27,6
DA:29,5
DA:31,6
DA:33,5
DA:35,1
DA:36,6
DA:38,5
DA:40,1
DA:41,8
DA:43,1
DA:44,1
DA:45,6
DA:47,5
DA:48,3
DA:50,1
DA:51,4
DA:53,1
DA:54,4
DA:56,3
DA:59,1
DA:60,1
DA:62,1
LF:29
LH:29
end_of_record
TN:
SF:/usr/include/c++/14/bit
FNL:0,201,243
FNA:0,2,_ZSt13__countl_zeroImEiT_
FNL:1,371,375
FNA:1,2,_ZSt11__bit_widthImEiT_
FNF:2
FNH:2
DA:201,2
DA:204,2
DA:206,2
DA:207,0
DA:209,2
DA:210,2
DA:211,2
DA:220,2
DA:221,2
DA:371,2
DA:373,2
DA:374,2
LF:12
LH:11
end_of_record
TN:
SF:/usr/include/c++/14/bits/alloc_traits.h
FNF:0
FNH:0
DA:515,6
DA:550,6
DA:577,3
DA:581,3
DA:599,0
DA:601,0
DA:993,4
DA:994,4
LF:8
LH:6
end_of_record
TN:
SF:/usr/include/c++/14/bits/allocator.h
FNF:0
FNH:0
DA:161,3
DA:166,6
DA:182,6
DA:189,6
DA:191,0
DA:192,0
DA:193,0
DA:196,6
DA:203,6
DA:205,0
DA:206,0
DA:208,6
LF:12
LH:7
end_of_record
TN:
SF:/usr/include/c++/14/bits/cpp_type_traits.h
FNL:0,608,609
FNA:0,0,_ZSt12__miter_baseIN9__gnu_cxx17__normal_iteratorIP3IceSt6vectorIS2_SaIS2_EEEEET_S8_
FNF:1
FNH:0
DA:608,0
DA:609,0
LF:2
LH:0
end_of_record
TN:
SF:/usr/include/c++/14/bits/move.h
FNL:0,137,138
FNA:0,12,_ZSt4moveIR3IceEONSt16remove_referenceIT_E4typeEOS3_
FNA:0,2,_ZSt4moveIRN9__gnu_cxx5__ops15_Iter_comp_iterIZ4mainEUlRK3IceS5_E0_EEEONSt16remove_referenceIT_E4typeEOSA_
FNA:0,4,_ZSt4moveIRN9__gnu_cxx5__ops15_Iter_comp_iterIZ4mainEUlRK3IceS5_E_EEEONSt16remove_referenceIT_E4typeEOSA_
FNA:0,4,_ZSt4moveIRZ4mainEUlRK3IceS2_E0_EONSt16remove_referenceIT_E4typeEOS6_
FNA:0,6,_ZSt4moveIRZ4mainEUlRK3IceS2_E_EONSt16remove_referenceIT_E4typeEOS6_
FNL:1,226,237
FNA:1,0,_ZSt4swapI3IceENSt9enable_ifIXsrSt6__and_IJSt6__not_ISt15__is_tuple_likeIT_EESt21is_move_constructibleIS5_ESt18is_move_assignableIS5_EEE5valueEvE4typeERS5_SF_
FNL:2,51,52
FNA:2,1,_ZSt11__addressofI3IceEPT_RS1_
FNA:2,2,_ZSt11__addressofIiEPT_RS0_
FNL:3,71,72
FNA:3,0,_ZSt7forwardI3IceEOT_RNSt16remove_referenceIS1_E4typeE
FNA:3,9,_ZSt7forwardIRK3IceEOT_RNSt16remove_referenceIS3_E4typeE
FNF:4
FNH:3
DA:51,3
DA:52,3
DA:71,9
DA:72,9
DA:137,28
DA:138,28
DA:226,0
DA:234,0
DA:235,0
DA:236,0
DA:237,0
LF:11
LH:6
end_of_record
TN:
SF:/usr/include/c++/14/bits/new_allocator.h
FNL:0,126,152
FNA:0,4,_ZNSt15__new_allocatorI3IceE8allocateEmPKv
FNA:0,2,_ZNSt15__new_allocatorIiE8allocateEmPKv
FNL:1,156,173
FNA:1,4,_ZNSt15__new_allocatorI3IceE10deallocateEPS0_m
FNA:1,2,_ZNSt15__new_allocatorIiE10deallocateEPim
FNF:2
FNH:2
DA:88,3
DA:92,6
DA:126,6
DA:134,6
DA:138,0
DA:139,0
DA:140,0
DA:151,6
DA:156,6
DA:172,6
DA:233,6
LF:11
LH:8
end_of_record
TN:
SF:/usr/include/c++/14/bits/predefined_ops.h
FNL:0,150,152
FNA:0,1,_ZN9__gnu_cxx5__ops15_Iter_comp_iterIZ4mainEUlRK3IceS4_E0_EC2ES5_
FNA:0,1,_ZN9__gnu_cxx5__ops15_Iter_comp_iterIZ4mainEUlRK3IceS4_E_EC2ES5_
FNL:1,157,158
FNA:1,2,_ZN9__gnu_cxx5__ops15_Iter_comp_iterIZ4mainEUlRK3IceS4_E0_EclINS_17__normal_iteratorIPS2_St6vectorIS2_SaIS2_EEEESD_EEbT_T0_
FNA:1,4,_ZN9__gnu_cxx5__ops15_Iter_comp_iterIZ4mainEUlRK3IceS4_E_EclINS_17__normal_iteratorIPS2_St6vectorIS2_SaIS2_EEEESD_EEbT_T0_
FNL:2,164,165
FNA:2,1,_ZN9__gnu_cxx5__ops16__iter_comp_iterIZ4mainEUlRK3IceS4_E0_EENS0_15_Iter_comp_iterIT_EES7_
FNA:2,1,_ZN9__gnu_cxx5__ops16__iter_comp_iterIZ4mainEUlRK3IceS4_E_EENS0_15_Iter_comp_iterIT_EES7_
FNL:3,195,196
FNA:3,0,_ZN9__gnu_cxx5__ops14_Iter_comp_valIZ4mainEUlRK3IceS4_E0_EclINS_17__normal_iteratorIPS2_St6vectorIS2_SaIS2_EEEES2_EEbT_RT0_
FNA:3,0,_ZN9__gnu_cxx5__ops14_Iter_comp_valIZ4mainEUlRK3IceS4_E_EclINS_17__normal_iteratorIPS2_St6vectorIS2_SaIS2_EEEES2_EEbT_RT0_
FNL:4,231,233
FNA:4,2,_ZN9__gnu_cxx5__ops14_Val_comp_iterIZ4mainEUlRK3IceS4_E0_EC2EONS0_15_Iter_comp_iterIS5_EE
FNA:4,4,_ZN9__gnu_cxx5__ops14_Val_comp_iterIZ4mainEUlRK3IceS4_E_EC2EONS0_15_Iter_comp_iterIS5_EE
FNL:5,239,240
FNA:5,2,_ZN9__gnu_cxx5__ops14_Val_comp_iterIZ4mainEUlRK3IceS4_E0_EclIS2_NS_17__normal_iteratorIPS2_St6vectorIS2_SaIS2_EEEEEEbRT_T0_
FNA:5,4,_ZN9__gnu_cxx5__ops14_Val_comp_iterIZ4mainEUlRK3IceS4_E_EclIS2_NS_17__normal_iteratorIPS2_St6vectorIS2_SaIS2_EEEEEEbRT_T0_
FNL:6,252,253
FNA:6,2,_ZN9__gnu_cxx5__ops15__val_comp_iterIZ4mainEUlRK3IceS4_E0_EENS0_14_Val_comp_iterIT_EENS0_15_Iter_comp_iterIS7_EE
FNA:6,4,_ZN9__gnu_cxx5__ops15__val_comp_iterIZ4mainEUlRK3IceS4_E_EENS0_14_Val_comp_iterIT_EENS0_15_Iter_comp_iterIS7_EE
FNF:7
FNH:6
DA:150,2
DA:151,2
DA:152,2
DA:157,6
DA:158,6
DA:164,2
DA:165,2
DA:195,0
DA:196,0
DA:231,6
DA:232,6
DA:233,6
DA:239,6
DA:240,6
DA:252,6
DA:253,6
LF:16
LH:14
end_of_record
TN:
SF:/usr/include/c++/14/bits/ptr_traits.h
FNL:0,205,209
FNA:0,3,_ZSt12__to_addressI3IceEPT_S2_
FNF:1
FNH:1
DA:205,3
DA:208,3
LF:2
LH:2
end_of_record
TN:
SF:/usr/include/c++/14/bits/stl_algo.h
FNL:0,1589,1597
FNA:0,0,_ZSt13__heap_selectIN9__gnu_cxx17__normal_iteratorIP3IceSt6vectorIS2_SaIS2_EEEENS0_5__ops15_Iter_comp_iterIZ4mainEUlRKS2_SB_E0_EEEvT_SE_SE_T0_
FNA:0,0,_ZSt13__heap_selectIN9__gnu_cxx17__normal_iteratorIP3IceSt6vectorIS2_SaIS2_EEEENS0_5__ops15_Iter_comp_iterIZ4mainEUlRKS2_SB_E_EEEvT_SE_SE_T0_
FNL:1,1750,1764
FNA:1,2,_ZSt25__unguarded_linear_insertIN9__gnu_cxx17__normal_iteratorIP3IceSt6vectorIS2_SaIS2_EEEENS0_5__ops14_Val_comp_iterIZ4mainEUlRKS2_SB_E0_EEEvT_T0_
FNA:1,4,_ZSt25__unguarded_linear_insertIN9__gnu_cxx17__normal_iteratorIP3IceSt6vectorIS2_SaIS2_EEEENS0_5__ops14_Val_comp_iterIZ4mainEUlRKS2_SB_E_EEEvT_T0_
FNL:2,1770,1788
FNA:2,1,_ZSt16__insertion_sortIN9__gnu_cxx17__normal_iteratorIP3IceSt6vectorIS2_SaIS2_EEEENS0_5__ops15_Iter_comp_iterIZ4mainEUlRKS2_SB_E0_EEEvT_SE_T0_
FNA:2,1,_ZSt16__insertion_sortIN9__gnu_cxx17__normal_iteratorIP3IceSt6vectorIS2_SaIS2_EEEENS0_5__ops15_Iter_comp_iterIZ4mainEUlRKS2_SB_E_EEEvT_SE_T0_
FNL:3,1794,1800
FNA:3,0,_ZSt26__unguarded_insertion_sortIN9__gnu_cxx17__normal_iteratorIP3IceSt6vectorIS2_SaIS2_EEEENS0_5__ops15_Iter_comp_iterIZ4mainEUlRKS2_SB_E0_EEEvT_SE_T0_
FNA:3,0,_ZSt26__unguarded_insertion_sortIN9__gnu_cxx17__normal_iteratorIP3IceSt6vectorIS2_SaIS2_EEEENS0_5__ops15_Iter_comp_iterIZ4mainEUlRKS2_SB_E_EEEvT_SE_T0_
FNL:4,1812,1823
FNA:4,1,_ZSt22__final_insertion_sortIN9__gnu_cxx17__normal_iteratorIP3IceSt6vectorIS2_SaIS2_EEEENS0_5__ops15_Iter_comp_iterIZ4mainEUlRKS2_SB_E0_EEEvT_SE_T0_
FNA:4,1,_ZSt22__final_insertion_sortIN9__gnu_cxx17__normal_iteratorIP3IceSt6vectorIS2_SaIS2_EEEENS0_5__ops15_Iter_comp_iterIZ4mainEUlRKS2_SB_E_EEEvT_SE_T0_
FNL:5,1829,1845
FNA:5,0,_ZSt21__unguarded_partitionIN9__gnu_cxx17__normal_iteratorIP3IceSt6vectorIS2_SaIS2_EEEENS0_5__ops15_Iter_comp_iterIZ4mainEUlRKS2_SB_E0_EEET_SE_SE_SE_T0_
FNA:5,0,_ZSt21__unguarded_partitionIN9__gnu_cxx17__normal_iteratorIP3IceSt6vectorIS2_SaIS2_EEEENS0_5__ops15_Iter_comp_iterIZ4mainEUlRKS2_SB_E_EEET_SE_SE_SE_T0_
FNL:6,1851,1858
FNA:6,0,_ZSt27__unguarded_partition_pivotIN9__gnu_cxx17__normal_iteratorIP3IceSt6vectorIS2_SaIS2_EEEENS0_5__ops15_Iter_comp_iterIZ4mainEUlRKS2_SB_E0_EEET_SE_SE_T0_
FNA:6,0,_ZSt27__unguarded_partition_pivotIN9__gnu_cxx17__normal_iteratorIP3IceSt6vectorIS2_SaIS2_EEEENS0_5__ops15_Iter_comp_iterIZ4mainEUlRKS2_SB_E_EEET_SE_SE_T0_
FNL:7,1863,1870
FNA:7,0,_ZSt14__partial_sortIN9__gnu_cxx17__normal_iteratorIP3IceSt6vectorIS2_SaIS2_EEEENS0_5__ops15_Iter_comp_iterIZ4mainEUlRKS2_SB_E0_EEEvT_SE_SE_T0_
FNA:7,0,_ZSt14__partial_sortIN9__gnu_cxx17__normal_iteratorIP3IceSt6vectorIS2_SaIS2_EEEENS0_5__ops15_Iter_comp_iterIZ4mainEUlRKS2_SB_E_EEEvT_SE_SE_T0_
FNL:8,1876,1893
FNA:8,1,_ZSt16__introsort_loopIN9__gnu_cxx17__normal_iteratorIP3IceSt6vectorIS2_SaIS2_EEEElNS0_5__ops15_Iter_comp_iterIZ4mainEUlRKS2_SB_E0_EEEvT_SE_T0_T1_
FNA:8,1,_ZSt16__introsort_loopIN9__gnu_cxx17__normal_iteratorIP3IceSt6vectorIS2_SaIS2_EEEElNS0_5__ops15_Iter_comp_iterIZ4mainEUlRKS2_SB_E_EEEvT_SE_T0_T1_
FNL:9,1900,1910
FNA:9,1,_ZSt6__sortIN9__gnu_cxx17__normal_iteratorIP3IceSt6vectorIS2_SaIS2_EEEENS0_5__ops15_Iter_comp_iterIZ4mainEUlRKS2_SB_E0_EEEvT_SE_T0_
FNA:9,1,_ZSt6__sortIN9__gnu_cxx17__normal_iteratorIP3IceSt6vectorIS2_SaIS2_EEEENS0_5__ops15_Iter_comp_iterIZ4mainEUlRKS2_SB_E_EEEvT_SE_T0_
FNL:10,4793,4806
FNA:10,1,_ZSt4sortIN9__gnu_cxx17__normal_iteratorIP3IceSt6vectorIS2_SaIS2_EEEEZ4mainEUlRKS2_S9_E0_EvT_SB_T0_
FNA:10,1,_ZSt4sortIN9__gnu_cxx17__normal_iteratorIP3IceSt6vectorIS2_SaIS2_EEEEZ4mainEUlRKS2_S9_E_EvT_SB_T0_
FNL:11,85,103
FNA:11,0,_ZSt22__move_median_to_firstIN9__gnu_cxx17__normal_iteratorIP3IceSt6vectorIS2_SaIS2_EEEENS0_5__ops15_Iter_comp_iterIZ4mainEUlRKS2_SB_E0_EEEvT_SE_SE_SE_T0_
FNA:11,0,_ZSt22__move_median_to_firstIN9__gnu_cxx17__normal_iteratorIP3IceSt6vectorIS2_SaIS2_EEEENS0_5__ops15_Iter_comp_iterIZ4mainEUlRKS2_SB_E_EEEvT_SE_SE_SE_T0_
FNF:12
FNH:6
DA:85,0
DA:88,0
DA:90,0
DA:91,0
DA:92,0
DA:93,0
DA:95,0
DA:97,0
DA:98,0
DA:99,0
DA:100,0
DA:102,0
DA:103,0
DA:1589,0
DA:1593,0
DA:1594,0
DA:1595,0
DA:1596,0
DA:1597,0
DA:1750,6
DA:1754,6
DA:1755,6
DA:1756,6
DA:1757,6
DA:1759,0
DA:1760,0
DA:1761,0
DA:1763,6
DA:1764,6
DA:1770,2
DA:1773,2
DA:1775,8
DA:1777,6
DA:1780,0
DA:1781,0
DA:1782,0
DA:1785,6
DA:1794,0
DA:1797,0
DA:1798,0
DA:1800,0
DA:1812,2
DA:1815,2
DA:1817,0
DA:1818,0
DA:1822,2
DA:1823,2
DA:1829,0
DA:1835,0
DA:1836,0
DA:1837,0
DA:1838,0
DA:1839,0
DA:1840,0
DA:1841,0
DA:1842,0
DA:1843,0
DA:1851,0
DA:1854,0
DA:1855,0
DA:1857,0
DA:1863,0
DA:1868,0
DA:1869,0
DA:1870,0
DA:1876,2
DA:1880,2
DA:1882,0
DA:1884,0
DA:1885,0
DA:1887,0
DA:1889,0
DA:1890,0
DA:1891,0
DA:1900,2
DA:1903,2
DA:1905,2
DA:1906,2
DA:1908,2
DA:1910,2
DA:4793,2
DA:4805,2
DA:4806,2
LF:83
LH:27
end_of_record
TN:
SF:/usr/include/c++/14/bits/stl_algobase.h
FNL:0,1040,1040
FNA:0,3,_ZSt17__size_to_integerm
FNL:1,1140,1153
FNA:1,1,_ZSt10__fill_n_aIP3IcemS0_ET_S2_T0_RKT1_St26random_access_iterator_tag
FNA:1,2,_ZSt10__fill_n_aIPimiET_S1_T0_RKT1_St26random_access_iterator_tag
FNL:2,1175,1182
FNA:2,1,_ZSt6fill_nIP3IcemS0_ET_S2_T0_RKT1_
FNA:2,2,_ZSt6fill_nIPimiET_S1_T0_RKT1_
FNL:3,1544,1557
FNA:3,2,_ZSt4__lgIlET_S0_
FNL:4,155,187
FNA:4,0,_ZSt9iter_swapIN9__gnu_cxx17__normal_iteratorIP3IceSt6vectorIS2_SaIS2_EEEES7_EvT_T0_
FNL:5,233,241
FNA:5,9,_ZSt3minImERKT_S2_S2_
FNL:6,257,265
FNA:6,3,_ZSt3maxImERKT_S2_S2_
FNL:7,316,318
FNA:7,9,_ZSt12__niter_baseIP3IceET_S2_
FNL:8,346,347
FNA:8,0,_ZSt12__niter_wrapIN9__gnu_cxx17__normal_iteratorIP3IceSt6vectorIS2_SaIS2_EEEES3_ET_S8_T0_
FNL:9,437,438
FNA:9,0,_ZNSt11__copy_moveILb1ELb0ESt26random_access_iterator_tagE12__assign_oneI3IceS3_EEvPT_PT0_
FNL:10,745,752
FNA:10,0,_ZNSt20__copy_move_backwardILb1ELb0ESt26random_access_iterator_tagE13__copy_move_bIP3IceS4_EET0_T_S6_S5_
FNL:11,762,771
FNA:11,0,_ZNSt20__copy_move_backwardILb1ELb1ESt26random_access_iterator_tagE13__copy_move_bI3IceS3_EEPT0_PT_S7_S5_
FNL:12,777,790
FNA:12,0,_ZSt23__copy_move_backward_a2ILb1EP3IceS1_ET1_T0_S3_S2_
FNL:13,795,796
FNA:13,0,_ZSt23__copy_move_backward_a1ILb1EP3IceS1_ET1_T0_S3_S2_
FNL:14,823,829
FNA:14,0,_ZSt22__copy_move_backward_aILb1EN9__gnu_cxx17__normal_iteratorIP3IceSt6vectorIS2_SaIS2_EEEES7_ET1_T0_S9_S8_
FNL:15,913,925
FNA:15,0,_ZSt13move_backwardIN9__gnu_cxx17__normal_iteratorIP3IceSt6vectorIS2_SaIS2_EEEES7_ET0_T_S9_S8_
FNL:16,936,941
FNA:16,1,_ZSt9__fill_a1IP3IceS0_EN9__gnu_cxx11__enable_ifIXntsrSt11__is_scalarIT0_E7__valueEvE6__typeET_S9_RKS5_
FNL:17,947,953
FNA:17,2,_ZSt9__fill_a1IPiiEN9__gnu_cxx11__enable_ifIXsrSt11__is_scalarIT0_E7__valueEvE6__typeET_S8_RKS4_
FNL:18,997,998
FNA:18,1,_ZSt8__fill_aIP3IceS0_EvT_S2_RKT0_
FNA:18,2,_ZSt8__fill_aIPiiEvT_S1_RKT0_
FNF:19
FNH:10
DA:155,0
DA:185,0
DA:187,0
DA:233,9
DA:238,9
DA:239,0
DA:240,9
DA:257,3
DA:262,3
DA:263,1
DA:264,2
DA:316,9
DA:318,9
DA:346,0
DA:347,0
DA:437,0
DA:438,0
DA:745,0
DA:748,0
DA:749,0
DA:750,0
DA:751,0
DA:762,0
DA:764,0
DA:765,0
DA:766,0
DA:767,0
DA:769,0
DA:770,0
DA:777,0
DA:781,0
DA:783,0
DA:787,0
DA:789,0
DA:795,0
DA:796,0
DA:823,0
DA:825,0
DA:828,0
DA:913,0
DA:922,0
DA:924,0
DA:936,1
DA:939,5
DA:940,4
DA:941,1
DA:947,2
DA:950,2
DA:951,10
DA:952,8
DA:953,2
DA:997,3
DA:998,3
DA:1040,3
DA:1140,3
DA:1146,3
DA:1147,0
DA:1151,3
DA:1152,3
DA:1175,3
DA:1180,3
DA:1181,6
DA:1544,2
DA:1547,2
LF:64
LH:30
end_of_record
TN:
SF:/usr/include/c++/14/bits/stl_construct.h
FNL:0,109,120
FNA:0,1,_ZSt10_ConstructI3IceJEEvPT_DpOT0_
FNA:0,2,_ZSt10_ConstructIiJEEvPT_DpOT0_
FNL:1,146,153
FNA:1,0,_ZSt8_DestroyI3IceEvPT_
FNA:1,0,_ZSt8_DestroyIiEvPT_
FNL:2,160,164
FNA:2,0,_ZNSt12_Destroy_auxILb0EE9__destroyIP3IceEEvT_S4_
FNA:2,0,_ZNSt12_Destroy_auxILb0EE9__destroyIPiEEvT_S3_
FNL:3,172,172
FNA:3,2,_ZNSt12_Destroy_auxILb1EE9__destroyIP3IceEEvT_S4_
FNA:3,2,_ZNSt12_Destroy_auxILb1EE9__destroyIPiEEvT_S3_
FNL:4,182,197
FNA:4,2,_ZSt8_DestroyIP3IceEvT_S2_
FNA:4,2,_ZSt8_DestroyIPiEvT_S1_
FNL:5,80,89
FNA:5,0,_ZSt10destroy_atI3IceEvPT_
FNA:5,0,_ZSt10destroy_atIiEvPT_
FNL:6,94,97
FNA:6,0,_ZSt12construct_atI3IceJEEDTgsnwcvPvLi0E_T_pispcl7declvalIT0_EEEEPS2_DpOS3_
FNA:6,3,_ZSt12construct_atI3IceJRKS0_EEDTgsnwcvPvLi0E_T_pispcl7declvalIT0_EEEEPS4_DpOS5_
FNA:6,0,_ZSt12construct_atI3IceJS0_EEDTgsnwcvPvLi0E_T_pispcl7declvalIT0_EEEEPS2_DpOS3_
FNA:6,0,_ZSt12construct_atIiJEEDTgsnwcvPvLi0E_T_pispcl7declvalIT0_EEEEPS1_DpOS2_
FNF:7
FNH:4
DA:80,0
DA:88,0
DA:89,0
DA:94,3
DA:97,3
DA:109,3
DA:112,3
DA:115,0
DA:116,0
DA:119,3
DA:146,0
DA:149,0
DA:153,0
DA:160,0
DA:162,0
DA:163,0
DA:164,0
DA:172,4
DA:182,4
DA:192,4
DA:193,0
DA:196,4
LF:22
LH:9
end_of_record
TN:
SF:/usr/include/c++/14/bits/stl_heap.h
FNL:0,135,147
FNA:0,0,_ZSt11__push_heapIN9__gnu_cxx17__normal_iteratorIP3IceSt6vectorIS2_SaIS2_EEEElS2_NS0_5__ops14_Iter_comp_valIZ4mainEUlRKS2_SB_E0_EEEvT_T0_SF_T1_RT2_
FNA:0,0,_ZSt11__push_heapIN9__gnu_cxx17__normal_iteratorIP3IceSt6vectorIS2_SaIS2_EEEElS2_NS0_5__ops14_Iter_comp_valIZ4mainEUlRKS2_SB_E_EEEvT_T0_SF_T1_RT2_
FNL:1,224,249
FNA:1,0,_ZSt13__adjust_heapIN9__gnu_cxx17__normal_iteratorIP3IceSt6vectorIS2_SaIS2_EEEElS2_NS0_5__ops15_Iter_comp_iterIZ4mainEUlRKS2_SB_E0_EEEvT_T0_SF_T1_T2_
FNA:1,0,_ZSt13__adjust_heapIN9__gnu_cxx17__normal_iteratorIP3IceSt6vectorIS2_SaIS2_EEEElS2_NS0_5__ops15_Iter_comp_iterIZ4mainEUlRKS2_SB_E_EEEvT_T0_SF_T1_T2_
FNL:2,254,267
FNA:2,0,_ZSt10__pop_heapIN9__gnu_cxx17__normal_iteratorIP3IceSt6vectorIS2_SaIS2_EEEENS0_5__ops15_Iter_comp_iterIZ4mainEUlRKS2_SB_E0_EEEvT_SE_SE_RT0_
FNA:2,0,_ZSt10__pop_heapIN9__gnu_cxx17__normal_iteratorIP3IceSt6vectorIS2_SaIS2_EEEENS0_5__ops15_Iter_comp_iterIZ4mainEUlRKS2_SB_E_EEEvT_SE_SE_RT0_
FNL:3,340,362
FNA:3,0,_ZSt11__make_heapIN9__gnu_cxx17__normal_iteratorIP3IceSt6vectorIS2_SaIS2_EEEENS0_5__ops15_Iter_comp_iterIZ4mainEUlRKS2_SB_E0_EEEvT_SE_RT0_
FNA:3,0,_ZSt11__make_heapIN9__gnu_cxx17__normal_iteratorIP3IceSt6vectorIS2_SaIS2_EEEENS0_5__ops15_Iter_comp_iterIZ4mainEUlRKS2_SB_E_EEEvT_SE_RT0_
FNL:4,419,427
FNA:4,0,_ZSt11__sort_heapIN9__gnu_cxx17__normal_iteratorIP3IceSt6vectorIS2_SaIS2_EEEENS0_5__ops15_Iter_comp_iterIZ4mainEUlRKS2_SB_E0_EEEvT_SE_RT0_
FNA:4,0,_ZSt11__sort_heapIN9__gnu_cxx17__normal_iteratorIP3IceSt6vectorIS2_SaIS2_EEEENS0_5__ops15_Iter_comp_iterIZ4mainEUlRKS2_SB_E_EEEvT_SE_RT0_
FNF:5
FNH:0
DA:135,0
DA:139,0
DA:140,0
DA:142,0
DA:143,0
DA:144,0
DA:146,0
DA:147,0
DA:224,0
DA:227,0
DA:228,0
DA:229,0
DA:231,0
DA:232,0
DA:234,0
DA:235,0
DA:236,0
DA:238,0
DA:240,0
DA:241,0
DA:243,0
DA:247,0
DA:248,0
DA:249,0
DA:254,0
DA:262,0
DA:263,0
DA:264,0
DA:265,0
DA:266,0
DA:267,0
DA:340,0
DA:348,0
DA:349,0
DA:351,0
DA:352,0
DA:353,0
DA:355,0
DA:356,0
DA:358,0
DA:359,0
DA:360,0
DA:419,0
DA:422,0
DA:424,0
DA:425,0
DA:427,0
LF:47
LH:0
end_of_record
TN:
SF:/usr/include/c++/14/bits/stl_iterator.h
FNL:0,1067,1068
FNA:0,14,_ZN9__gnu_cxx17__normal_iteratorIP3IceSt6vectorIS1_SaIS1_EEEC2ERKS2_
FNA:0,0,_ZN9__gnu_cxx17__normal_iteratorIP3IcevEC2ERKS2_
FNL:1,1090,1091
FNA:1,35,_ZNK9__gnu_cxx17__normal_iteratorIP3IceSt6vectorIS1_SaIS1_EEEdeEv
FNA:1,0,_ZNK9__gnu_cxx17__normal_iteratorIP3IcevEdeEv
FNL:2,1100,1104
FNA:2,11,_ZN9__gnu_cxx17__normal_iteratorIP3IceSt6vectorIS1_SaIS1_EEEppEv
FNA:2,0,_ZN9__gnu_cxx17__normal_iteratorIP3IcevEppEv
FNL:3,1114,1118
FNA:3,6,_ZN9__gnu_cxx17__normal_iteratorIP3IceSt6vectorIS1_SaIS1_EEEmmEv
FNL:4,1138,1139
FNA:4,2,_ZNK9__gnu_cxx17__normal_iteratorIP3IceSt6vectorIS1_SaIS1_EEEplEl
FNL:5,1148,1149
FNA:5,0,_ZNK9__gnu_cxx17__normal_iteratorIP3IceSt6vectorIS1_SaIS1_EEEmiEl
FNL:6,1153,1154
FNA:6,54,_ZNK9__gnu_cxx17__normal_iteratorIP3IceSt6vectorIS1_SaIS1_EEE4baseEv
FNA:6,0,_ZNK9__gnu_cxx17__normal_iteratorIP3IcevE4baseEv
FNL:7,1188,1194
FNA:7,18,_ZN9__gnu_cxxeqIP3IceSt6vectorIS1_SaIS1_EEEEbRKNS_17__normal_iteratorIT_T0_EESB_QrqXeqcldtfL0p_4baseEcldtfL0p0_4baseERSt14convertible_toIbEE
FNL:8,1199,1202
FNA:8,0,_ZN9__gnu_cxxssIP3IceSt6vectorIS1_SaIS1_EEEEDTclL_ZNSt8__detail11__synth3wayEEcl7declvalIRT_EEcl7declvalIS8_EEEERKNS_17__normal_iteratorIS7_T0_EESE_
FNL:9,1325,1328
FNA:9,9,_ZN9__gnu_cxxmiIP3IceSt6vectorIS1_SaIS1_EEEENS_17__normal_iteratorIT_T0_E15difference_typeERKS9_SC_
FNL:10,1348,1350
FNA:10,0,_ZSt12__niter_baseIP3IceSt6vectorIS0_SaIS0_EEET_N9__gnu_cxx17__normal_iteratorIS5_T0_EE
FNF:11
FNH:8
DA:1067,14
DA:1068,14
DA:1090,35
DA:1091,35
DA:1100,11
DA:1102,11
DA:1103,11
DA:1114,6
DA:1116,6
DA:1117,6
DA:1138,2
DA:1139,2
DA:1148,0
DA:1149,0
DA:1153,54
DA:1154,54
DA:1188,18
DA:1194,18
DA:1199,0
DA:1202,0
DA:1325,9
DA:1328,9
DA:1348,0
DA:1350,0
LF:24
LH:18
end_of_record
TN:
SF:/usr/include/c++/14/bits/stl_iterator_base_types.h
FNF:0
FNH:0
DA:240,3
LF:1
LH:1
end_of_record
TN:
SF:/usr/include/c++/14/bits/stl_uninitialized.h
FNL:0,1067,1077
FNA:0,0,_ZSt19__relocate_object_aI3IceS0_SaIS0_EEvPT_PT0_RT1_
FNL:1,1089,1106
FNA:1,0,_ZSt14__relocate_a_1IP3IceN9__gnu_cxx17__normal_iteratorIS1_vEESaIS0_EET0_T_S7_S6_RT1_
FNL:2,1112,1132
FNA:2,3,_ZSt14__relocate_a_1I3IceS0_ENSt9enable_ifIXsrSt24__is_bitwise_relocatableIT_vE5valueEPS3_E4typeES5_S5_S5_RSaIT0_E
FNL:3,1139,1148
FNA:3,3,_ZSt12__relocate_aIP3IceS1_SaIS0_EET0_T_S4_S3_RT1_
FNL:4,637,651
FNA:4,0,_ZNSt27__uninitialized_default_n_1ILb0EE18__uninit_default_nIP3IcemEET_S4_T0_
FNA:4,0,_ZNSt27__uninitialized_default_n_1ILb0EE18__uninit_default_nIPimEET_S3_T0_
FNL:5,660,671
FNA:5,1,_ZNSt27__uninitialized_default_n_1ILb1EE18__uninit_default_nIP3IcemEET_S4_T0_
FNA:5,2,_ZNSt27__uninitialized_default_n_1ILb1EE18__uninit_default_nIPimEET_S3_T0_
FNL:6,696,713
FNA:6,1,_ZSt25__uninitialized_default_nIP3IcemET_S2_T0_
FNA:6,2,_ZSt25__uninitialized_default_nIPimET_S1_T0_
FNL:7,777,779
FNA:7,1,_ZSt27__uninitialized_default_n_aIP3IcemS0_ET_S2_T0_RSaIT1_E
FNA:7,2,_ZSt27__uninitialized_default_n_aIPimiET_S1_T0_RSaIT1_E
FNF:8
FNH:5
DA:637,0
DA:639,0
DA:642,0
DA:643,0
DA:644,0
DA:660,3
DA:662,3
DA:665,3
DA:666,3
DA:667,3
DA:668,3
DA:670,3
DA:696,3
DA:699,3
DA:701,0
DA:707,3
DA:712,3
DA:777,3
DA:779,3
DA:1067,0
DA:1075,0
DA:1076,0
DA:1077,0
DA:1089,0
DA:1101,0
DA:1102,0
DA:1103,0
DA:1105,0
DA:1112,3
DA:1116,3
DA:1117,3
DA:1120,2
DA:1124,0
DA:1125,0
DA:1126,0
DA:1129,2
DA:1131,3
DA:1139,3
DA:1145,3
DA:1147,3
LF:40
LH:22
end_of_record
TN:
SF:/usr/include/c++/14/bits/stl_vector.h
FNL:0,1128,1132
FNA:0,9,_ZNSt6vectorI3IceSaIS0_EEixEm
FNA:0,20,_ZNSt6vectorIiSaIiEEixEm
FNL:1,1283,1295
FNA:1,3,_ZNSt6vectorI3IceSaIS0_EE9push_backERKS0_
FNL:2,145,147
FNA:2,1,_ZNSt12_Vector_baseI3IceSaIS0_EE12_Vector_implC2ERKS1_
FNA:2,2,_ZNSt12_Vector_baseIiSaIiEE12_Vector_implC2ERKS0_
FNL:3,1717,1722
FNA:3,1,_ZNSt6vectorI3IceSaIS0_EE21_M_default_initializeEm
FNA:3,2,_ZNSt6vectorIiSaIiEE21_M_default_initializeEm
FNL:4,1906,1913
FNA:4,3,_ZNKSt6vectorI3IceSaIS0_EE12_M_check_lenEmPKc
FNL:5,1917,1923
FNA:5,1,_ZNSt6vectorI3IceSaIS0_EE17_S_check_init_lenEmRKS1_
FNA:5,2,_ZNSt6vectorIiSaIiEE17_S_check_init_lenEmRKS0_
FNL:6,1926,1935
FNA:6,7,_ZNSt6vectorI3IceSaIS0_EE11_S_max_sizeERKS1_
FNA:6,2,_ZNSt6vectorIiSaIiEE11_S_max_sizeERKS0_
FNL:7,300,301
FNA:7,6,_ZNSt12_Vector_baseI3IceSaIS0_EE19_M_get_Tp_allocatorEv
FNA:7,4,_ZNSt12_Vector_baseIiSaIiEE19_M_get_Tp_allocatorEv
FNL:8,305,306
FNA:8,6,_ZNKSt12_Vector_baseI3IceSaIS0_EE19_M_get_Tp_allocatorEv
FNL:9,332,334
FNA:9,1,_ZNSt12_Vector_baseI3IceSaIS0_EEC2EmRKS1_
FNA:9,2,_ZNSt12_Vector_baseIiSaIiEEC2EmRKS0_
FNL:10,366,370
FNA:10,2,_ZNSt12_Vector_baseI3IceSaIS0_EED2Ev
FNA:10,2,_ZNSt12_Vector_baseIiSaIiEED2Ev
FNL:11,377,381
FNA:11,4,_ZNSt12_Vector_baseI3IceSaIS0_EE11_M_allocateEm
FNA:11,2,_ZNSt12_Vector_baseIiSaIiEE11_M_allocateEm
FNL:12,385,390
FNA:12,2,_ZNSt12_Vector_baseI3IceSaIS0_EE13_M_deallocateEPS0_m
FNA:12,2,_ZNSt12_Vector_baseIiSaIiEE13_M_deallocateEPim
FNL:13,396,401
FNA:13,1,_ZNSt12_Vector_baseI3IceSaIS0_EE17_M_create_storageEm
FNA:13,2,_ZNSt12_Vector_baseIiSaIiEE17_M_create_storageEm
FNL:14,504,514
FNA:14,3,_ZNSt6vectorI3IceSaIS0_EE11_S_relocateEPS0_S3_S3_RS1_
FNL:15,556,558
FNA:15,1,_ZNSt6vectorI3IceSaIS0_EEC2EmRKS1_
FNA:15,2,_ZNSt6vectorIiSaIiEEC2EmRKS0_
FNL:16,733,738
FNA:16,2,_ZNSt6vectorI3IceSaIS0_EED2Ev
FNA:16,2,_ZNSt6vectorIiSaIiEED2Ev
FNL:17,873,874
FNA:17,6,_ZNSt6vectorI3IceSaIS0_EE5beginEv
FNL:18,893,894
FNA:18,6,_ZNSt6vectorI3IceSaIS0_EE3endEv
FNL:19,98,100
FNA:19,1,_ZNSt12_Vector_baseI3IceSaIS0_EE17_Vector_impl_dataC2Ev
FNA:19,2,_ZNSt12_Vector_baseIiSaIiEE17_Vector_impl_dataC2Ev
FNL:20,992,993
FNA:20,12,_ZNKSt6vectorI3IceSaIS0_EE4sizeEv
FNL:21,998,999
FNA:21,6,_ZNKSt6vectorI3IceSaIS0_EE8max_sizeEv
FNF:22
FNH:22
DA:98,3
DA:99,3
DA:100,3
DA:145,3
DA:146,3
DA:147,3
DA:300,10
DA:301,10
DA:305,6
DA:306,6
DA:332,3
DA:333,3
DA:334,3
DA:366,4
DA:368,4
DA:369,4
DA:370,4
DA:377,6
DA:380,12
DA:385,4
DA:388,4
DA:389,4
DA:390,4
DA:396,3
DA:398,3
DA:399,3
DA:400,3
DA:401,3
DA:504,3
DA:509,3
DA:556,3
DA:557,3
DA:558,3
DA:733,4
DA:735,4
DA:736,4
DA:738,4
DA:873,6
DA:874,6
DA:893,6
DA:894,6
DA:992,12
DA:993,12
DA:998,6
DA:999,6
DA:1128,29
DA:1131,29
DA:1283,3
DA:1285,3
DA:1288,0
DA:1290,0
DA:1294,3
DA:1295,3
DA:1717,3
DA:1719,3
DA:1720,3
DA:1721,3
DA:1722,3
DA:1906,3
DA:1908,3
DA:1909,0
DA:1911,3
DA:1912,3
DA:1917,3
DA:1919,3
DA:1920,0
DA:1922,3
DA:1926,9
DA:1931,9
DA:1933,9
DA:1934,9
LF:71
LH:67
end_of_record
TN:
SF:/usr/include/c++/14/bits/vector.tcc
FNL:0,581,695
FNA:0,3,_ZNSt6vectorI3IceSaIS0_EE17_M_realloc_appendIJRKS0_EEEvDpOT_
FNL:1,607,609
FNA:1,3,_ZZNSt6vectorI3IceSaIS0_EE17_M_realloc_appendIJRKS0_EEEvDpOT_EN6_GuardC2EPS0_mRS1_
FNL:2,612,617
FNA:2,3,_ZZNSt6vectorI3IceSaIS0_EE17_M_realloc_appendIJRKS0_EEEvDpOT_EN6_GuardD2Ev
FNF:3
FNH:3
DA:581,3
DA:590,3
DA:591,3
DA:592,0
DA:593,3
DA:594,3
DA:595,3
DA:596,3
DA:597,3
DA:607,3
DA:608,3
DA:609,3
DA:612,3
DA:614,3
DA:616,2
DA:617,3
DA:624,3
DA:634,6
DA:635,3
DA:647,3
DA:648,3
DA:649,3
DA:686,3
DA:687,3
DA:688,3
DA:692,3
DA:693,3
DA:694,3
DA:695,3
LF:29
LH:28
end_of_record
TN:
SF:/usr/include/c++/14/compare
FNL:0,1224,1243
FNA:0,0,_ZNKSt8__detail10_Synth3wayclIP3IceS3_EEDaRKT_RKT0_QrqXltfL0p_fL0p0_RNS_18__boolean_testableEXltfL0p0_fL0p_RNS_18__boolean_testableEE
FNL:1,291,292
FNA:1,0,_ZStltSt15strong_orderingNSt9__cmp_cat8__unspecE
FNF:2
FNH:0
DA:291,0
DA:292,0
DA:1224,0
DA:1233,0
LF:4
LH:0
end_of_record
TN:
SF:/usr/include/c++/14/new
FNL:0,179,180
FNA:0,6,_ZnwmPv
FNF:1
FNH:1
DA:179,6
DA:180,6
LF:2
LH:2
end_of_record
TN:
SF:/usr/include/c++/14/type_traits
FNL:0,3832,3839
FNA:0,5,_ZSt21is_constant_evaluatedv
FNF:1
FNH:1
DA:3832,5
DA:3835,5
LF:2
LH:2
end_of_record
TN:
SF:/usr/include/c++/14/x86_64-redhat-linux/bits/c++config.h
FNF:0
FNH:0
DA:2394,19
LF:1
LH:1
end_of_record
