TN:
SF:/home/monika/Documents/problems/17877번： Integer Division/main.cpp
FNL:0,5,38
FNA:0,0,main
FNF:1
FNH:0
DA:5,0
DA:7,0
DA:8,0
DA:13,0
DA:15,0
DA:16,0
DA:19,0
DA:20,0
DA:21,0
DA:24,0
DA:26,0
DA:28,0
DA:29,0
DA:31,0
DA:35,0
DA:37,0
DA:38,0
LF:17
LH:0
end_of_record
TN:
SF:/usr/include/c++/14/bits/alloc_traits.h
FNF:0
FNH:0
DA:515,0
DA:550,0
DA:577,0
DA:581,0
DA:599,0
DA:601,0
LF:6
LH:0
end_of_record
TN:
SF:/usr/include/c++/14/bits/allocator.h
FNF:0
FNH:0
DA:161,0
DA:176,0
DA:182,0
DA:189,0
DA:191,0
DA:192,0
DA:193,0
DA:196,0
DA:203,0
DA:205,0
DA:206,0
DA:208,0
LF:12
LH:0
end_of_record
TN:
SF:/usr/include/c++/14/bits/functional_hash.h
FNL:0,160,160
FNA:0,0,_ZNKSt4hashIxEclEx
FNF:1
FNH:0
DA:160,0
LF:1
LH:0
end_of_record
TN:
SF:/usr/include/c++/14/bits/hashtable.h
FNL:0,1658,1673
FNA:0,0,_ZNSt10_HashtableIxSt4pairIKxxESaIS2_ENSt8__detail10_Select1stESt8equal_toIxESt4hashIxENS4_18_Mod_range_hashingENS4_20_Default_ranged_hashENS4_20_Prime_rehash_policyENS4_17_Hashtable_traitsILb0ELb0ELb1EEEED2Ev
FNL:1,2065,2087
FNA:1,0,_ZNKSt10_HashtableIxSt4pairIKxxESaIS2_ENSt8__detail10_Select1stESt8equal_toIxESt4hashIxENS4_18_Mod_range_hashingENS4_20_Default_ranged_hashENS4_20_Prime_rehash_policyENS4_17_Hashtable_traitsILb0ELb0ELb1EEEE19_M_find_before_nodeEmRS1_m
FNL:2,2228,2252
FNA:2,0,_ZNSt10_HashtableIxSt4pairIKxxESaIS2_ENSt8__detail10_Select1stESt8equal_toIxESt4hashIxENS4_18_Mod_range_hashingENS4_20_Default_ranged_hashENS4_20_Prime_rehash_policyENS4_17_Hashtable_traitsILb0ELb0ELb1EEEE21_M_insert_unique_nodeEmmPNS4_10_Hash_nodeIS2_Lb0EEEm
FNL:3,2584,2593
FNA:3,0,_ZNSt10_HashtableIxSt4pairIKxxESaIS2_ENSt8__detail10_Select1stESt8equal_toIxESt4hashIxENS4_18_Mod_range_hashingENS4_20_Default_ranged_hashENS4_20_Prime_rehash_policyENS4_17_Hashtable_traitsILb0ELb0ELb1EEEE5clearEv
FNL:4,2623,2657
FNA:4,0,_ZNSt10_HashtableIxSt4pairIKxxESaIS2_ENSt8__detail10_Select1stESt8equal_toIxESt4hashIxENS4_18_Mod_range_hashingENS4_20_Default_ranged_hashENS4_20_Prime_rehash_policyENS4_17_Hashtable_traitsILb0ELb0ELb1EEEE9_M_rehashEmSt17integral_constantIbLb1EE
FNL:5,310,313
FNA:5,0,_ZNSt10_HashtableIxSt4pairIKxxESaIS2_ENSt8__detail10_Select1stESt8equal_toIxESt4hashIxENS4_18_Mod_range_hashingENS4_20_Default_ranged_hashENS4_20_Prime_rehash_policyENS4_17_Hashtable_traitsILb0ELb0ELb1EEEE12_Scoped_nodeC2IJRKSt21piecewise_construct_tSt5tupleIJRS1_EESL_IJEEEEEPNS4_16_Hashtable_allocISaINS4_10_Hash_nodeIS2_Lb0EEEEEEDpOT_
FNL:6,316,316
FNA:6,0,_ZNSt10_HashtableIxSt4pairIKxxESaIS2_ENSt8__detail10_Select1stESt8equal_toIxESt4hashIxENS4_18_Mod_range_hashingENS4_20_Default_ranged_hashENS4_20_Prime_rehash_policyENS4_17_Hashtable_traitsILb0ELb0ELb1EEEE12_Scoped_nodeD2Ev
FNL:7,421,422
FNA:7,0,_ZNKSt10_HashtableIxSt4pairIKxxESaIS2_ENSt8__detail10_Select1stESt8equal_toIxESt4hashIxENS4_18_Mod_range_hashingENS4_20_Default_ranged_hashENS4_20_Prime_rehash_policyENS4_17_Hashtable_traitsILb0ELb0ELb1EEEE21_M_uses_single_bucketEPPNS4_15_Hash_node_baseE
FNL:8,439,448
FNA:8,0,_ZNSt10_HashtableIxSt4pairIKxxESaIS2_ENSt8__detail10_Select1stESt8equal_toIxESt4hashIxENS4_18_Mod_range_hashingENS4_20_Default_ranged_hashENS4_20_Prime_rehash_policyENS4_17_Hashtable_traitsILb0ELb0ELb1EEEE19_M_allocate_bucketsEm
FNL:9,451,457
FNA:9,0,_ZNSt10_HashtableIxSt4pairIKxxESaIS2_ENSt8__detail10_Select1stESt8equal_toIxESt4hashIxENS4_18_Mod_range_hashingENS4_20_Default_ranged_hashENS4_20_Prime_rehash_policyENS4_17_Hashtable_traitsILb0ELb0ELb1EEEE21_M_deallocate_bucketsEPPNS4_15_Hash_node_baseEm
FNL:10,460,461
FNA:10,0,_ZNSt10_HashtableIxSt4pairIKxxESaIS2_ENSt8__detail10_Select1stESt8equal_toIxESt4hashIxENS4_18_Mod_range_hashingENS4_20_Default_ranged_hashENS4_20_Prime_rehash_policyENS4_17_Hashtable_traitsILb0ELb0ELb1EEEE21_M_deallocate_bucketsEv
FNL:11,473,474
FNA:11,0,_ZNKSt10_HashtableIxSt4pairIKxxESaIS2_ENSt8__detail10_Select1stESt8equal_toIxESt4hashIxENS4_18_Mod_range_hashingENS4_20_Default_ranged_hashENS4_20_Prime_rehash_policyENS4_17_Hashtable_traitsILb0ELb0ELb1EEEE8_M_beginEv
FNL:12,539,539
FNA:12,0,_ZNSt10_HashtableIxSt4pairIKxxESaIS2_ENSt8__detail10_Select1stESt8equal_toIxESt4hashIxENS4_18_Mod_range_hashingENS4_20_Default_ranged_hashENS4_20_Prime_rehash_policyENS4_17_Hashtable_traitsILb0ELb0ELb1EEEEC2Ev
FNL:13,632,633
FNA:13,0,_ZNSt10_HashtableIxSt4pairIKxxESaIS2_ENSt8__detail10_Select1stESt8equal_toIxESt4hashIxENS4_18_Mod_range_hashingENS4_20_Default_ranged_hashENS4_20_Prime_rehash_policyENS4_17_Hashtable_traitsILb0ELb0ELb1EEEE5beginEv
FNL:14,640,641
FNA:14,0,_ZNSt10_HashtableIxSt4pairIKxxESaIS2_ENSt8__detail10_Select1stESt8equal_toIxESt4hashIxENS4_18_Mod_range_hashingENS4_20_Default_ranged_hashENS4_20_Prime_rehash_policyENS4_17_Hashtable_traitsILb0ELb0ELb1EEEE3endEv
FNL:15,799,800
FNA:15,0,_ZNKSt10_HashtableIxSt4pairIKxxESaIS2_ENSt8__detail10_Select1stESt8equal_toIxESt4hashIxENS4_18_Mod_range_hashingENS4_20_Default_ranged_hashENS4_20_Prime_rehash_policyENS4_17_Hashtable_traitsILb0ELb0ELb1EEEE15_M_bucket_indexERKNS4_16_Hash_node_valueIS2_Lb0EEE
FNL:16,803,804
FNA:16,0,_ZNKSt10_HashtableIxSt4pairIKxxESaIS2_ENSt8__detail10_Select1stESt8equal_toIxESt4hashIxENS4_18_Mod_range_hashingENS4_20_Default_ranged_hashENS4_20_Prime_rehash_policyENS4_17_Hashtable_traitsILb0ELb0ELb1EEEE15_M_bucket_indexEm
FNL:17,819,826
FNA:17,0,_ZNKSt10_HashtableIxSt4pairIKxxESaIS2_ENSt8__detail10_Select1stESt8equal_toIxESt4hashIxENS4_18_Mod_range_hashingENS4_20_Default_ranged_hashENS4_20_Prime_rehash_policyENS4_17_Hashtable_traitsILb0ELb0ELb1EEEE12_M_find_nodeEmRS1_m
FNL:18,841,865
FNA:18,0,_ZNSt10_HashtableIxSt4pairIKxxESaIS2_ENSt8__detail10_Select1stESt8equal_toIxESt4hashIxENS4_18_Mod_range_hashingENS4_20_Default_ranged_hashENS4_20_Prime_rehash_policyENS4_17_Hashtable_traitsILb0ELb0ELb1EEEE22_M_insert_bucket_beginEmPNS4_10_Hash_nodeIS2_Lb0EEE
FNF:19
FNH:0
DA:310,0
DA:311,0
DA:312,0
DA:313,0
DA:316,0
DA:421,0
DA:422,0
DA:439,0
DA:441,0
DA:443,0
DA:444,0
DA:447,0
DA:451,0
DA:453,0
DA:454,0
DA:456,0
DA:460,0
DA:461,0
DA:473,0
DA:474,0
DA:539,0
DA:632,0
DA:633,0
DA:640,0
DA:641,0
DA:799,0
DA:800,0
DA:803,0
DA:804,0
DA:819,0
DA:822,0
DA:823,0
DA:824,0
DA:825,0
DA:841,0
DA:843,0
DA:847,0
DA:848,0
DA:855,0
DA:856,0
DA:858,0
DA:861,0
DA:863,0
DA:865,0
DA:1658,0
DA:1671,0
DA:1672,0
DA:1673,0
DA:2065,0
DA:2071,0
DA:2072,0
DA:2073,0
DA:2075,0
DA:2076,0
DA:2078,0
DA:2079,0
DA:2081,0
DA:2082,0
DA:2083,0
DA:2086,0
DA:2228,0
DA:2234,0
DA:2236,0
DA:2239,0
DA:2241,0
DA:2242,0
DA:2245,0
DA:2246,0
DA:2249,0
DA:2250,0
DA:2251,0
DA:2252,0
DA:2584,0
DA:2588,0
DA:2589,0
DA:2590,0
DA:2591,0
DA:2592,0
DA:2593,0
DA:2623,0
DA:2627,0
DA:2628,0
DA:2629,0
DA:2630,0
DA:2631,0
DA:2633,0
DA:2635,0
DA:2636,0
DA:2638,0
DA:2639,0
DA:2640,0
DA:2641,0
DA:2642,0
DA:2643,0
DA:2647,0
DA:2648,0
DA:2651,0
DA:2654,0
DA:2655,0
DA:2656,0
DA:2657,0
LF:101
LH:0
end_of_record
TN:
SF:/usr/include/c++/14/bits/hashtable_policy.h
FNL:0,112,113
FNA:0,0,_ZNKSt8__detail10_Select1stclIRKSt4pairIKxxEEEONS0_10__1st_typeIT_E4typeEOS8_
FNL:1,1245,1245
FNA:1,0,_ZNSt8__detail21_Hashtable_ebo_helperILi0ESaINS_10_Hash_nodeISt4pairIKxxELb0EEEELb1EEC2Ev
FNA:1,0,_ZNSt8__detail21_Hashtable_ebo_helperILi0ESt8equal_toIxELb1EEC2Ev
FNA:1,0,_ZNSt8__detail21_Hashtable_ebo_helperILi1ESt4hashIxELb1EEC2Ev
FNL:2,1252,1252
FNA:2,0,_ZNKSt8__detail21_Hashtable_ebo_helperILi0ESt8equal_toIxELb1EE7_M_cgetEv
FNA:2,0,_ZNKSt8__detail21_Hashtable_ebo_helperILi1ESt4hashIxELb1EE7_M_cgetEv
FNL:3,1253,1253
FNA:3,0,_ZNSt8__detail21_Hashtable_ebo_helperILi0ESaINS_10_Hash_nodeISt4pairIKxxELb0EEEELb1EE6_M_getEv
FNL:4,1328,1328
FNA:4,0,_ZNSt8__detail15_Hash_code_baseIxSt4pairIKxxENS_10_Select1stESt4hashIxENS_18_Mod_range_hashingENS_20_Default_ranged_hashELb0EEC2Ev
FNL:5,1333,1338
FNA:5,0,_ZNKSt8__detail15_Hash_code_baseIxSt4pairIKxxENS_10_Select1stESt4hashIxENS_18_Mod_range_hashingENS_20_Default_ranged_hashELb0EE12_M_hash_codeERS2_
FNL:6,1358,1359
FNA:6,0,_ZNKSt8__detail15_Hash_code_baseIxSt4pairIKxxENS_10_Select1stESt4hashIxENS_18_Mod_range_hashingENS_20_Default_ranged_hashELb0EE15_M_bucket_indexEmm
FNL:7,1362,1370
FNA:7,0,_ZNKSt8__detail15_Hash_code_baseIxSt4pairIKxxENS_10_Select1stESt4hashIxENS_18_Mod_range_hashingENS_20_Default_ranged_hashELb0EE15_M_bucket_indexERKNS_16_Hash_node_valueIS3_Lb0EEEm
FNL:8,1380,1381
FNA:8,0,_ZNKSt8__detail15_Hash_code_baseIxSt4pairIKxxENS_10_Select1stESt4hashIxENS_18_Mod_range_hashingENS_20_Default_ranged_hashELb0EE13_M_store_codeERNS_21_Hash_node_code_cacheILb0EEEm
FNL:9,1402,1402
FNA:9,0,_ZNKSt8__detail15_Hash_code_baseIxSt4pairIKxxENS_10_Select1stESt4hashIxENS_18_Mod_range_hashingENS_20_Default_ranged_hashELb0EE7_M_hashEv
FNL:10,1710,1711
FNA:10,0,_ZNSt8__detail15_Hashtable_baseIxSt4pairIKxxENS_10_Select1stESt8equal_toIxESt4hashIxENS_18_Mod_range_hashingENS_20_Default_ranged_hashENS_17_Hashtable_traitsILb0ELb0ELb1EEEE9_S_equalsEmRKNS_21_Hash_node_code_cacheILb0EEE
FNL:11,1728,1728
FNA:11,0,_ZNSt8__detail15_Hashtable_baseIxSt4pairIKxxENS_10_Select1stESt8equal_toIxESt4hashIxENS_18_Mod_range_hashingENS_20_Default_ranged_hashENS_17_Hashtable_traitsILb0ELb0ELb1EEEEC2Ev
FNL:12,1735,1743
FNA:12,0,_ZNKSt8__detail15_Hashtable_baseIxSt4pairIKxxENS_10_Select1stESt8equal_toIxESt4hashIxENS_18_Mod_range_hashingENS_20_Default_ranged_hashENS_17_Hashtable_traitsILb0ELb0ELb1EEEE13_M_key_equalsERS2_RKNS_16_Hash_node_valueIS3_Lb0EEE
FNL:13,1759,1761
FNA:13,0,_ZNKSt8__detail15_Hashtable_baseIxSt4pairIKxxENS_10_Select1stESt8equal_toIxESt4hashIxENS_18_Mod_range_hashingENS_20_Default_ranged_hashENS_17_Hashtable_traitsILb0ELb0ELb1EEEE9_M_equalsERS2_mRKNS_16_Hash_node_valueIS3_Lb0EEE
FNL:14,1787,1787
FNA:14,0,_ZNKSt8__detail15_Hashtable_baseIxSt4pairIKxxENS_10_Select1stESt8equal_toIxESt4hashIxENS_18_Mod_range_hashingENS_20_Default_ranged_hashENS_17_Hashtable_traitsILb0ELb0ELb1EEEE5_M_eqEv
FNL:15,1970,1970
FNA:15,0,_ZNSt8__detail16_Hashtable_allocISaINS_10_Hash_nodeISt4pairIKxxELb0EEEEEC2Ev
FNL:16,1980,1981
FNA:16,0,_ZNSt8__detail16_Hashtable_allocISaINS_10_Hash_nodeISt4pairIKxxELb0EEEEE17_M_node_allocatorEv
FNL:17,2017,2036
FNA:17,0,_ZNSt8__detail16_Hashtable_allocISaINS_10_Hash_nodeISt4pairIKxxELb0EEEEE16_M_allocate_nodeIJRKSt21piecewise_construct_tSt5tupleIJRS3_EESC_IJEEEEEPS5_DpOT_
FNL:18,2040,2044
FNA:18,0,_ZNSt8__detail16_Hashtable_allocISaINS_10_Hash_nodeISt4pairIKxxELb0EEEEE18_M_deallocate_nodeEPS5_
FNL:19,2048,2054
FNA:19,0,_ZNSt8__detail16_Hashtable_allocISaINS_10_Hash_nodeISt4pairIKxxELb0EEEEE22_M_deallocate_node_ptrEPS5_
FNL:20,2058,2066
FNA:20,0,_ZNSt8__detail16_Hashtable_allocISaINS_10_Hash_nodeISt4pairIKxxELb0EEEEE19_M_deallocate_nodesEPS5_
FNL:21,2070,2079
FNA:21,0,_ZNSt8__detail16_Hashtable_allocISaINS_10_Hash_nodeISt4pairIKxxELb0EEEEE19_M_allocate_bucketsEm
FNL:22,2083,2091
FNA:22,0,_ZNSt8__detail16_Hashtable_allocISaINS_10_Hash_nodeISt4pairIKxxELb0EEEEE21_M_deallocate_bucketsEPPNS_15_Hash_node_baseEm
FNL:23,319,319
FNA:23,0,_ZNSt8__detail15_Hash_node_baseC2Ev
FNL:24,386,387
FNA:24,0,_ZNKSt8__detail10_Hash_nodeISt4pairIKxxELb0EE7_M_nextEv
FNL:25,399,400
FNA:25,0,_ZNSt8__detail19_Node_iterator_baseISt4pairIKxxELb0EEC2EPNS_10_Hash_nodeIS3_Lb0EEE
FNL:26,403,404
FNA:26,0,_ZNSt8__detail19_Node_iterator_baseISt4pairIKxxELb0EE7_M_incrEv
FNL:27,407,409
FNA:27,0,_ZNSt8__detaileqERKNS_19_Node_iterator_baseISt4pairIKxxELb0EEES6_
FNL:28,442,443
FNA:28,0,_ZNSt8__detail14_Node_iteratorISt4pairIKxxELb0ELb0EEC2EPNS_10_Hash_nodeIS3_Lb0EEE
FNL:29,446,447
FNA:29,0,_ZNKSt8__detail14_Node_iteratorISt4pairIKxxELb0ELb0EEdeEv
FNL:30,450,451
FNA:30,0,_ZNKSt8__detail14_Node_iteratorISt4pairIKxxELb0ELb0EEptEv
FNL:31,454,458
FNA:31,0,_ZNSt8__detail14_Node_iteratorISt4pairIKxxELb0ELb0EEppEv
FNL:32,532,534
FNA:32,0,_ZNKSt8__detail18_Mod_range_hashingclEmm
FNL:33,550,551
FNA:33,0,_ZNSt8__detail20_Prime_rehash_policyC2Ef
FNL:34,577,578
FNA:34,0,_ZNKSt8__detail20_Prime_rehash_policy8_M_stateEv
FNL:35,585,586
FNA:35,0,_ZNSt8__detail20_Prime_rehash_policy8_M_resetEm
FNL:36,730,733
FNA:36,0,_ZNSt8__detail17_RehashStateGuardINS_20_Prime_rehash_policyEEC2ERS1_
FNL:37,736,740
FNA:37,0,_ZNSt8__detail17_RehashStateGuardINS_20_Prime_rehash_policyEED2Ev
FNL:38,832,853
FNA:38,0,_ZNSt8__detail9_Map_baseIxSt4pairIKxxESaIS3_ENS_10_Select1stESt8equal_toIxESt4hashIxENS_18_Mod_range_hashingENS_20_Default_ranged_hashENS_20_Prime_rehash_policyENS_17_Hashtable_traitsILb0ELb0ELb1EEELb1EEixERS2_
FNF:39
FNH:0
DA:112,0
DA:113,0
DA:319,0
DA:339,0
DA:344,0
DA:349,0
DA:354,0
DA:386,0
DA:387,0
DA:399,0
DA:400,0
DA:403,0
DA:404,0
DA:407,0
DA:409,0
DA:442,0
DA:443,0
DA:446,0
DA:447,0
DA:450,0
DA:451,0
DA:454,0
DA:456,0
DA:457,0
DA:532,0
DA:534,0
DA:550,0
DA:551,0
DA:577,0
DA:578,0
DA:585,0
DA:586,0
DA:730,0
DA:731,0
DA:732,0
DA:733,0
DA:736,0
DA:738,0
DA:739,0
DA:740,0
DA:832,0
DA:837,0
DA:838,0
DA:839,0
DA:840,0
DA:841,0
DA:843,0
DA:846,0
DA:847,0
DA:850,0
DA:851,0
DA:852,0
DA:853,0
DA:1245,0
DA:1252,0
DA:1253,0
DA:1328,0
DA:1333,0
DA:1337,0
DA:1358,0
DA:1359,0
DA:1362,0
DA:1368,0
DA:1369,0
DA:1380,0
DA:1381,0
DA:1402,0
DA:1710,0
DA:1711,0
DA:1728,0
DA:1735,0
DA:1742,0
DA:1759,0
DA:1761,0
DA:1787,0
DA:1970,0
DA:1980,0
DA:1981,0
DA:2017,0
DA:2020,0
DA:2021,0
DA:2022,0
DA:2025,0
DA:2026,0
DA:2028,0
DA:2030,0
DA:2032,0
DA:2034,0
DA:2040,0
DA:2042,0
DA:2043,0
DA:2044,0
DA:2048,0
DA:2051,0
DA:2052,0
DA:2053,0
DA:2054,0
DA:2058,0
DA:2060,0
DA:2062,0
DA:2063,0
DA:2064,0
DA:2066,0
DA:2070,0
DA:2073,0
DA:2075,0
DA:2076,0
DA:2077,0
DA:2078,0
DA:2083,0
DA:2088,0
DA:2089,0
DA:2091,0
LF:113
LH:0
end_of_record
TN:
SF:/usr/include/c++/14/bits/move.h
FNL:0,175,176
FNA:0,0,_ZSt9addressofINSt8__detail10_Hash_nodeISt4pairIKxxELb0EEEEPT_RS6_
FNA:0,0,_ZSt9addressofIPNSt8__detail15_Hash_node_baseEEPT_RS3_
FNL:1,51,52
FNA:1,0,_ZSt11__addressofINSt8__detail10_Hash_nodeISt4pairIKxxELb0EEEEPT_RS6_
FNA:1,0,_ZSt11__addressofINSt8__detail20_Prime_rehash_policyEEPT_RS2_
FNA:1,0,_ZSt11__addressofIPNSt8__detail15_Hash_node_baseEEPT_RS3_
FNL:2,71,72
FNA:2,0,_ZSt7forwardIRKSt21piecewise_construct_tEOT_RNSt16remove_referenceIS3_E4typeE
FNA:2,0,_ZSt7forwardIRKSt4pairIKxxEEOT_RNSt16remove_referenceIS5_E4typeE
FNA:2,0,_ZSt7forwardIRKxEOT_RNSt16remove_referenceIS2_E4typeE
FNA:2,0,_ZSt7forwardISt5tupleIJEEEOT_RNSt16remove_referenceIS2_E4typeE
FNA:2,0,_ZSt7forwardISt5tupleIJRKxEEEOT_RNSt16remove_referenceIS4_E4typeE
FNF:3
FNH:0
DA:51,0
DA:52,0
DA:71,0
DA:72,0
DA:175,0
DA:176,0
LF:6
LH:0
end_of_record
TN:
SF:/usr/include/c++/14/bits/new_allocator.h
FNL:0,126,152
FNA:0,0,_ZNSt15__new_allocatorINSt8__detail10_Hash_nodeISt4pairIKxxELb0EEEE8allocateEmPKv
FNA:0,0,_ZNSt15__new_allocatorIPNSt8__detail15_Hash_node_baseEE8allocateEmPKv
FNL:1,156,173
FNA:1,0,_ZNSt15__new_allocatorINSt8__detail10_Hash_nodeISt4pairIKxxELb0EEEE10deallocateEPS5_m
FNA:1,0,_ZNSt15__new_allocatorIPNSt8__detail15_Hash_node_baseEE10deallocateEPS2_m
FNF:2
FNH:0
DA:88,0
DA:126,0
DA:134,0
DA:138,0
DA:139,0
DA:140,0
DA:151,0
DA:156,0
DA:172,0
DA:233,0
LF:10
LH:0
end_of_record
TN:
SF:/usr/include/c++/14/bits/ptr_traits.h
FNL:0,134,135
FNA:0,0,_ZNSt19__ptr_traits_ptr_toIPNSt8__detail10_Hash_nodeISt4pairIKxxELb0EEES5_Lb0EE10pointer_toERS5_
FNA:0,0,_ZNSt19__ptr_traits_ptr_toIPPNSt8__detail15_Hash_node_baseES2_Lb0EE10pointer_toERS2_
FNL:1,205,209
FNA:1,0,_ZSt12__to_addressINSt8__detail10_Hash_nodeISt4pairIKxxELb0EEEEPT_S7_
FNA:1,0,_ZSt12__to_addressIPNSt8__detail15_Hash_node_baseEEPT_S4_
FNF:2
FNH:0
DA:134,0
DA:135,0
DA:205,0
DA:208,0
LF:4
LH:0
end_of_record
TN:
SF:/usr/include/c++/14/bits/stl_construct.h
FNL:0,80,89
FNA:0,0,_ZSt10destroy_atISt4pairIKxxEEvPT_
FNL:1,94,97
FNA:1,0,_ZSt12construct_atISt4pairIKxxEJRKSt21piecewise_construct_tSt5tupleIJRS1_EES6_IJEEEEDTgsnwcvPvLi0E_T_pispcl7declvalIT0_EEEEPSB_DpOSC_
FNF:2
FNH:0
DA:80,0
DA:88,0
DA:89,0
DA:94,0
DA:97,0
LF:5
LH:0
end_of_record
TN:
SF:/usr/include/c++/14/bits/stl_function.h
FNL:0,374,375
FNA:0,0,_ZNKSt8equal_toIxEclERKxS2_
FNF:1
FNH:0
DA:374,0
DA:375,0
LF:2
LH:0
end_of_record
TN:
SF:/usr/include/c++/14/bits/unordered_map.h
FNL:0,148,148
FNA:0,0,_ZNSt13unordered_mapIxxSt4hashIxESt8equal_toIxESaISt4pairIKxxEEEC2Ev
FNL:1,332,333
FNA:1,0,_ZNSt13unordered_mapIxxSt4hashIxESt8equal_toIxESaISt4pairIKxxEEE5beginEv
FNL:2,354,355
FNA:2,0,_ZNSt13unordered_mapIxxSt4hashIxESt8equal_toIxESaISt4pairIKxxEEE3endEv
FNL:3,987,988
FNA:3,0,_ZNSt13unordered_mapIxxSt4hashIxESt8equal_toIxESaISt4pairIKxxEEEixERS5_
FNF:4
FNH:0
DA:148,0
DA:332,0
DA:333,0
DA:354,0
DA:355,0
DA:987,0
DA:988,0
LF:7
LH:0
end_of_record
TN:
SF:/usr/include/c++/14/ext/aligned_buffer.h
FNL:0,104,107
FNA:0,0,_ZN9__gnu_cxx16__aligned_bufferISt4pairIKxxEE7_M_addrEv
FNL:1,110,113
FNA:1,0,_ZNK9__gnu_cxx16__aligned_bufferISt4pairIKxxEE7_M_addrEv
FNL:2,116,117
FNA:2,0,_ZN9__gnu_cxx16__aligned_bufferISt4pairIKxxEE6_M_ptrEv
FNL:3,120,121
FNA:3,0,_ZNK9__gnu_cxx16__aligned_bufferISt4pairIKxxEE6_M_ptrEv
FNF:4
FNH:0
DA:104,0
DA:106,0
DA:110,0
DA:112,0
DA:116,0
DA:117,0
DA:120,0
DA:121,0
LF:8
LH:0
end_of_record
TN:
SF:/usr/include/c++/14/new
FNL:0,179,180
FNA:0,0,_ZnwmPv
FNL:1,185,185
FNA:1,0,_ZdlPvS_
FNF:2
FNH:0
DA:179,0
DA:180,0
DA:185,0
LF:3
LH:0
end_of_record
TN:
SF:/usr/include/c++/14/tuple
FNL:0,201,202
FNA:0,0,_ZNSt10_Head_baseILm0ERKxLb0EEC2ES1_
FNL:1,242,242
FNA:1,0,_ZNSt10_Head_baseILm0ERKxLb0EE7_M_headERS2_
FNL:2,2427,2428
FNA:2,0,_ZSt12__get_helperILm0ERKxJEERT0_RSt11_Tuple_implIXT_EJS2_DpT1_EE
FNL:3,2443,2444
FNA:3,0,_ZSt3getILm0EJRKxEERNSt13tuple_elementIXT_ESt5tupleIJDpT0_EEE4typeERS6_
FNL:4,2872,2878
FNA:4,0,_ZNSt4pairIKxxEC2IJRS0_EJEEESt21piecewise_construct_tSt5tupleIJDpT_EES5_IJDpT0_EE
FNL:5,2884,2889
FNA:5,0,_ZNSt4pairIKxxEC2IJRS0_EJLm0EEJEJEEERSt5tupleIJDpT_EERS4_IJDpT1_EESt12_Index_tupleIJXspT0_EEESD_IJXspT2_EEE
FNL:6,556,556
FNA:6,0,_ZNSt11_Tuple_implILm0EJRKxEE7_M_headERS2_
FNL:7,566,568
FNA:7,0,_ZNSt11_Tuple_implILm0EJRKxEEC2ES1_
FNL:8,586,589
FNA:8,0,_ZNSt11_Tuple_implILm0EJRKxEEC2EOS2_
FNL:9,971,975
FNA:9,0,_ZNSt5tupleIJRKxEEC2ES1_Qcl15__constructibleIDpRKT_EE
FNL:10,995,995
FNA:10,0,_ZNSt5tupleIJRKxEEC2EOS2_
FNF:11
FNH:0
DA:201,0
DA:202,0
DA:242,0
DA:556,0
DA:566,0
DA:567,0
DA:568,0
DA:586,0
DA:588,0
DA:589,0
DA:971,0
DA:974,0
DA:975,0
DA:995,0
DA:2427,0
DA:2428,0
DA:2443,0
DA:2444,0
DA:2872,0
DA:2877,0
DA:2878,0
DA:2884,0
DA:2887,0
DA:2888,0
DA:2889,0
LF:25
LH:0
end_of_record
TN:
SF:/usr/include/c++/14/x86_64-redhat-linux/bits/c++config.h
FNF:0
FNH:0
DA:2394,0
LF:1
LH:0
end_of_record
