TN:
SF:/home/monika/Documents/problems/22037번： DEX Save/main.cpp
FNL:0,55,77
FNA:0,1,_Z26compute_bonus_distributioniRKSt6vectorINSt7__cxx1112basic_stringIcSt11char_traitsIcESaIcEEESaIS5_EE
FNL:1,79,131
FNA:1,1,main
FNL:2,9,53
FNA:2,1,_Z24compute_d20_distributionRKNSt7__cxx1112basic_stringIcSt11char_traitsIcESaIcEEE
FNF:3
FNH:3
DA:9,1
DA:11,1
DA:12,1
DA:14,21
DA:16,20
DA:19,0
DA:21,0
DA:22,0
DA:24,0
DA:26,0
DA:27,0
DA:30,0
DA:32,0
DA:34,0
DA:35,0
DA:37,0
DA:38,0
DA:40,0
DA:42,0
DA:43,0
DA:46,0
DA:48,0
DA:50,0
DA:52,1
DA:53,0
DA:55,1
DA:57,1
DA:58,1
DA:59,1
DA:61,0
DA:62,0
DA:63,0
DA:65,0
DA:67,0
DA:69,0
DA:70,0
DA:73,0
DA:74,0
DA:76,1
DA:77,0
DA:79,1
DA:81,1
DA:82,1
DA:85,1
DA:86,1
DA:87,1
DA:90,1
DA:92,1
DA:94,1
DA:96,0
DA:99,1
DA:101,1
DA:103,1
DA:105,21
DA:107,20
DA:108,20
DA:110,1
DA:111,1
DA:114,19
DA:116,1
DA:119,36
DA:121,18
DA:122,18
DA:124,12
DA:129,1
DA:130,1
DA:131,1
LF:67
LH:37
end_of_record
TN:
SF:/usr/include/c++/14/bits/alloc_traits.h
FNF:0
FNH:0
DA:515,2
DA:550,2
DA:577,1
DA:581,1
DA:599,1
DA:601,1
DA:615,0
DA:767,0
DA:993,2
DA:994,2
LF:10
LH:8
end_of_record
TN:
SF:/usr/include/c++/14/bits/allocator.h
FNF:0
FNH:0
DA:161,4
DA:166,5
DA:182,5
DA:189,2
DA:191,0
DA:192,0
DA:193,0
DA:196,2
DA:203,2
DA:205,0
DA:206,0
DA:208,2
DA:215,0
LF:13
LH:7
end_of_record
TN:
SF:/usr/include/c++/14/bits/basic_string.h
FNL:0,1076,1077
FNA:0,2,_ZNKSt7__cxx1112basic_stringIcSt11char_traitsIcESaIcEE4sizeEv
FNL:1,1089,1090
FNA:1,0,_ZNKSt7__cxx1112basic_stringIcSt11char_traitsIcESaIcEE8max_sizeEv
FNL:2,1247,1251
FNA:2,0,_ZNKSt7__cxx1112basic_stringIcSt11char_traitsIcESaIcEEixEm
FNL:3,129,142
FNA:3,0,_ZNSt7__cxx1112basic_stringIcSt11char_traitsIcESaIcEE11_S_allocateERS3_m
FNL:4,197,198
FNA:4,1,_ZNSt7__cxx1112basic_stringIcSt11char_traitsIcESaIcEE12_Alloc_hiderC2EPcOS3_
FNL:5,217,218
FNA:5,0,_ZNSt7__cxx1112basic_stringIcSt11char_traitsIcESaIcEE7_M_dataEPc
FNL:6,222,223
FNA:6,1,_ZNSt7__cxx1112basic_stringIcSt11char_traitsIcESaIcEE9_M_lengthEm
FNL:7,227,228
FNA:7,3,_ZNKSt7__cxx1112basic_stringIcSt11char_traitsIcESaIcEE7_M_dataEv
FNL:8,232,239
FNA:8,1,_ZNSt7__cxx1112basic_stringIcSt11char_traitsIcESaIcEE13_M_local_dataEv
FNL:9,243,250
FNA:9,1,_ZNKSt7__cxx1112basic_stringIcSt11char_traitsIcESaIcEE13_M_local_dataEv
FNL:10,254,255
FNA:10,0,_ZNSt7__cxx1112basic_stringIcSt11char_traitsIcESaIcEE11_M_capacityEm
FNL:11,259,263
FNA:11,1,_ZNSt7__cxx1112basic_stringIcSt11char_traitsIcESaIcEE13_M_set_lengthEm
FNL:12,2640,2641
FNA:12,0,_ZNKSt7__cxx1112basic_stringIcSt11char_traitsIcESaIcEE5c_strEv
FNL:13,2653,2654
FNA:13,1,_ZNKSt7__cxx1112basic_stringIcSt11char_traitsIcESaIcEE4dataEv
FNL:14,267,276
FNA:14,1,_ZNKSt7__cxx1112basic_stringIcSt11char_traitsIcESaIcEE11_M_is_localEv
FNL:15,285,289
FNA:15,1,_ZNSt7__cxx1112basic_stringIcSt11char_traitsIcESaIcEE10_M_disposeEv
FNL:16,293,294
FNA:16,0,_ZNSt7__cxx1112basic_stringIcSt11char_traitsIcESaIcEE10_M_destroyEm
FNL:17,3208,3210
FNA:17,0,_ZNKSt7__cxx1112basic_stringIcSt11char_traitsIcESaIcEE6substrEmm
FNL:18,341,342
FNA:18,0,_ZNSt7__cxx1112basic_stringIcSt11char_traitsIcESaIcEE16_M_get_allocatorEv
FNL:19,346,347
FNA:19,0,_ZNKSt7__cxx1112basic_stringIcSt11char_traitsIcESaIcEE16_M_get_allocatorEv
FNL:20,3772,3777
FNA:20,1,_ZSteqIcSt11char_traitsIcESaIcEEbRKNSt7__cxx1112basic_stringIT_T0_T1_EEPKS5_
FNL:21,391,398
FNA:21,0,_ZNKSt7__cxx1112basic_stringIcSt11char_traitsIcESaIcEE8_M_checkEmPKc
FNL:22,412,416
FNA:22,0,_ZNKSt7__cxx1112basic_stringIcSt11char_traitsIcESaIcEE8_M_limitEmm
FNL:23,4164,4166
FNA:23,0,_ZNSt7__cxx114stoiERKNS_12basic_stringIcSt11char_traitsIcESaIcEEEPmi
FNL:24,430,436
FNA:24,0,_ZNSt7__cxx1112basic_stringIcSt11char_traitsIcESaIcEE7_S_copyEPcPKcm
FNL:25,487,489
FNA:25,0,_ZNSt7__cxx1112basic_stringIcSt11char_traitsIcESaIcEE13_S_copy_charsEPcPKcS7_
FNL:26,527,533
FNA:26,1,_ZNSt7__cxx1112basic_stringIcSt11char_traitsIcESaIcEEC2Ev
FNL:27,586,594
FNA:27,0,_ZNSt7__cxx1112basic_stringIcSt11char_traitsIcESaIcEEC2ERKS4_mm
FNL:28,808,809
FNA:28,1,_ZNSt7__cxx1112basic_stringIcSt11char_traitsIcESaIcEED2Ev
FNF:29
FNH:13
DA:129,0
DA:131,0
DA:141,0
DA:197,1
DA:198,1
DA:217,0
DA:218,0
DA:222,1
DA:223,1
DA:227,3
DA:228,3
DA:232,1
DA:235,1
DA:243,1
DA:246,1
DA:254,0
DA:255,0
DA:259,1
DA:261,1
DA:262,1
DA:263,1
DA:267,1
DA:269,1
DA:271,1
DA:272,0
DA:273,1
DA:275,0
DA:285,1
DA:287,1
DA:288,0
DA:289,1
DA:293,0
DA:294,0
DA:341,0
DA:342,0
DA:346,0
DA:347,0
DA:356,1
DA:357,0
DA:358,0
DA:360,1
DA:391,0
DA:393,0
DA:394,0
DA:397,0
DA:412,0
DA:414,0
DA:415,0
DA:430,0
DA:432,0
DA:433,0
DA:435,0
DA:436,0
DA:487,0
DA:489,0
DA:527,1
DA:529,3
DA:532,1
DA:533,1
DA:586,0
DA:588,0
DA:590,0
DA:591,0
DA:592,0
DA:594,0
DA:808,1
DA:809,1
DA:1076,2
DA:1077,2
DA:1089,0
DA:1090,0
DA:1247,0
DA:1249,0
DA:1250,0
DA:2640,0
DA:2641,0
DA:2653,1
DA:2654,1
DA:3208,0
DA:3210,0
DA:3772,1
DA:3775,1
DA:3776,1
DA:4164,0
DA:4165,0
DA:4166,0
LF:86
LH:36
end_of_record
TN:
SF:/usr/include/c++/14/bits/basic_string.tcc
FNL:0,138,160
FNA:0,0,_ZNSt7__cxx1112basic_stringIcSt11char_traitsIcESaIcEE9_M_createERmm
FNL:1,221,252
FNA:1,0,_ZNSt7__cxx1112basic_stringIcSt11char_traitsIcESaIcEE12_M_constructIPKcEEvT_S8_St20forward_iterator_tag
FNL:2,239,239
FNA:2,0,_ZZNSt7__cxx1112basic_stringIcSt11char_traitsIcESaIcEE12_M_constructIPKcEEvT_S8_St20forward_iterator_tagEN6_GuardC2EPS4_
FNL:3,242,242
FNA:3,0,_ZZNSt7__cxx1112basic_stringIcSt11char_traitsIcESaIcEE12_M_constructIPKcEEvT_S8_St20forward_iterator_tagEN6_GuardD2Ev
FNF:4
FNH:0
DA:138,0
DA:143,0
DA:144,0
DA:149,0
DA:151,0
DA:153,0
DA:154,0
DA:159,0
DA:221,0
DA:225,0
DA:227,0
DA:229,0
DA:230,0
DA:239,0
DA:242,0
DA:245,0
DA:247,0
DA:249,0
DA:251,0
DA:252,0
LF:20
LH:0
end_of_record
TN:
SF:/usr/include/c++/14/bits/char_traits.h
FNL:0,136,137
FNA:0,0,_ZN9__gnu_cxx11char_traitsIcE2eqERKcS3_
FNL:1,199,206
FNA:1,0,_ZN9__gnu_cxx11char_traitsIcE6lengthEPKc
FNL:2,253,268
FNA:2,0,_ZN9__gnu_cxx11char_traitsIcE4copyEPcPKcm
FNL:3,343,351
FNA:3,1,_ZNSt11char_traitsIcE6assignERcRKc
FNL:4,358,363
FNA:4,0,_ZNSt11char_traitsIcE2ltERKcS2_
FNL:5,366,382
FNA:5,1,_ZNSt11char_traitsIcE7compareEPKcS2_m
FNL:6,385,392
FNA:6,1,_ZNSt11char_traitsIcE6lengthEPKc
FNL:7,419,428
FNA:7,0,_ZNSt11char_traitsIcE4copyEPcPKcm
FNF:8
FNH:3
DA:136,0
DA:137,0
DA:199,0
DA:202,0
DA:203,0
DA:204,0
DA:205,0
DA:253,0
DA:256,0
DA:257,0
DA:259,0
DA:261,0
DA:262,0
DA:263,0
DA:266,0
DA:267,0
DA:343,1
DA:346,1
DA:347,0
DA:350,1
DA:351,1
DA:358,0
DA:361,0
DA:362,0
DA:366,1
DA:368,1
DA:369,0
DA:371,1
DA:373,0
DA:374,0
DA:375,0
DA:376,0
DA:377,0
DA:378,0
DA:381,1
DA:385,1
DA:388,1
DA:389,0
DA:391,1
DA:419,0
DA:421,0
DA:422,0
DA:424,0
DA:425,0
DA:427,0
LF:45
LH:11
end_of_record
TN:
SF:/usr/include/c++/14/bits/ios_base.h
FNL:0,104,105
FNA:0,1,_ZStoRRSt13_Ios_FmtflagsS_
FNL:1,109,110
FNA:1,1,_ZStaNRSt13_Ios_FmtflagsS_
FNL:2,1104,1108
FNA:2,1,_ZSt5fixedRSt8ios_base
FNL:3,726,732
FNA:3,1,_ZNSt8ios_base4setfESt13_Ios_FmtflagsS0_
FNL:4,84,85
FNA:4,2,_ZStanSt13_Ios_FmtflagsS_
FNL:5,89,90
FNA:5,1,_ZStorSt13_Ios_FmtflagsS_
FNL:6,99,100
FNA:6,1,_ZStcoSt13_Ios_Fmtflags
FNF:7
FNH:7
DA:84,2
DA:85,2
DA:89,1
DA:90,1
DA:99,1
DA:100,1
DA:104,1
DA:105,1
DA:109,1
DA:110,1
DA:726,1
DA:728,1
DA:729,1
DA:730,1
DA:731,1
DA:1104,1
DA:1106,1
DA:1107,1
LF:18
LH:18
end_of_record
TN:
SF:/usr/include/c++/14/bits/move.h
FNL:0,137,138
FNA:0,1,_ZSt4moveIRSaIcEEONSt16remove_referenceIT_E4typeEOS3_
FNA:0,1,_ZSt4moveIRiEONSt16remove_referenceIT_E4typeEOS2_
FNL:1,175,176
FNA:1,1,_ZSt9addressofIKcEPT_RS1_
FNA:1,1,_ZSt9addressofIcEPT_RS0_
FNL:2,51,52
FNA:2,0,_ZSt11__addressofIKSt8_Rb_treeIiSt4pairIKidESt10_Select1stIS3_ESt4lessIiESaIS3_EEEPT_RSB_
FNA:2,1,_ZSt11__addressofIKcEPT_RS1_
FNA:2,0,_ZSt11__addressofINSt7__cxx1112basic_stringIcSt11char_traitsIcESaIcEEEEPT_RS6_
FNA:2,1,_ZSt11__addressofIcEPT_RS0_
FNA:2,0,_ZSt11__addressofIdEPT_RS0_
FNA:2,0,_ZSt11__addressofIiEPT_RS0_
FNL:3,71,72
FNA:3,1,_ZSt7forwardIOiEOT_RNSt16remove_referenceIS1_E4typeE
FNA:3,6,_ZSt7forwardIRKSt21piecewise_construct_tEOT_RNSt16remove_referenceIS3_E4typeE
FNA:3,0,_ZSt7forwardIRKSt4pairIKidEEOT_RNSt16remove_referenceIS5_E4typeE
FNA:3,0,_ZSt7forwardIRKcEOT_RNSt16remove_referenceIS2_E4typeE
FNA:3,0,_ZSt7forwardIRKdEOT_RNSt16remove_referenceIS2_E4typeE
FNA:3,0,_ZSt7forwardIRKiEOT_RNSt16remove_referenceIS2_E4typeE
FNA:3,1,_ZSt7forwardIRPSt13_Rb_tree_nodeISt4pairIKidEEEOT_RNSt16remove_referenceIS7_E4typeE
FNA:3,1,_ZSt7forwardIRPSt18_Rb_tree_node_baseEOT_RNSt16remove_referenceIS3_E4typeE
FNA:3,6,_ZSt7forwardISt5tupleIJEEEOT_RNSt16remove_referenceIS2_E4typeE
FNA:3,6,_ZSt7forwardISt5tupleIJOiEEEOT_RNSt16remove_referenceIS3_E4typeE
FNA:3,4,_ZSt7forwardIiEOT_RNSt16remove_referenceIS0_E4typeE
FNF:4
FNH:4
DA:51,2
DA:52,2
DA:71,25
DA:72,25
DA:137,2
DA:138,2
DA:175,2
DA:176,2
LF:8
LH:8
end_of_record
TN:
SF:/usr/include/c++/14/bits/new_allocator.h
FNL:0,126,152
FNA:0,0,_ZNSt15__new_allocatorINSt7__cxx1112basic_stringIcSt11char_traitsIcESaIcEEEE8allocateEmPKv
FNA:0,1,_ZNSt15__new_allocatorISt13_Rb_tree_nodeISt4pairIKidEEE8allocateEmPKv
FNA:0,0,_ZNSt15__new_allocatorIcE8allocateEmPKv
FNA:0,1,_ZNSt15__new_allocatorIdE8allocateEmPKv
FNA:0,0,_ZNSt15__new_allocatorIiE8allocateEmPKv
FNL:1,156,173
FNA:1,0,_ZNSt15__new_allocatorINSt7__cxx1112basic_stringIcSt11char_traitsIcESaIcEEEE10deallocateEPS5_m
FNA:1,1,_ZNSt15__new_allocatorISt13_Rb_tree_nodeISt4pairIKidEEE10deallocateEPS4_m
FNA:1,0,_ZNSt15__new_allocatorIcE10deallocateEPcm
FNA:1,1,_ZNSt15__new_allocatorIdE10deallocateEPdm
FNA:1,0,_ZNSt15__new_allocatorIiE10deallocateEPim
FNF:2
FNH:2
DA:88,4
DA:92,5
DA:126,2
DA:134,2
DA:138,0
DA:139,0
DA:140,0
DA:151,2
DA:156,2
DA:172,2
DA:233,2
LF:11
LH:8
end_of_record
TN:
SF:/usr/include/c++/14/bits/ptr_traits.h
FNL:0,134,135
FNA:0,1,_ZNSt19__ptr_traits_ptr_toIPKcS0_Lb0EE10pointer_toERS0_
FNA:0,1,_ZNSt19__ptr_traits_ptr_toIPccLb0EE10pointer_toERc
FNF:1
FNH:1
DA:134,2
DA:135,2
LF:2
LH:2
end_of_record
TN:
SF:/usr/include/c++/14/bits/stl_algobase.h
FNL:0,1040,1040
FNA:0,1,_ZSt17__size_to_integerm
FNL:1,1140,1153
FNA:1,1,_ZSt10__fill_n_aIPdmdET_S1_T0_RKT1_St26random_access_iterator_tag
FNA:1,0,_ZSt10__fill_n_aIPimiET_S1_T0_RKT1_St26random_access_iterator_tag
FNL:2,1175,1182
FNA:2,1,_ZSt6fill_nIPdmdET_S1_T0_RKT1_
FNA:2,0,_ZSt6fill_nIPimiET_S1_T0_RKT1_
FNL:3,233,241
FNA:3,0,_ZSt3minIiERKT_S2_S2_
FNA:3,2,_ZSt3minImERKT_S2_S2_
FNL:4,257,265
FNA:4,0,_ZSt3maxIiERKT_S2_S2_
FNL:5,947,953
FNA:5,1,_ZSt9__fill_a1IPddEN9__gnu_cxx11__enable_ifIXsrSt11__is_scalarIT0_E7__valueEvE6__typeET_S8_RKS4_
FNA:5,0,_ZSt9__fill_a1IPiiEN9__gnu_cxx11__enable_ifIXsrSt11__is_scalarIT0_E7__valueEvE6__typeET_S8_RKS4_
FNL:6,997,998
FNA:6,1,_ZSt8__fill_aIPddEvT_S1_RKT0_
FNA:6,0,_ZSt8__fill_aIPiiEvT_S1_RKT0_
FNF:7
FNH:6
DA:233,2
DA:238,2
DA:239,0
DA:240,2
DA:257,0
DA:262,0
DA:263,0
DA:264,0
DA:947,1
DA:950,1
DA:951,22
DA:952,21
DA:953,1
DA:997,1
DA:998,1
DA:1040,1
DA:1140,1
DA:1146,1
DA:1147,0
DA:1151,1
DA:1152,1
DA:1175,1
DA:1180,1
DA:1181,2
LF:24
LH:18
end_of_record
TN:
SF:/usr/include/c++/14/bits/stl_construct.h
FNL:0,109,120
FNA:0,0,_ZSt10_ConstructINSt7__cxx1112basic_stringIcSt11char_traitsIcESaIcEEEJEEvPT_DpOT0_
FNA:0,0,_ZSt10_ConstructIdJRKdEEvPT_DpOT0_
FNA:0,0,_ZSt10_ConstructIiJRKiEEvPT_DpOT0_
FNL:1,146,153
FNA:1,0,_ZSt8_DestroyINSt7__cxx1112basic_stringIcSt11char_traitsIcESaIcEEEEvPT_
FNA:1,0,_ZSt8_DestroyIdEvPT_
FNA:1,0,_ZSt8_DestroyIiEvPT_
FNL:2,160,164
FNA:2,1,_ZNSt12_Destroy_auxILb0EE9__destroyIPNSt7__cxx1112basic_stringIcSt11char_traitsIcESaIcEEEEEvT_S9_
FNA:2,0,_ZNSt12_Destroy_auxILb0EE9__destroyIPdEEvT_S3_
FNA:2,0,_ZNSt12_Destroy_auxILb0EE9__destroyIPiEEvT_S3_
FNL:3,172,172
FNA:3,1,_ZNSt12_Destroy_auxILb1EE9__destroyIPdEEvT_S3_
FNA:3,0,_ZNSt12_Destroy_auxILb1EE9__destroyIPiEEvT_S3_
FNL:4,182,197
FNA:4,1,_ZSt8_DestroyIPNSt7__cxx1112basic_stringIcSt11char_traitsIcESaIcEEEEvT_S7_
FNA:4,1,_ZSt8_DestroyIPdEvT_S1_
FNA:4,0,_ZSt8_DestroyIPiEvT_S1_
FNL:5,80,89
FNA:5,0,_ZSt10destroy_atINSt7__cxx1112basic_stringIcSt11char_traitsIcESaIcEEEEvPT_
FNA:5,1,_ZSt10destroy_atISt4pairIKidEEvPT_
FNA:5,0,_ZSt10destroy_atIdEvPT_
FNA:5,0,_ZSt10destroy_atIiEvPT_
FNL:6,94,97
FNA:6,0,_ZSt12construct_atINSt7__cxx1112basic_stringIcSt11char_traitsIcESaIcEEEJEEDTgsnwcvPvLi0E_T_pispcl7declvalIT0_EEEEPS7_DpOS8_
FNA:6,0,_ZSt12construct_atISt4pairIKidEJRKS2_EEDTgsnwcvPvLi0E_T_pispcl7declvalIT0_EEEEPS6_DpOS7_
FNA:6,1,_ZSt12construct_atISt4pairIKidEJRKSt21piecewise_construct_tSt5tupleIJOiEES6_IJEEEEDTgsnwcvPvLi0E_T_pispcl7declvalIT0_EEEEPSB_DpOSC_
FNA:6,0,_ZSt12construct_atIcJRKcEEDTgsnwcvPvLi0E_T_pispcl7declvalIT0_EEEEPS3_DpOS4_
FNA:6,0,_ZSt12construct_atIdJRKdEEDTgsnwcvPvLi0E_T_pispcl7declvalIT0_EEEEPS3_DpOS4_
FNA:6,0,_ZSt12construct_atIiJRKiEEDTgsnwcvPvLi0E_T_pispcl7declvalIT0_EEEEPS3_DpOS4_
FNF:7
FNH:5
DA:80,1
DA:88,1
DA:89,1
DA:94,1
DA:97,1
DA:109,0
DA:112,0
DA:115,0
DA:116,0
DA:119,0
DA:146,0
DA:149,0
DA:153,0
DA:160,1
DA:162,1
DA:163,0
DA:164,1
DA:172,1
DA:182,2
DA:192,2
DA:193,0
DA:196,2
LF:22
LH:12
end_of_record
TN:
SF:/usr/include/c++/14/bits/stl_function.h
FNL:0,1179,1180
FNA:0,1,_ZNKSt10_Select1stISt4pairIKidEEclERKS2_
FNL:1,404,405
FNA:1,0,_ZNKSt4lessIiEclERKiS2_
FNF:2
FNH:1
DA:404,0
DA:405,0
DA:1179,1
DA:1180,1
LF:4
LH:2
end_of_record
TN:
SF:/usr/include/c++/14/bits/stl_iterator_base_funcs.h
FNF:0
FNH:0
DA:106,0
DA:151,0
DA:152,0
LF:3
LH:0
end_of_record
TN:
SF:/usr/include/c++/14/bits/stl_iterator_base_types.h
FNF:0
FNH:0
DA:240,1
LF:1
LH:1
end_of_record
TN:
SF:/usr/include/c++/14/bits/stl_map.h
FNL:0,1191,1192
FNA:0,0,_ZNKSt3mapIidSt4lessIiESaISt4pairIKidEEE8key_compEv
FNL:1,1307,1308
FNA:1,1,_ZNSt3mapIidSt4lessIiESaISt4pairIKidEEE11lower_boundERS3_
FNL:2,197,197
FNA:2,1,_ZNSt3mapIidSt4lessIiESaISt4pairIKidEEEC2Ev
FNL:3,314,314
FNA:3,1,_ZNSt3mapIidSt4lessIiESaISt4pairIKidEEED2Ev
FNL:4,331,331
FNA:4,0,_ZNSt3mapIidSt4lessIiESaISt4pairIKidEEEaSERKS6_
FNL:5,368,369
FNA:5,18,_ZNSt3mapIidSt4lessIiESaISt4pairIKidEEE5beginEv
FNL:6,386,387
FNA:6,19,_ZNSt3mapIidSt4lessIiESaISt4pairIKidEEE3endEv
FNL:7,524,536
FNA:7,1,_ZNSt3mapIidSt4lessIiESaISt4pairIKidEEEixEOi
FNF:8
FNH:6
DA:197,1
DA:314,1
DA:331,0
DA:368,18
DA:369,18
DA:386,19
DA:387,19
DA:524,1
DA:529,1
DA:531,1
DA:532,1
DA:533,1
DA:534,1
DA:535,2
DA:1191,0
DA:1192,0
DA:1307,1
DA:1308,1
LF:18
LH:15
end_of_record
TN:
SF:/usr/include/c++/14/bits/stl_pair.h
FNL:0,1200,1201
FNA:0,18,_ZNSt10__pair_getILm0EE5__getIKidEERT_RSt4pairIS3_T0_E
FNL:1,1224,1225
FNA:1,18,_ZNSt10__pair_getILm1EE5__getIKidEERT0_RSt4pairIT_S3_E
FNL:2,1250,1251
FNA:2,18,_ZSt3getILm0EKidERNSt13tuple_elementIXT_ESt4pairIT0_T1_EE4typeERS5_
FNA:2,18,_ZSt3getILm1EKidERNSt13tuple_elementIXT_ESt4pairIT0_T1_EE4typeERS5_
FNL:3,428,432
FNA:3,0,_ZNSt4pairIPSt18_Rb_tree_node_baseS1_EC2ERKS1_S4_Qcl16_S_constructibleIRKT_RKT0_EE
FNL:4,442,445
FNA:4,1,_ZNSt4pairIPSt18_Rb_tree_node_baseS1_EC2IRPSt13_Rb_tree_nodeIS_IKidEERS1_EEOT_OT0_
FNA:4,0,_ZNSt4pairIPSt18_Rb_tree_node_baseS1_EC2IRS1_S4_EEOT_OT0_
FNL:5,492,495
FNA:5,1,_ZNSt4pairIPSt18_Rb_tree_node_baseS1_EC2IS1_S1_EERS_IT_T0_E
FNF:6
FNH:5
DA:428,0
DA:431,0
DA:432,0
DA:442,1
DA:444,1
DA:445,1
DA:492,1
DA:494,1
DA:495,1
DA:1200,18
DA:1201,18
DA:1224,18
DA:1225,18
DA:1250,36
DA:1251,36
LF:15
LH:12
end_of_record
TN:
SF:/usr/include/c++/14/bits/stl_tree.h
FNL:0,1001,1002
FNA:0,19,_ZNSt8_Rb_treeIiSt4pairIKidESt10_Select1stIS2_ESt4lessIiESaIS2_EE3endEv
FNL:1,1029,1030
FNA:1,1,_ZNKSt8_Rb_treeIiSt4pairIKidESt10_Select1stIS2_ESt4lessIiESaIS2_EE4sizeEv
FNL:2,108,112
FNA:2,0,_ZNSt18_Rb_tree_node_base10_S_minimumEPS_
FNL:3,122,126
FNA:3,0,_ZNSt18_Rb_tree_node_base10_S_maximumEPS_
FNL:4,1249,1253
FNA:4,0,_ZNSt8_Rb_treeIiSt4pairIKidESt10_Select1stIS2_ESt4lessIiESaIS2_EE5clearEv
FNL:5,1266,1267
FNA:5,1,_ZNSt8_Rb_treeIiSt4pairIKidESt10_Select1stIS2_ESt4lessIiESaIS2_EE11lower_boundERS1_
FNL:6,142,146
FNA:6,1,_ZNSt20_Rb_tree_key_compareISt4lessIiEEC2Ev
FNL:7,1631,1634
FNA:7,1,_ZNSt8_Rb_treeIiSt4pairIKidESt10_Select1stIS2_ESt4lessIiESaIS2_EE10_Auto_nodeC2IJRKSt21piecewise_construct_tSt5tupleIJOiEESE_IJEEEEERS8_DpOT_
FNL:8,1636,1640
FNA:8,1,_ZNSt8_Rb_treeIiSt4pairIKidESt10_Select1stIS2_ESt4lessIiESaIS2_EE10_Auto_nodeD2Ev
FNL:9,1647,1648
FNA:9,1,_ZNKSt8_Rb_treeIiSt4pairIKidESt10_Select1stIS2_ESt4lessIiESaIS2_EE10_Auto_node6_M_keyEv
FNL:10,1651,1656
FNA:10,1,_ZNSt8_Rb_treeIiSt4pairIKidESt10_Select1stIS2_ESt4lessIiESaIS2_EE10_Auto_node9_M_insertES0_IPSt18_Rb_tree_node_baseSB_E
FNL:11,169,173
FNA:11,1,_ZNSt15_Rb_tree_headerC2Ev
FNL:12,1774,1804
FNA:12,0,_ZNSt8_Rb_treeIiSt4pairIKidESt10_Select1stIS2_ESt4lessIiESaIS2_EEaSERKS8_
FNL:13,1888,1921
FNA:13,0,_ZNSt8_Rb_treeIiSt4pairIKidESt10_Select1stIS2_ESt4lessIiESaIS2_EE7_M_copyILb0ENS8_20_Reuse_or_alloc_nodeEEEPSt13_Rb_tree_nodeIS2_ESD_PSt18_Rb_tree_node_baseRT0_
FNL:14,1926,1937
FNA:14,2,_ZNSt8_Rb_treeIiSt4pairIKidESt10_Select1stIS2_ESt4lessIiESaIS2_EE8_M_eraseEPSt13_Rb_tree_nodeIS2_E
FNL:15,1943,1953
FNA:15,1,_ZNSt8_Rb_treeIiSt4pairIKidESt10_Select1stIS2_ESt4lessIiESaIS2_EE14_M_lower_boundEPSt13_Rb_tree_nodeIS2_EPSt18_Rb_tree_node_baseRS1_
FNL:16,202,208
FNA:16,1,_ZNSt15_Rb_tree_header8_M_resetEv
FNL:17,2104,2128
FNA:17,1,_ZNSt8_Rb_treeIiSt4pairIKidESt10_Select1stIS2_ESt4lessIiESaIS2_EE24_M_get_insert_unique_posERS1_
FNL:18,2206,2257
FNA:18,1,_ZNSt8_Rb_treeIiSt4pairIKidESt10_Select1stIS2_ESt4lessIiESaIS2_EE29_M_get_insert_hint_unique_posESt23_Rb_tree_const_iteratorIS2_ERS1_
FNL:19,230,231
FNA:19,21,_ZNSt13_Rb_tree_nodeISt4pairIKidEE9_M_valptrEv
FNL:20,234,235
FNA:20,1,_ZNKSt13_Rb_tree_nodeISt4pairIKidEE9_M_valptrEv
FNL:21,2373,2385
FNA:21,1,_ZNSt8_Rb_treeIiSt4pairIKidESt10_Select1stIS2_ESt4lessIiESaIS2_EE14_M_insert_nodeEPSt18_Rb_tree_node_baseSA_PSt13_Rb_tree_nodeIS2_E
FNL:22,2454,2463
FNA:22,1,_ZNSt8_Rb_treeIiSt4pairIKidESt10_Select1stIS2_ESt4lessIiESaIS2_EE22_M_emplace_hint_uniqueIJRKSt21piecewise_construct_tSt5tupleIJOiEESD_IJEEEEESt17_Rb_tree_iteratorIS2_ESt23_Rb_tree_const_iteratorIS2_EDpOT_
FNL:23,269,270
FNA:23,42,_ZNSt17_Rb_tree_iteratorISt4pairIKidEEC2EPSt18_Rb_tree_node_base
FNL:24,273,274
FNA:24,19,_ZNKSt17_Rb_tree_iteratorISt4pairIKidEEdeEv
FNL:25,281,285
FNA:25,18,_ZNSt17_Rb_tree_iteratorISt4pairIKidEEppEv
FNL:26,296,300
FNA:26,0,_ZNSt17_Rb_tree_iteratorISt4pairIKidEEmmEv
FNL:27,311,312
FNA:27,38,_ZSteqRKSt17_Rb_tree_iteratorISt4pairIKidEES5_
FNL:28,346,347
FNA:28,1,_ZNSt23_Rb_tree_const_iteratorISt4pairIKidEEC2ERKSt17_Rb_tree_iteratorIS2_E
FNL:29,350,351
FNA:29,1,_ZNKSt23_Rb_tree_const_iteratorISt4pairIKidEE13_M_const_castEv
FNL:30,441,453
FNA:30,0,_ZNSt8_Rb_treeIiSt4pairIKidESt10_Select1stIS2_ESt4lessIiESaIS2_EE20_Reuse_or_alloc_nodeC2ERS8_
FNL:31,459,460
FNA:31,0,_ZNSt8_Rb_treeIiSt4pairIKidESt10_Select1stIS2_ESt4lessIiESaIS2_EE20_Reuse_or_alloc_nodeD2Ev
FNL:32,464,475
FNA:32,0,_ZNSt8_Rb_treeIiSt4pairIKidESt10_Select1stIS2_ESt4lessIiESaIS2_EE20_Reuse_or_alloc_nodeclIRKS2_EEPSt13_Rb_tree_nodeIS2_EOT_
FNL:33,479,510
FNA:33,0,_ZNSt8_Rb_treeIiSt4pairIKidESt10_Select1stIS2_ESt4lessIiESaIS2_EE20_Reuse_or_alloc_node10_M_extractEv
FNL:34,545,546
FNA:34,4,_ZNSt8_Rb_treeIiSt4pairIKidESt10_Select1stIS2_ESt4lessIiESaIS2_EE21_M_get_Node_allocatorEv
FNL:35,549,550
FNA:35,0,_ZNKSt8_Rb_treeIiSt4pairIKidESt10_Select1stIS2_ESt4lessIiESaIS2_EE21_M_get_Node_allocatorEv
FNL:36,558,559
FNA:36,1,_ZNSt8_Rb_treeIiSt4pairIKidESt10_Select1stIS2_ESt4lessIiESaIS2_EE11_M_get_nodeEv
FNL:37,562,563
FNA:37,1,_ZNSt8_Rb_treeIiSt4pairIKidESt10_Select1stIS2_ESt4lessIiESaIS2_EE11_M_put_nodeEPSt13_Rb_tree_nodeIS2_E
FNL:38,588,603
FNA:38,0,_ZNSt8_Rb_treeIiSt4pairIKidESt10_Select1stIS2_ESt4lessIiESaIS2_EE17_M_construct_nodeIJRKS2_EEEvPSt13_Rb_tree_nodeIS2_EDpOT_
FNA:38,1,_ZNSt8_Rb_treeIiSt4pairIKidESt10_Select1stIS2_ESt4lessIiESaIS2_EE17_M_construct_nodeIJRKSt21piecewise_construct_tSt5tupleIJOiEESD_IJEEEEEvPSt13_Rb_tree_nodeIS2_EDpOT_
FNL:39,607,612
FNA:39,0,_ZNSt8_Rb_treeIiSt4pairIKidESt10_Select1stIS2_ESt4lessIiESaIS2_EE14_M_create_nodeIJRKS2_EEEPSt13_Rb_tree_nodeIS2_EDpOT_
FNA:39,1,_ZNSt8_Rb_treeIiSt4pairIKidESt10_Select1stIS2_ESt4lessIiESaIS2_EE14_M_create_nodeIJRKSt21piecewise_construct_tSt5tupleIJOiEESD_IJEEEEEPSt13_Rb_tree_nodeIS2_EDpOT_
FNL:40,616,624
FNA:40,1,_ZNSt8_Rb_treeIiSt4pairIKidESt10_Select1stIS2_ESt4lessIiESaIS2_EE15_M_destroy_nodeEPSt13_Rb_tree_nodeIS2_E
FNL:41,627,631
FNA:41,1,_ZNSt8_Rb_treeIiSt4pairIKidESt10_Select1stIS2_ESt4lessIiESaIS2_EE12_M_drop_nodeEPSt13_Rb_tree_nodeIS2_E
FNL:42,635,648
FNA:42,0,_ZNSt8_Rb_treeIiSt4pairIKidESt10_Select1stIS2_ESt4lessIiESaIS2_EE13_M_clone_nodeILb0ENS8_20_Reuse_or_alloc_nodeEEEPSt13_Rb_tree_nodeIS2_ESD_RT0_
FNL:43,665,670
FNA:43,1,_ZNSt8_Rb_treeIiSt4pairIKidESt10_Select1stIS2_ESt4lessIiESaIS2_EE13_Rb_tree_implIS6_Lb1EEC2Ev
FNL:44,708,709
FNA:44,0,_ZNSt8_Rb_treeIiSt4pairIKidESt10_Select1stIS2_ESt4lessIiESaIS2_EE7_M_rootEv
FNL:45,712,713
FNA:45,0,_ZNKSt8_Rb_treeIiSt4pairIKidESt10_Select1stIS2_ESt4lessIiESaIS2_EE7_M_rootEv
FNL:46,716,717
FNA:46,0,_ZNSt8_Rb_treeIiSt4pairIKidESt10_Select1stIS2_ESt4lessIiESaIS2_EE11_M_leftmostEv
FNL:47,724,725
FNA:47,0,_ZNSt8_Rb_treeIiSt4pairIKidESt10_Select1stIS2_ESt4lessIiESaIS2_EE12_M_rightmostEv
FNL:48,732,733
FNA:48,3,_ZNKSt8_Rb_treeIiSt4pairIKidESt10_Select1stIS2_ESt4lessIiESaIS2_EE9_M_mbeginEv
FNL:49,736,737
FNA:49,3,_ZNSt8_Rb_treeIiSt4pairIKidESt10_Select1stIS2_ESt4lessIiESaIS2_EE8_M_beginEv
FNL:50,747,748
FNA:50,4,_ZNSt8_Rb_treeIiSt4pairIKidESt10_Select1stIS2_ESt4lessIiESaIS2_EE6_M_endEv
FNL:51,755,774
FNA:51,1,_ZNSt8_Rb_treeIiSt4pairIKidESt10_Select1stIS2_ESt4lessIiESaIS2_EE6_S_keyEPKSt13_Rb_tree_nodeIS2_E
FNL:52,777,778
FNA:52,1,_ZNSt8_Rb_treeIiSt4pairIKidESt10_Select1stIS2_ESt4lessIiESaIS2_EE7_S_leftEPSt18_Rb_tree_node_base
FNL:53,785,786
FNA:53,1,_ZNSt8_Rb_treeIiSt4pairIKidESt10_Select1stIS2_ESt4lessIiESaIS2_EE8_S_rightEPSt18_Rb_tree_node_base
FNL:54,793,794
FNA:54,0,_ZNSt8_Rb_treeIiSt4pairIKidESt10_Select1stIS2_ESt4lessIiESaIS2_EE6_S_keyEPKSt18_Rb_tree_node_base
FNL:55,797,798
FNA:55,0,_ZNSt8_Rb_treeIiSt4pairIKidESt10_Select1stIS2_ESt4lessIiESaIS2_EE10_S_minimumEPSt18_Rb_tree_node_base
FNL:56,805,806
FNA:56,0,_ZNSt8_Rb_treeIiSt4pairIKidESt10_Select1stIS2_ESt4lessIiESaIS2_EE10_S_maximumEPSt18_Rb_tree_node_base
FNL:57,885,893
FNA:57,0,_ZNSt8_Rb_treeIiSt4pairIKidESt10_Select1stIS2_ESt4lessIiESaIS2_EE7_M_copyILb0ENS8_20_Reuse_or_alloc_nodeEEEPSt13_Rb_tree_nodeIS2_ERKS8_RT0_
FNL:58,926,926
FNA:58,1,_ZNSt8_Rb_treeIiSt4pairIKidESt10_Select1stIS2_ESt4lessIiESaIS2_EEC2Ev
FNL:59,981,982
FNA:59,1,_ZNSt8_Rb_treeIiSt4pairIKidESt10_Select1stIS2_ESt4lessIiESaIS2_EED2Ev
FNL:60,989,990
FNA:60,0,_ZNKSt8_Rb_treeIiSt4pairIKidESt10_Select1stIS2_ESt4lessIiESaIS2_EE8key_compEv
FNL:61,993,994
FNA:61,19,_ZNSt8_Rb_treeIiSt4pairIKidESt10_Select1stIS2_ESt4lessIiESaIS2_EE5beginEv
FNF:62
FNH:41
DA:108,0
DA:110,0
DA:111,0
DA:122,0
DA:124,0
DA:125,0
DA:142,1
DA:146,1
DA:169,1
DA:170,1
DA:171,1
DA:172,1
DA:173,1
DA:202,1
DA:204,1
DA:205,1
DA:206,1
DA:207,1
DA:208,1
DA:230,21
DA:231,21
DA:234,1
DA:235,1
DA:269,42
DA:270,42
DA:273,19
DA:274,19
DA:281,18
DA:283,18
DA:284,18
DA:296,0
DA:298,0
DA:299,0
DA:311,38
DA:312,38
DA:346,1
DA:347,1
DA:350,1
DA:351,1
DA:441,0
DA:442,0
DA:444,0
DA:446,0
DA:448,0
DA:449,0
DA:452,0
DA:453,0
DA:459,0
DA:460,0
DA:464,0
DA:466,0
DA:467,0
DA:469,0
DA:470,0
DA:471,0
DA:474,0
DA:479,0
DA:481,0
DA:482,0
DA:484,0
DA:485,0
DA:486,0
DA:488,0
DA:490,0
DA:492,0
DA:494,0
DA:496,0
DA:497,0
DA:499,0
DA:500,0
DA:504,0
DA:507,0
DA:509,0
DA:545,4
DA:546,4
DA:549,0
DA:550,0
DA:558,1
DA:559,2
DA:562,1
DA:563,1
DA:588,1
DA:592,1
DA:593,1
DA:597,0
DA:599,0
DA:600,0
DA:601,0
DA:603,1
DA:607,1
DA:609,1
DA:610,1
DA:611,1
DA:616,1
DA:621,1
DA:622,1
DA:624,1
DA:627,1
DA:629,1
DA:630,1
DA:631,1
DA:635,0
DA:643,0
DA:644,0
DA:645,0
DA:646,0
DA:647,0
DA:665,1
DA:669,1
DA:670,1
DA:708,0
DA:709,0
DA:712,0
DA:713,0
DA:716,0
DA:717,0
DA:724,0
DA:725,0
DA:732,3
DA:733,3
DA:736,3
DA:737,3
DA:747,4
DA:748,4
DA:755,1
DA:773,1
DA:777,1
DA:778,1
DA:785,1
DA:786,1
DA:793,0
DA:794,0
DA:797,0
DA:798,0
DA:805,0
DA:806,0
DA:885,0
DA:888,0
DA:889,0
DA:890,0
DA:891,0
DA:892,0
DA:926,1
DA:981,1
DA:982,1
DA:989,0
DA:990,0
DA:993,19
DA:994,19
DA:1001,19
DA:1002,19
DA:1029,1
DA:1030,1
DA:1249,0
DA:1251,0
DA:1252,0
DA:1253,0
DA:1266,1
DA:1267,1
DA:1631,1
DA:1632,1
DA:1633,1
DA:1634,1
DA:1636,1
DA:1638,1
DA:1639,0
DA:1640,1
DA:1647,1
DA:1648,1
DA:1651,1
DA:1653,1
DA:1654,1
DA:1655,1
DA:1774,0
DA:1777,0
DA:1781,0
DA:1783,0
DA:1784,0
DA:1785,0
DA:1786,0
DA:1790,0
DA:1796,0
DA:1797,0
DA:1799,0
DA:1800,0
DA:1801,0
DA:1803,0
DA:1888,0
DA:1892,0
DA:1893,0
DA:1897,0
DA:1898,0
DA:1899,0
DA:1900,0
DA:1901,0
DA:1903,0
DA:1905,0
DA:1906,0
DA:1907,0
DA:1908,0
DA:1909,0
DA:1911,0
DA:1912,0
DA:1915,0
DA:1917,0
DA:1918,0
DA:1920,0
DA:1926,2
DA:1930,3
DA:1932,1
DA:1933,1
DA:1934,1
DA:1935,1
DA:1937,2
DA:1943,1
DA:1947,1
DA:1948,0
DA:1949,0
DA:1951,0
DA:1952,1
DA:2104,1
DA:2108,1
DA:2109,1
DA:2110,1
DA:2111,1
DA:2113,0
DA:2114,0
DA:2115,0
DA:2117,1
DA:2118,1
DA:2120,1
DA:2121,1
DA:2123,0
DA:2125,0
DA:2126,0
DA:2127,0
DA:2206,1
DA:2210,1
DA:2214,1
DA:2216,1
DA:2217,1
DA:2218,0
DA:2220,1
DA:2222,0
DA:2225,0
DA:2226,0
DA:2227,0
DA:2228,0
DA:2230,0
DA:2231,0
DA:2233,0
DA:2236,0
DA:2238,0
DA:2241,0
DA:2242,0
DA:2243,0
DA:2244,0
DA:2246,0
DA:2247,0
DA:2249,0
DA:2252,0
DA:2256,0
DA:2373,1
DA:2377,1
DA:2378,2
DA:2381,1
DA:2382,1
DA:2383,1
DA:2384,1
DA:2454,1
DA:2458,1
DA:2459,1
DA:2460,1
DA:2461,1
DA:2462,0
DA:2463,1
LF:276
LH:129
end_of_record
TN:
SF:/usr/include/c++/14/bits/stl_uninitialized.h
FNL:0,261,275
FNA:0,0,_ZSt18__do_uninit_fill_nIPdmdET_S1_T0_RKT1_
FNA:0,0,_ZSt18__do_uninit_fill_nIPimiET_S1_T0_RKT1_
FNL:1,292,294
FNA:1,1,_ZNSt22__uninitialized_fill_nILb1EE15__uninit_fill_nIPdmdEET_S3_T0_RKT1_
FNA:1,0,_ZNSt22__uninitialized_fill_nILb1EE15__uninit_fill_nIPimiEET_S3_T0_RKT1_
FNL:2,312,328
FNA:2,1,_ZSt20uninitialized_fill_nIPdmdET_S1_T0_RKT1_
FNA:2,0,_ZSt20uninitialized_fill_nIPimiET_S1_T0_RKT1_
FNL:3,465,473
FNA:3,1,_ZSt24__uninitialized_fill_n_aIPdmddET_S1_T0_RKT1_RSaIT2_E
FNA:3,0,_ZSt24__uninitialized_fill_n_aIPimiiET_S1_T0_RKT1_RSaIT2_E
FNL:4,637,651
FNA:4,1,_ZNSt27__uninitialized_default_n_1ILb0EE18__uninit_default_nIPNSt7__cxx1112basic_stringIcSt11char_traitsIcESaIcEEEmEET_S9_T0_
FNL:5,696,713
FNA:5,1,_ZSt25__uninitialized_default_nIPNSt7__cxx1112basic_stringIcSt11char_traitsIcESaIcEEEmET_S7_T0_
FNL:6,777,779
FNA:6,1,_ZSt27__uninitialized_default_n_aIPNSt7__cxx1112basic_stringIcSt11char_traitsIcESaIcEEEmS5_ET_S7_T0_RSaIT1_E
FNF:7
FNH:6
DA:261,0
DA:263,0
DA:266,0
DA:267,0
DA:268,0
DA:292,1
DA:294,1
DA:312,1
DA:319,1
DA:327,1
DA:465,1
DA:469,1
DA:470,0
DA:472,1
DA:637,1
DA:639,1
DA:642,1
DA:643,0
DA:644,1
DA:696,1
DA:699,1
DA:701,0
DA:707,1
DA:712,1
DA:777,1
DA:779,1
LF:26
LH:18
end_of_record
TN:
SF:/usr/include/c++/14/bits/stl_vector.h
FNL:0,1128,1132
FNA:0,0,_ZNSt6vectorINSt7__cxx1112basic_stringIcSt11char_traitsIcESaIcEEESaIS5_EEixEm
FNA:0,40,_ZNSt6vectorIdSaIdEEixEm
FNA:0,0,_ZNSt6vectorIiSaIiEEixEm
FNL:1,1147,1151
FNA:1,0,_ZNKSt6vectorINSt7__cxx1112basic_stringIcSt11char_traitsIcESaIcEEESaIS5_EEixEm
FNL:2,145,147
FNA:2,1,_ZNSt12_Vector_baseINSt7__cxx1112basic_stringIcSt11char_traitsIcESaIcEEESaIS5_EE12_Vector_implC2ERKS6_
FNA:2,1,_ZNSt12_Vector_baseIdSaIdEE12_Vector_implC2ERKS0_
FNA:2,0,_ZNSt12_Vector_baseIiSaIiEE12_Vector_implC2ERKS0_
FNL:3,1706,1711
FNA:3,1,_ZNSt6vectorIdSaIdEE18_M_fill_initializeEmRKd
FNA:3,0,_ZNSt6vectorIiSaIiEE18_M_fill_initializeEmRKi
FNL:4,1717,1722
FNA:4,1,_ZNSt6vectorINSt7__cxx1112basic_stringIcSt11char_traitsIcESaIcEEESaIS5_EE21_M_default_initializeEm
FNL:5,1917,1923
FNA:5,1,_ZNSt6vectorINSt7__cxx1112basic_stringIcSt11char_traitsIcESaIcEEESaIS5_EE17_S_check_init_lenEmRKS6_
FNA:5,1,_ZNSt6vectorIdSaIdEE17_S_check_init_lenEmRKS0_
FNA:5,0,_ZNSt6vectorIiSaIiEE17_S_check_init_lenEmRKS0_
FNL:6,1926,1935
FNA:6,1,_ZNSt6vectorINSt7__cxx1112basic_stringIcSt11char_traitsIcESaIcEEESaIS5_EE11_S_max_sizeERKS6_
FNA:6,1,_ZNSt6vectorIdSaIdEE11_S_max_sizeERKS0_
FNA:6,0,_ZNSt6vectorIiSaIiEE11_S_max_sizeERKS0_
FNL:7,300,301
FNA:7,2,_ZNSt12_Vector_baseINSt7__cxx1112basic_stringIcSt11char_traitsIcESaIcEEESaIS5_EE19_M_get_Tp_allocatorEv
FNA:7,2,_ZNSt12_Vector_baseIdSaIdEE19_M_get_Tp_allocatorEv
FNA:7,0,_ZNSt12_Vector_baseIiSaIiEE19_M_get_Tp_allocatorEv
FNL:8,332,334
FNA:8,1,_ZNSt12_Vector_baseINSt7__cxx1112basic_stringIcSt11char_traitsIcESaIcEEESaIS5_EEC2EmRKS6_
FNA:8,1,_ZNSt12_Vector_baseIdSaIdEEC2EmRKS0_
FNA:8,0,_ZNSt12_Vector_baseIiSaIiEEC2EmRKS0_
FNL:9,366,370
FNA:9,1,_ZNSt12_Vector_baseINSt7__cxx1112basic_stringIcSt11char_traitsIcESaIcEEESaIS5_EED2Ev
FNA:9,1,_ZNSt12_Vector_baseIdSaIdEED2Ev
FNA:9,0,_ZNSt12_Vector_baseIiSaIiEED2Ev
FNL:10,377,381
FNA:10,1,_ZNSt12_Vector_baseINSt7__cxx1112basic_stringIcSt11char_traitsIcESaIcEEESaIS5_EE11_M_allocateEm
FNA:10,1,_ZNSt12_Vector_baseIdSaIdEE11_M_allocateEm
FNA:10,0,_ZNSt12_Vector_baseIiSaIiEE11_M_allocateEm
FNL:11,385,390
FNA:11,1,_ZNSt12_Vector_baseINSt7__cxx1112basic_stringIcSt11char_traitsIcESaIcEEESaIS5_EE13_M_deallocateEPS5_m
FNA:11,1,_ZNSt12_Vector_baseIdSaIdEE13_M_deallocateEPdm
FNA:11,0,_ZNSt12_Vector_baseIiSaIiEE13_M_deallocateEPim
FNL:12,396,401
FNA:12,1,_ZNSt12_Vector_baseINSt7__cxx1112basic_stringIcSt11char_traitsIcESaIcEEESaIS5_EE17_M_create_storageEm
FNA:12,1,_ZNSt12_Vector_baseIdSaIdEE17_M_create_storageEm
FNA:12,0,_ZNSt12_Vector_baseIiSaIiEE17_M_create_storageEm
FNL:13,556,558
FNA:13,1,_ZNSt6vectorINSt7__cxx1112basic_stringIcSt11char_traitsIcESaIcEEESaIS5_EEC2EmRKS6_
FNL:14,569,572
FNA:14,1,_ZNSt6vectorIdSaIdEEC2EmRKdRKS0_
FNA:14,0,_ZNSt6vectorIiSaIiEEC2EmRKiRKS0_
FNL:15,733,738
FNA:15,1,_ZNSt6vectorINSt7__cxx1112basic_stringIcSt11char_traitsIcESaIcEEESaIS5_EED2Ev
FNA:15,1,_ZNSt6vectorIdSaIdEED2Ev
FNA:15,0,_ZNSt6vectorIiSaIiEED2Ev
FNL:16,98,100
FNA:16,1,_ZNSt12_Vector_baseINSt7__cxx1112basic_stringIcSt11char_traitsIcESaIcEEESaIS5_EE17_Vector_impl_dataC2Ev
FNA:16,1,_ZNSt12_Vector_baseIdSaIdEE17_Vector_impl_dataC2Ev
FNA:16,0,_ZNSt12_Vector_baseIiSaIiEE17_Vector_impl_dataC2Ev
FNF:17
FNH:16
DA:98,2
DA:99,2
DA:100,2
DA:145,2
DA:146,2
DA:147,2
DA:300,4
DA:301,4
DA:332,2
DA:333,2
DA:334,2
DA:366,2
DA:368,2
DA:369,2
DA:370,2
DA:377,2
DA:380,3
DA:385,2
DA:388,2
DA:389,1
DA:390,2
DA:396,2
DA:398,2
DA:399,2
DA:400,2
DA:401,2
DA:556,1
DA:557,1
DA:558,1
DA:569,1
DA:571,1
DA:572,1
DA:733,2
DA:735,2
DA:736,2
DA:738,2
DA:1128,40
DA:1131,40
DA:1147,0
DA:1150,0
DA:1706,1
DA:1708,1
DA:1709,1
DA:1710,1
DA:1711,1
DA:1717,1
DA:1719,1
DA:1720,1
DA:1721,1
DA:1722,1
DA:1917,2
DA:1919,2
DA:1920,0
DA:1922,2
DA:1926,2
DA:1931,2
DA:1933,2
DA:1934,2
LF:58
LH:55
end_of_record
TN:
SF:/usr/include/c++/14/ext/aligned_buffer.h
FNL:0,64,65
FNA:0,21,_ZN9__gnu_cxx16__aligned_membufISt4pairIKidEE7_M_addrEv
FNL:1,68,69
FNA:1,1,_ZNK9__gnu_cxx16__aligned_membufISt4pairIKidEE7_M_addrEv
FNL:2,72,73
FNA:2,21,_ZN9__gnu_cxx16__aligned_membufISt4pairIKidEE6_M_ptrEv
FNL:3,76,77
FNA:3,1,_ZNK9__gnu_cxx16__aligned_membufISt4pairIKidEE6_M_ptrEv
FNF:4
FNH:4
DA:64,21
DA:65,21
DA:68,1
DA:69,1
DA:72,21
DA:73,21
DA:76,1
DA:77,1
LF:8
LH:8
end_of_record
TN:
SF:/usr/include/c++/14/ext/alloc_traits.h
FNF:0
FNH:0
DA:106,0
DA:118,0
LF:2
LH:0
end_of_record
TN:
SF:/usr/include/c++/14/ext/string_conversions.h
FNL:0,56,96
FNA:0,0,_ZN9__gnu_cxx6__stoaIlicJiEEET0_PFT_PKT1_PPS3_DpT2_EPKcS5_PmS9_
FNL:1,65,65
FNA:1,0,_ZZN9__gnu_cxx6__stoaIlicJiEEET0_PFT_PKT1_PPS3_DpT2_EPKcS5_PmS9_EN11_Save_errnoC2Ev
FNL:2,66,66
FNA:2,0,_ZZN9__gnu_cxx6__stoaIlicJiEEET0_PFT_PKT1_PPS3_DpT2_EPKcS5_PmS9_EN11_Save_errnoD2Ev
FNL:3,75,79
FNA:3,0,_ZZN9__gnu_cxx6__stoaIlicJiEEET0_PFT_PKT1_PPS3_DpT2_EPKcS5_PmS9_EN10_Range_chk6_S_chkElSt17integral_constantIbLb1EE
FNF:4
FNH:0
DA:56,0
DA:65,0
DA:66,0
DA:68,0
DA:75,0
DA:78,0
DA:82,0
DA:84,0
DA:85,0
DA:86,0
DA:87,0
DA:88,0
DA:90,0
DA:92,0
DA:93,0
DA:95,0
DA:96,0
LF:17
LH:0
end_of_record
TN:
SF:/usr/include/c++/14/iomanip
FNL:0,202,203
FNA:0,1,_ZSt12setprecisioni
FNF:1
FNH:1
DA:202,1
DA:203,1
LF:2
LH:2
end_of_record
TN:
SF:/usr/include/c++/14/new
FNL:0,179,180
FNA:0,2,_ZnwmPv
FNL:1,185,185
FNA:1,0,_ZdlPvS_
FNF:2
FNH:1
DA:179,2
DA:180,2
DA:185,0
LF:3
LH:2
end_of_record
TN:
SF:/usr/include/c++/14/tuple
FNL:0,208,209
FNA:0,1,_ZNSt10_Head_baseILm0EOiLb0EEC2IiEEOT_
FNL:1,242,242
FNA:1,1,_ZNSt10_Head_baseILm0EOiLb0EE7_M_headERS1_
FNL:2,2427,2428
FNA:2,1,_ZSt12__get_helperILm0EOiJEERT0_RSt11_Tuple_implIXT_EJS1_DpT1_EE
FNL:3,2443,2444
FNA:3,1,_ZSt3getILm0EJOiEERNSt13tuple_elementIXT_ESt5tupleIJDpT0_EEE4typeERS5_
FNL:4,2650,2651
FNA:4,1,_ZSt16forward_as_tupleIJiEESt5tupleIJDpOT_EES3_
FNL:5,2872,2878
FNA:5,1,_ZNSt4pairIKidEC2IJOiEJEEESt21piecewise_construct_tSt5tupleIJDpT_EES5_IJDpT0_EE
FNL:6,2884,2889
FNA:6,1,_ZNSt4pairIKidEC2IJOiEJLm0EEJEJEEERSt5tupleIJDpT_EERS4_IJDpT1_EESt12_Index_tupleIJXspT0_EEESD_IJXspT2_EEE
FNL:7,556,556
FNA:7,1,_ZNSt11_Tuple_implILm0EJOiEE7_M_headERS1_
FNL:8,572,574
FNA:8,1,_ZNSt11_Tuple_implILm0EJOiEEC2IiEEOT_
FNL:9,586,589
FNA:9,1,_ZNSt11_Tuple_implILm0EJOiEEC2EOS1_
FNL:10,982,985
FNA:10,1,_ZNSt5tupleIJOiEEC2IJiEEEDpOT_
FNL:11,995,995
FNA:11,1,_ZNSt5tupleIJOiEEC2EOS1_
FNF:12
FNH:12
DA:208,1
DA:209,1
DA:242,1
DA:556,1
DA:572,1
DA:573,1
DA:574,1
DA:586,1
DA:588,1
DA:589,1
DA:982,1
DA:984,1
DA:985,1
DA:995,1
DA:2427,1
DA:2428,1
DA:2443,1
DA:2444,1
DA:2650,1
DA:2651,1
DA:2872,1
DA:2877,1
DA:2878,1
DA:2884,1
DA:2887,1
DA:2888,1
DA:2889,1
LF:27
LH:27
end_of_record
TN:
SF:/usr/include/c++/14/type_traits
FNL:0,3832,3839
FNA:0,3,_ZSt21is_constant_evaluatedv
FNF:1
FNH:1
DA:3832,3
DA:3835,3
LF:2
LH:2
end_of_record
TN:
SF:/usr/include/c++/14/x86_64-redhat-linux/bits/c++config.h
FNF:0
FNH:0
DA:2394,9
DA:2456,0
LF:2
LH:1
end_of_record
