TN:
SF:/home/monika/Documents/problems/15427번： Greeting Card/main.cpp
FNL:0,13,16
FNA:0,28,_ZNK4HashclERK5Point
FNL:1,19,19
FNA:1,4,_ZeqRK5PointS1_
FNL:2,21,57
FNA:2,1,main
FNF:3
FNH:3
DA:13,28
DA:15,28
DA:19,4
DA:21,1
DA:23,1
DA:24,1
DA:27,1
DA:29,1
DA:31,1
DA:32,5
DA:34,4
DA:35,4
DA:38,2
DA:40,1
DA:42,5
DA:44,28
DA:46,24
DA:47,24
DA:49,4
DA:54,1
DA:56,1
DA:57,1
LF:22
LH:22
end_of_record
TN:
SF:/usr/include/c++/14/bits/alloc_traits.h
FNF:0
FNH:0
DA:515,7
DA:550,7
DA:577,4
DA:581,4
DA:599,4
DA:601,4
DA:993,2
DA:994,2
LF:8
LH:8
end_of_record
TN:
SF:/usr/include/c++/14/bits/allocator.h
FNF:0
FNH:0
DA:161,3
DA:166,4
DA:176,2
DA:182,6
DA:189,7
DA:191,0
DA:192,0
DA:193,0
DA:196,7
DA:203,7
DA:205,0
DA:206,0
DA:208,7
LF:13
LH:8
end_of_record
TN:
SF:/usr/include/c++/14/bits/cpp_type_traits.h
FNL:0,608,609
FNA:0,2,_ZSt12__miter_baseIPK5PointET_S3_
FNF:1
FNH:1
DA:608,2
DA:609,2
LF:2
LH:2
end_of_record
TN:
SF:/usr/include/c++/14/bits/hashtable.h
FNL:0,1658,1673
FNA:0,1,_ZNSt10_HashtableI5PointS0_SaIS0_ENSt8__detail9_IdentityESt8equal_toIS0_E4HashNS2_18_Mod_range_hashingENS2_20_Default_ranged_hashENS2_20_Prime_rehash_policyENS2_17_Hashtable_traitsILb1ELb1ELb1EEEED2Ev
FNL:1,1727,1743
FNA:1,24,_ZNSt10_HashtableI5PointS0_SaIS0_ENSt8__detail9_IdentityESt8equal_toIS0_E4HashNS2_18_Mod_range_hashingENS2_20_Default_ranged_hashENS2_20_Prime_rehash_policyENS2_17_Hashtable_traitsILb1ELb1ELb1EEEE4findERKS0_
FNL:2,2065,2087
FNA:2,24,_ZNKSt10_HashtableI5PointS0_SaIS0_ENSt8__detail9_IdentityESt8equal_toIS0_E4HashNS2_18_Mod_range_hashingENS2_20_Default_ranged_hashENS2_20_Prime_rehash_policyENS2_17_Hashtable_traitsILb1ELb1ELb1EEEE19_M_find_before_nodeEmRKS0_m
FNL:3,2095,2117
FNA:3,3,_ZNKSt10_HashtableI5PointS0_SaIS0_ENSt8__detail9_IdentityESt8equal_toIS0_E4HashNS2_18_Mod_range_hashingENS2_20_Default_ranged_hashENS2_20_Prime_rehash_policyENS2_17_Hashtable_traitsILb1ELb1ELb1EEEE22_M_find_before_node_trIS0_EEPNS2_15_Hash_node_baseEmRKT_m
FNL:4,2228,2252
FNA:4,4,_ZNSt10_HashtableI5PointS0_SaIS0_ENSt8__detail9_IdentityESt8equal_toIS0_E4HashNS2_18_Mod_range_hashingENS2_20_Default_ranged_hashENS2_20_Prime_rehash_policyENS2_17_Hashtable_traitsILb1ELb1ELb1EEEE21_M_insert_unique_nodeEmmPNS2_10_Hash_nodeIS0_Lb1EEEm
FNL:5,2317,2346
FNA:5,4,_ZNSt10_HashtableI5PointS0_SaIS0_ENSt8__detail9_IdentityESt8equal_toIS0_E4HashNS2_18_Mod_range_hashingENS2_20_Default_ranged_hashENS2_20_Prime_rehash_policyENS2_17_Hashtable_traitsILb1ELb1ELb1EEEE16_M_insert_uniqueIRKS0_SF_NS2_10_AllocNodeISaINS2_10_Hash_nodeIS0_Lb1EEEEEEEESt4pairINS2_14_Node_iteratorIS0_Lb1ELb1EEEbEOT_OT0_RKT1_
FNL:6,2584,2593
FNA:6,1,_ZNSt10_HashtableI5PointS0_SaIS0_ENSt8__detail9_IdentityESt8equal_toIS0_E4HashNS2_18_Mod_range_hashingENS2_20_Default_ranged_hashENS2_20_Prime_rehash_policyENS2_17_Hashtable_traitsILb1ELb1ELb1EEEE5clearEv
FNL:7,2623,2657
FNA:7,1,_ZNSt10_HashtableI5PointS0_SaIS0_ENSt8__detail9_IdentityESt8equal_toIS0_E4HashNS2_18_Mod_range_hashingENS2_20_Default_ranged_hashENS2_20_Prime_rehash_policyENS2_17_Hashtable_traitsILb1ELb1ELb1EEEE9_M_rehashEmSt17integral_constantIbLb1EE
FNL:8,305,306
FNA:8,4,_ZNSt10_HashtableI5PointS0_SaIS0_ENSt8__detail9_IdentityESt8equal_toIS0_E4HashNS2_18_Mod_range_hashingENS2_20_Default_ranged_hashENS2_20_Prime_rehash_policyENS2_17_Hashtable_traitsILb1ELb1ELb1EEEE12_Scoped_nodeC2EPNS2_10_Hash_nodeIS0_Lb1EEEPNS2_16_Hashtable_allocISaISF_EEE
FNL:9,316,316
FNA:9,4,_ZNSt10_HashtableI5PointS0_SaIS0_ENSt8__detail9_IdentityESt8equal_toIS0_E4HashNS2_18_Mod_range_hashingENS2_20_Default_ranged_hashENS2_20_Prime_rehash_policyENS2_17_Hashtable_traitsILb1ELb1ELb1EEEE12_Scoped_nodeD2Ev
FNL:10,421,422
FNA:10,2,_ZNKSt10_HashtableI5PointS0_SaIS0_ENSt8__detail9_IdentityESt8equal_toIS0_E4HashNS2_18_Mod_range_hashingENS2_20_Default_ranged_hashENS2_20_Prime_rehash_policyENS2_17_Hashtable_traitsILb1ELb1ELb1EEEE21_M_uses_single_bucketEPPNS2_15_Hash_node_baseE
FNL:11,429,433
FNA:11,32,_ZNSt10_HashtableI5PointS0_SaIS0_ENSt8__detail9_IdentityESt8equal_toIS0_E4HashNS2_18_Mod_range_hashingENS2_20_Default_ranged_hashENS2_20_Prime_rehash_policyENS2_17_Hashtable_traitsILb1ELb1ELb1EEEE22__small_size_thresholdEv
FNL:12,439,448
FNA:12,1,_ZNSt10_HashtableI5PointS0_SaIS0_ENSt8__detail9_IdentityESt8equal_toIS0_E4HashNS2_18_Mod_range_hashingENS2_20_Default_ranged_hashENS2_20_Prime_rehash_policyENS2_17_Hashtable_traitsILb1ELb1ELb1EEEE19_M_allocate_bucketsEm
FNL:13,451,457
FNA:13,2,_ZNSt10_HashtableI5PointS0_SaIS0_ENSt8__detail9_IdentityESt8equal_toIS0_E4HashNS2_18_Mod_range_hashingENS2_20_Default_ranged_hashENS2_20_Prime_rehash_policyENS2_17_Hashtable_traitsILb1ELb1ELb1EEEE21_M_deallocate_bucketsEPPNS2_15_Hash_node_baseEm
FNL:14,460,461
FNA:14,2,_ZNSt10_HashtableI5PointS0_SaIS0_ENSt8__detail9_IdentityESt8equal_toIS0_E4HashNS2_18_Mod_range_hashingENS2_20_Default_ranged_hashENS2_20_Prime_rehash_policyENS2_17_Hashtable_traitsILb1ELb1ELb1EEEE21_M_deallocate_bucketsEv
FNL:15,473,474
FNA:15,3,_ZNKSt10_HashtableI5PointS0_SaIS0_ENSt8__detail9_IdentityESt8equal_toIS0_E4HashNS2_18_Mod_range_hashingENS2_20_Default_ranged_hashENS2_20_Prime_rehash_policyENS2_17_Hashtable_traitsILb1ELb1ELb1EEEE8_M_beginEv
FNL:16,539,539
FNA:16,1,_ZNSt10_HashtableI5PointS0_SaIS0_ENSt8__detail9_IdentityESt8equal_toIS0_E4HashNS2_18_Mod_range_hashingENS2_20_Default_ranged_hashENS2_20_Prime_rehash_policyENS2_17_Hashtable_traitsILb1ELb1ELb1EEEEC2Ev
FNL:17,640,641
FNA:17,24,_ZNSt10_HashtableI5PointS0_SaIS0_ENSt8__detail9_IdentityESt8equal_toIS0_E4HashNS2_18_Mod_range_hashingENS2_20_Default_ranged_hashENS2_20_Prime_rehash_policyENS2_17_Hashtable_traitsILb1ELb1ELb1EEEE3endEv
FNL:18,656,657
FNA:18,28,_ZNKSt10_HashtableI5PointS0_SaIS0_ENSt8__detail9_IdentityESt8equal_toIS0_E4HashNS2_18_Mod_range_hashingENS2_20_Default_ranged_hashENS2_20_Prime_rehash_policyENS2_17_Hashtable_traitsILb1ELb1ELb1EEEE4sizeEv
FNL:19,799,800
FNA:19,10,_ZNKSt10_HashtableI5PointS0_SaIS0_ENSt8__detail9_IdentityESt8equal_toIS0_E4HashNS2_18_Mod_range_hashingENS2_20_Default_ranged_hashENS2_20_Prime_rehash_policyENS2_17_Hashtable_traitsILb1ELb1ELb1EEEE15_M_bucket_indexERKNS2_16_Hash_node_valueIS0_Lb1EEE
FNL:20,803,804
FNA:20,29,_ZNKSt10_HashtableI5PointS0_SaIS0_ENSt8__detail9_IdentityESt8equal_toIS0_E4HashNS2_18_Mod_range_hashingENS2_20_Default_ranged_hashENS2_20_Prime_rehash_policyENS2_17_Hashtable_traitsILb1ELb1ELb1EEEE15_M_bucket_indexEm
FNL:21,819,826
FNA:21,24,_ZNKSt10_HashtableI5PointS0_SaIS0_ENSt8__detail9_IdentityESt8equal_toIS0_E4HashNS2_18_Mod_range_hashingENS2_20_Default_ranged_hashENS2_20_Prime_rehash_policyENS2_17_Hashtable_traitsILb1ELb1ELb1EEEE12_M_find_nodeEmRKS0_m
FNL:22,830,837
FNA:22,3,_ZNKSt10_HashtableI5PointS0_SaIS0_ENSt8__detail9_IdentityESt8equal_toIS0_E4HashNS2_18_Mod_range_hashingENS2_20_Default_ranged_hashENS2_20_Prime_rehash_policyENS2_17_Hashtable_traitsILb1ELb1ELb1EEEE15_M_find_node_trIS0_EEPNS2_10_Hash_nodeIS0_Lb1EEEmRKT_m
FNL:23,841,865
FNA:23,4,_ZNSt10_HashtableI5PointS0_SaIS0_ENSt8__detail9_IdentityESt8equal_toIS0_E4HashNS2_18_Mod_range_hashingENS2_20_Default_ranged_hashENS2_20_Prime_rehash_policyENS2_17_Hashtable_traitsILb1ELb1ELb1EEEE22_M_insert_bucket_beginEmPNS2_10_Hash_nodeIS0_Lb1EEE
FNL:24,936,937
FNA:24,4,_ZNSt10_HashtableI5PointS0_SaIS0_ENSt8__detail9_IdentityESt8equal_toIS0_E4HashNS2_18_Mod_range_hashingENS2_20_Default_ranged_hashENS2_20_Prime_rehash_policyENS2_17_Hashtable_traitsILb1ELb1ELb1EEEE14_S_forward_keyERKS0_
FNL:25,945,950
FNA:25,4,_ZNSt10_HashtableI5PointS0_SaIS0_ENSt8__detail9_IdentityESt8equal_toIS0_E4HashNS2_18_Mod_range_hashingENS2_20_Default_ranged_hashENS2_20_Prime_rehash_policyENS2_17_Hashtable_traitsILb1ELb1ELb1EEEE20_M_insert_unique_auxIRKS0_NS2_10_AllocNodeISaINS2_10_Hash_nodeIS0_Lb1EEEEEEEESt4pairINS2_14_Node_iteratorIS0_Lb1ELb1EEEbEOT_RKT0_
FNL:26,954,961
FNA:26,4,_ZNSt10_HashtableI5PointS0_SaIS0_ENSt8__detail9_IdentityESt8equal_toIS0_E4HashNS2_18_Mod_range_hashingENS2_20_Default_ranged_hashENS2_20_Prime_rehash_policyENS2_17_Hashtable_traitsILb1ELb1ELb1EEEE9_M_insertIRKS0_NS2_10_AllocNodeISaINS2_10_Hash_nodeIS0_Lb1EEEEEEEESt4pairINS2_14_Node_iteratorIS0_Lb1ELb1EEEbEOT_RKT0_St17integral_constantIbLb1EE
FNF:27
FNH:27
DA:305,4
DA:306,4
DA:316,4
DA:421,2
DA:422,2
DA:429,32
DA:432,32
DA:439,1
DA:441,1
DA:443,0
DA:444,0
DA:447,1
DA:451,2
DA:453,2
DA:454,1
DA:456,1
DA:460,2
DA:461,2
DA:473,3
DA:474,3
DA:539,1
DA:640,24
DA:641,24
DA:656,28
DA:657,28
DA:799,10
DA:800,10
DA:803,29
DA:804,29
DA:819,24
DA:822,24
DA:823,24
DA:824,4
DA:825,20
DA:830,3
DA:833,3
DA:834,3
DA:835,0
DA:836,3
DA:841,4
DA:843,4
DA:847,0
DA:848,0
DA:855,4
DA:856,4
DA:858,4
DA:861,3
DA:863,4
DA:865,4
DA:936,4
DA:937,4
DA:945,4
DA:947,8
DA:948,8
DA:949,8
DA:954,4
DA:959,8
DA:960,8
DA:1658,1
DA:1671,1
DA:1672,1
DA:1673,1
DA:1727,24
DA:1732,24
DA:1734,0
DA:1735,0
DA:1736,0
DA:1737,0
DA:1740,24
DA:1741,24
DA:1742,24
DA:2065,24
DA:2071,24
DA:2072,24
DA:2073,12
DA:2075,12
DA:2076,0
DA:2078,12
DA:2079,4
DA:2081,8
DA:2082,8
DA:2083,0
DA:2086,8
DA:2095,3
DA:2101,3
DA:2102,3
DA:2103,3
DA:2105,0
DA:2106,0
DA:2108,0
DA:2109,0
DA:2111,0
DA:2112,0
DA:2113,0
DA:2116,0
DA:2228,4
DA:2234,4
DA:2236,4
DA:2239,4
DA:2241,1
DA:2242,1
DA:2245,4
DA:2246,4
DA:2249,4
DA:2250,4
DA:2251,8
DA:2252,4
DA:2317,4
DA:2323,4
DA:2324,4
DA:2325,1
DA:2326,0
DA:2327,0
DA:2329,4
DA:2330,4
DA:2332,4
DA:2333,3
DA:2334,0
DA:2336,4
DA:2343,4
DA:2344,4
DA:2345,4
DA:2346,4
DA:2584,1
DA:2588,1
DA:2589,1
DA:2590,1
DA:2591,1
DA:2592,1
DA:2593,1
DA:2623,1
DA:2627,1
DA:2628,1
DA:2629,1
DA:2630,1
DA:2631,1
DA:2633,0
DA:2635,0
DA:2636,0
DA:2638,0
DA:2639,0
DA:2640,0
DA:2641,0
DA:2642,0
DA:2643,0
DA:2647,0
DA:2648,0
DA:2651,0
DA:2654,1
DA:2655,1
DA:2656,1
DA:2657,1
LF:152
LH:118
end_of_record
TN:
SF:/usr/include/c++/14/bits/hashtable_policy.h
FNL:0,124,125
FNA:0,4,_ZNKSt8__detail19_ConvertToValueTypeINS_9_IdentityE5PointEclIRKS2_EEOT_S8_
FNL:1,1245,1245
FNA:1,1,_ZNSt8__detail21_Hashtable_ebo_helperILi0ESaINS_10_Hash_nodeI5PointLb1EEEELb1EEC2Ev
FNA:1,1,_ZNSt8__detail21_Hashtable_ebo_helperILi0ESt8equal_toI5PointELb1EEC2Ev
FNA:1,1,_ZNSt8__detail21_Hashtable_ebo_helperILi1E4HashLb1EEC2Ev
FNL:2,1252,1252
FNA:2,4,_ZNKSt8__detail21_Hashtable_ebo_helperILi0ESt8equal_toI5PointELb1EE7_M_cgetEv
FNA:2,28,_ZNKSt8__detail21_Hashtable_ebo_helperILi1E4HashLb1EE7_M_cgetEv
FNL:3,1253,1253
FNA:3,14,_ZNSt8__detail21_Hashtable_ebo_helperILi0ESaINS_10_Hash_nodeI5PointLb1EEEELb1EE6_M_getEv
FNL:4,1328,1328
FNA:4,1,_ZNSt8__detail15_Hash_code_baseI5PointS1_NS_9_IdentityE4HashNS_18_Mod_range_hashingENS_20_Default_ranged_hashELb1EEC2Ev
FNL:5,1333,1338
FNA:5,24,_ZNKSt8__detail15_Hash_code_baseI5PointS1_NS_9_IdentityE4HashNS_18_Mod_range_hashingENS_20_Default_ranged_hashELb1EE12_M_hash_codeERKS1_
FNL:6,1342,1347
FNA:6,4,_ZNKSt8__detail15_Hash_code_baseI5PointS1_NS_9_IdentityE4HashNS_18_Mod_range_hashingENS_20_Default_ranged_hashELb1EE15_M_hash_code_trIS1_EEmRKT_
FNL:7,1358,1359
FNA:7,29,_ZNKSt8__detail15_Hash_code_baseI5PointS1_NS_9_IdentityE4HashNS_18_Mod_range_hashingENS_20_Default_ranged_hashELb1EE15_M_bucket_indexEmm
FNL:8,1373,1377
FNA:8,10,_ZNKSt8__detail15_Hash_code_baseI5PointS1_NS_9_IdentityE4HashNS_18_Mod_range_hashingENS_20_Default_ranged_hashELb1EE15_M_bucket_indexERKNS_16_Hash_node_valueIS1_Lb1EEEm
FNL:9,1389,1390
FNA:9,4,_ZNKSt8__detail15_Hash_code_baseI5PointS1_NS_9_IdentityE4HashNS_18_Mod_range_hashingENS_20_Default_ranged_hashELb1EE13_M_store_codeERNS_21_Hash_node_code_cacheILb1EEEm
FNL:10,1402,1402
FNA:10,28,_ZNKSt8__detail15_Hash_code_baseI5PointS1_NS_9_IdentityE4HashNS_18_Mod_range_hashingENS_20_Default_ranged_hashELb1EE7_M_hashEv
FNL:11,171,173
FNA:11,4,_ZNSt8__detail12_NodeBuilderINS_9_IdentityEE8_S_buildIRK5PointS6_NS_10_AllocNodeISaINS_10_Hash_nodeIS4_Lb1EEEEEEEENT1_10__node_ptrEOT_OT0_RKSC_
FNL:12,1719,1720
FNA:12,12,_ZNSt8__detail15_Hashtable_baseI5PointS1_NS_9_IdentityESt8equal_toIS1_E4HashNS_18_Mod_range_hashingENS_20_Default_ranged_hashENS_17_Hashtable_traitsILb1ELb1ELb1EEEE9_S_equalsEmRKNS_21_Hash_node_code_cacheILb1EEE
FNL:13,1728,1728
FNA:13,1,_ZNSt8__detail15_Hashtable_baseI5PointS1_NS_9_IdentityESt8equal_toIS1_E4HashNS_18_Mod_range_hashingENS_20_Default_ranged_hashENS_17_Hashtable_traitsILb1ELb1ELb1EEEEC2Ev
FNL:14,1735,1743
FNA:14,4,_ZNKSt8__detail15_Hashtable_baseI5PointS1_NS_9_IdentityESt8equal_toIS1_E4HashNS_18_Mod_range_hashingENS_20_Default_ranged_hashENS_17_Hashtable_traitsILb1ELb1ELb1EEEE13_M_key_equalsERKS1_RKNS_16_Hash_node_valueIS1_Lb1EEE
FNL:15,1747,1756
FNA:15,0,_ZNKSt8__detail15_Hashtable_baseI5PointS1_NS_9_IdentityESt8equal_toIS1_E4HashNS_18_Mod_range_hashingENS_20_Default_ranged_hashENS_17_Hashtable_traitsILb1ELb1ELb1EEEE16_M_key_equals_trIS1_EEbRKT_RKNS_16_Hash_node_valueIS1_Lb1EEE
FNL:16,1759,1761
FNA:16,12,_ZNKSt8__detail15_Hashtable_baseI5PointS1_NS_9_IdentityESt8equal_toIS1_E4HashNS_18_Mod_range_hashingENS_20_Default_ranged_hashENS_17_Hashtable_traitsILb1ELb1ELb1EEEE9_M_equalsERKS1_mRKNS_16_Hash_node_valueIS1_Lb1EEE
FNL:17,1765,1768
FNA:17,0,_ZNKSt8__detail15_Hashtable_baseI5PointS1_NS_9_IdentityESt8equal_toIS1_E4HashNS_18_Mod_range_hashingENS_20_Default_ranged_hashENS_17_Hashtable_traitsILb1ELb1ELb1EEEE12_M_equals_trIS1_EEbRKT_mRKNS_16_Hash_node_valueIS1_Lb1EEE
FNL:18,1787,1787
FNA:18,4,_ZNKSt8__detail15_Hashtable_baseI5PointS1_NS_9_IdentityESt8equal_toIS1_E4HashNS_18_Mod_range_hashingENS_20_Default_ranged_hashENS_17_Hashtable_traitsILb1ELb1ELb1EEEE5_M_eqEv
FNL:19,1970,1970
FNA:19,1,_ZNSt8__detail16_Hashtable_allocISaINS_10_Hash_nodeI5PointLb1EEEEEC2Ev
FNL:20,1980,1981
FNA:20,14,_ZNSt8__detail16_Hashtable_allocISaINS_10_Hash_nodeI5PointLb1EEEEE17_M_node_allocatorEv
FNL:21,2017,2036
FNA:21,4,_ZNSt8__detail16_Hashtable_allocISaINS_10_Hash_nodeI5PointLb1EEEEE16_M_allocate_nodeIJRKS2_EEEPS3_DpOT_
FNL:22,2040,2044
FNA:22,4,_ZNSt8__detail16_Hashtable_allocISaINS_10_Hash_nodeI5PointLb1EEEEE18_M_deallocate_nodeEPS3_
FNL:23,2048,2054
FNA:23,4,_ZNSt8__detail16_Hashtable_allocISaINS_10_Hash_nodeI5PointLb1EEEEE22_M_deallocate_node_ptrEPS3_
FNL:24,2058,2066
FNA:24,1,_ZNSt8__detail16_Hashtable_allocISaINS_10_Hash_nodeI5PointLb1EEEEE19_M_deallocate_nodesEPS3_
FNL:25,2070,2079
FNA:25,1,_ZNSt8__detail16_Hashtable_allocISaINS_10_Hash_nodeI5PointLb1EEEEE19_M_allocate_bucketsEm
FNL:26,2083,2091
FNA:26,1,_ZNSt8__detail16_Hashtable_allocISaINS_10_Hash_nodeI5PointLb1EEEEE21_M_deallocate_bucketsEPPNS_15_Hash_node_baseEm
FNL:27,248,249
FNA:27,4,_ZNSt8__detail10_AllocNodeISaINS_10_Hash_nodeI5PointLb1EEEEEC2ERNS_16_Hashtable_allocIS4_EE
FNL:28,253,254
FNA:28,4,_ZNKSt8__detail10_AllocNodeISaINS_10_Hash_nodeI5PointLb1EEEEEclIJRKS2_EEEPS3_DpOT_
FNL:29,303,304
FNA:29,32,_ZNSt8__detail22_Hashtable_hash_traitsI4HashE22__small_size_thresholdEv
FNL:30,319,319
FNA:30,5,_ZNSt8__detail15_Hash_node_baseC2Ev
FNL:31,386,387
FNA:31,14,_ZNKSt8__detail10_Hash_nodeI5PointLb1EE7_M_nextEv
FNL:32,399,400
FNA:32,52,_ZNSt8__detail19_Node_iterator_baseI5PointLb1EEC2EPNS_10_Hash_nodeIS1_Lb1EEE
FNL:33,407,409
FNA:33,24,_ZNSt8__detaileqERKNS_19_Node_iterator_baseI5PointLb1EEES4_
FNL:34,442,443
FNA:34,52,_ZNSt8__detail14_Node_iteratorI5PointLb1ELb1EEC2EPNS_10_Hash_nodeIS1_Lb1EEE
FNL:35,532,534
FNA:35,39,_ZNKSt8__detail18_Mod_range_hashingclEmm
FNL:36,550,551
FNA:36,1,_ZNSt8__detail20_Prime_rehash_policyC2Ef
FNL:37,577,578
FNA:37,4,_ZNKSt8__detail20_Prime_rehash_policy8_M_stateEv
FNL:38,585,586
FNA:38,0,_ZNSt8__detail20_Prime_rehash_policy8_M_resetEm
FNL:39,730,733
FNA:39,4,_ZNSt8__detail17_RehashStateGuardINS_20_Prime_rehash_policyEEC2ERS1_
FNL:40,736,740
FNA:40,4,_ZNSt8__detail17_RehashStateGuardINS_20_Prime_rehash_policyEED2Ev
FNL:41,89,90
FNA:41,8,_ZNKSt8__detail9_IdentityclIRK5PointEEOT_S6_
FNL:42,928,929
FNA:42,4,_ZNSt8__detail12_Insert_baseI5PointS1_SaIS1_ENS_9_IdentityESt8equal_toIS1_E4HashNS_18_Mod_range_hashingENS_20_Default_ranged_hashENS_20_Prime_rehash_policyENS_17_Hashtable_traitsILb1ELb1ELb1EEEE20_M_conjure_hashtableEv
FNL:43,954,959
FNA:43,4,_ZNSt8__detail12_Insert_baseI5PointS1_SaIS1_ENS_9_IdentityESt8equal_toIS1_E4HashNS_18_Mod_range_hashingENS_20_Default_ranged_hashENS_20_Prime_rehash_policyENS_17_Hashtable_traitsILb1ELb1ELb1EEEE6insertERKS1_
FNF:44
FNH:41
DA:89,8
DA:90,8
DA:124,4
DA:125,4
DA:171,4
DA:173,4
DA:248,4
DA:249,4
DA:253,4
DA:254,4
DA:303,32
DA:304,32
DA:319,5
DA:339,8
DA:344,4
DA:354,4
DA:386,14
DA:387,14
DA:399,52
DA:400,52
DA:407,24
DA:409,24
DA:442,52
DA:443,52
DA:532,39
DA:534,39
DA:550,1
DA:551,1
DA:577,4
DA:578,4
DA:585,0
DA:586,0
DA:730,4
DA:731,4
DA:732,4
DA:733,4
DA:736,4
DA:738,4
DA:739,0
DA:740,4
DA:928,4
DA:929,4
DA:954,4
DA:956,4
DA:957,4
DA:958,8
DA:1245,3
DA:1252,32
DA:1253,14
DA:1328,1
DA:1333,24
DA:1337,24
DA:1342,4
DA:1346,4
DA:1358,29
DA:1359,29
DA:1373,10
DA:1377,10
DA:1389,4
DA:1390,4
DA:1402,28
DA:1719,12
DA:1720,12
DA:1728,1
DA:1735,4
DA:1742,8
DA:1747,0
DA:1755,0
DA:1759,12
DA:1761,12
DA:1765,0
DA:1768,0
DA:1787,4
DA:1970,1
DA:1980,14
DA:1981,14
DA:2017,4
DA:2020,4
DA:2021,4
DA:2022,4
DA:2025,4
DA:2026,8
DA:2028,4
DA:2040,4
DA:2042,8
DA:2043,4
DA:2044,4
DA:2048,4
DA:2051,4
DA:2052,4
DA:2053,4
DA:2054,4
DA:2058,1
DA:2060,5
DA:2062,4
DA:2063,4
DA:2064,4
DA:2066,1
DA:2070,1
DA:2073,1
DA:2075,1
DA:2076,1
DA:2077,1
DA:2078,2
DA:2083,1
DA:2088,1
DA:2089,1
DA:2091,1
LF:108
LH:101
end_of_record
TN:
SF:/usr/include/c++/14/bits/move.h
FNL:0,175,176
FNA:0,4,_ZSt9addressofINSt8__detail10_Hash_nodeI5PointLb1EEEEPT_RS4_
FNA:0,1,_ZSt9addressofIPNSt8__detail15_Hash_node_baseEEPT_RS3_
FNL:1,51,52
FNA:1,1,_ZSt11__addressofI5PointEPT_RS1_
FNA:1,4,_ZSt11__addressofINSt8__detail10_Hash_nodeI5PointLb1EEEEPT_RS4_
FNA:1,4,_ZSt11__addressofINSt8__detail20_Prime_rehash_policyEEPT_RS2_
FNA:1,1,_ZSt11__addressofIPNSt8__detail15_Hash_node_baseEEPT_RS3_
FNL:2,71,72
FNA:2,0,_ZSt7forwardINSt8__detail14_Node_iteratorI5PointLb1ELb1EEEEOT_RNSt16remove_referenceIS4_E4typeE
FNA:2,52,_ZSt7forwardIRK5PointEOT_RNSt16remove_referenceIS3_E4typeE
FNA:2,4,_ZSt7forwardIRNSt8__detail14_Node_iteratorI5PointLb1ELb1EEEEOT_RNSt16remove_referenceIS5_E4typeE
FNA:2,4,_ZSt7forwardIbEOT_RNSt16remove_referenceIS0_E4typeE
FNF:3
FNH:3
DA:51,10
DA:52,10
DA:71,60
DA:72,60
DA:175,5
DA:176,5
LF:6
LH:6
end_of_record
TN:
SF:/usr/include/c++/14/bits/new_allocator.h
FNL:0,126,152
FNA:0,2,_ZNSt15__new_allocatorI5PointE8allocateEmPKv
FNA:0,4,_ZNSt15__new_allocatorINSt8__detail10_Hash_nodeI5PointLb1EEEE8allocateEmPKv
FNA:0,1,_ZNSt15__new_allocatorIPNSt8__detail15_Hash_node_baseEE8allocateEmPKv
FNL:1,156,173
FNA:1,2,_ZNSt15__new_allocatorI5PointE10deallocateEPS0_m
FNA:1,4,_ZNSt15__new_allocatorINSt8__detail10_Hash_nodeI5PointLb1EEEE10deallocateEPS3_m
FNA:1,1,_ZNSt15__new_allocatorIPNSt8__detail15_Hash_node_baseEE10deallocateEPS2_m
FNF:2
FNH:2
DA:88,5
DA:92,4
DA:126,7
DA:134,7
DA:138,0
DA:139,0
DA:140,0
DA:151,7
DA:156,7
DA:172,7
DA:233,7
LF:11
LH:8
end_of_record
TN:
SF:/usr/include/c++/14/bits/ptr_traits.h
FNL:0,134,135
FNA:0,4,_ZNSt19__ptr_traits_ptr_toIPNSt8__detail10_Hash_nodeI5PointLb1EEES3_Lb0EE10pointer_toERS3_
FNA:0,1,_ZNSt19__ptr_traits_ptr_toIPPNSt8__detail15_Hash_node_baseES2_Lb0EE10pointer_toERS2_
FNL:1,205,209
FNA:1,4,_ZSt12__to_addressINSt8__detail10_Hash_nodeI5PointLb1EEEEPT_S5_
FNA:1,1,_ZSt12__to_addressIPNSt8__detail15_Hash_node_baseEEPT_S4_
FNF:2
FNH:2
DA:134,5
DA:135,5
DA:205,5
DA:208,5
LF:4
LH:4
end_of_record
TN:
SF:/usr/include/c++/14/bits/stl_algobase.h
FNL:0,1040,1040
FNA:0,1,_ZSt17__size_to_integerm
FNL:1,1140,1153
FNA:1,1,_ZSt10__fill_n_aIP5PointmS0_ET_S2_T0_RKT1_St26random_access_iterator_tag
FNL:2,1175,1182
FNA:2,1,_ZSt6fill_nIP5PointmS0_ET_S2_T0_RKT1_
FNL:3,233,241
FNA:3,2,_ZSt3minImERKT_S2_S2_
FNL:4,316,318
FNA:4,1,_ZSt12__niter_baseIP5PointET_S2_
FNA:4,2,_ZSt12__niter_baseIPK5PointET_S3_
FNL:5,353,354
FNA:5,1,_ZSt12__niter_wrapIP5PointET_RKS2_S2_
FNL:6,398,408
FNA:6,0,_ZNSt11__copy_moveILb0ELb0ESt26random_access_iterator_tagE8__copy_mIPK5PointPS3_EET0_T_S8_S7_
FNL:7,412,413
FNA:7,0,_ZNSt11__copy_moveILb0ELb0ESt26random_access_iterator_tagE12__assign_oneI5PointKS3_EEvPT_PT0_
FNL:8,448,457
FNA:8,1,_ZNSt11__copy_moveILb0ELb1ESt26random_access_iterator_tagE8__copy_mIK5PointS3_EEPT0_PT_S8_S6_
FNL:9,512,522
FNA:9,1,_ZSt14__copy_move_a2ILb0EPK5PointPS0_ET1_T0_S5_S4_
FNL:10,547,548
FNA:10,1,_ZSt14__copy_move_a1ILb0EPK5PointPS0_ET1_T0_S5_S4_
FNL:11,553,559
FNA:11,1,_ZSt13__copy_move_aILb0EPK5PointPS0_ET1_T0_S5_S4_
FNL:12,642,652
FNA:12,1,_ZSt4copyIPK5PointPS0_ET0_T_S5_S4_
FNL:13,936,941
FNA:13,1,_ZSt9__fill_a1IP5PointS0_EN9__gnu_cxx11__enable_ifIXntsrSt11__is_scalarIT0_E7__valueEvE6__typeET_S9_RKS5_
FNL:14,997,998
FNA:14,1,_ZSt8__fill_aIP5PointS0_EvT_S2_RKT0_
FNF:15
FNH:13
DA:233,2
DA:238,2
DA:239,0
DA:240,2
DA:316,3
DA:318,3
DA:353,1
DA:354,1
DA:398,0
DA:401,0
DA:403,0
DA:404,0
DA:405,0
DA:407,0
DA:412,0
DA:413,0
DA:448,1
DA:450,1
DA:451,1
DA:452,1
DA:453,0
DA:455,0
DA:456,1
DA:512,1
DA:516,1
DA:518,0
DA:521,1
DA:547,1
DA:548,1
DA:553,1
DA:555,1
DA:558,1
DA:642,1
DA:651,1
DA:936,1
DA:939,4
DA:940,3
DA:941,1
DA:997,1
DA:998,1
DA:1040,1
DA:1140,1
DA:1146,1
DA:1147,0
DA:1151,1
DA:1152,1
DA:1175,1
DA:1180,1
DA:1181,2
LF:49
LH:36
end_of_record
TN:
SF:/usr/include/c++/14/bits/stl_construct.h
FNL:0,109,120
FNA:0,1,_ZSt10_ConstructI5PointJEEvPT_DpOT0_
FNA:0,0,_ZSt10_ConstructI5PointJRKS0_EEvPT_DpOT0_
FNL:1,146,153
FNA:1,0,_ZSt8_DestroyI5PointEvPT_
FNL:2,160,164
FNA:2,0,_ZNSt12_Destroy_auxILb0EE9__destroyIP5PointEEvT_S4_
FNL:3,172,172
FNA:3,2,_ZNSt12_Destroy_auxILb1EE9__destroyIP5PointEEvT_S4_
FNL:4,182,197
FNA:4,2,_ZSt8_DestroyIP5PointEvT_S2_
FNL:5,80,89
FNA:5,4,_ZSt10destroy_atI5PointEvPT_
FNL:6,94,97
FNA:6,0,_ZSt12construct_atI5PointJEEDTgsnwcvPvLi0E_T_pispcl7declvalIT0_EEEEPS2_DpOS3_
FNA:6,4,_ZSt12construct_atI5PointJRKS0_EEDTgsnwcvPvLi0E_T_pispcl7declvalIT0_EEEEPS4_DpOS5_
FNF:7
FNH:5
DA:80,4
DA:88,4
DA:89,4
DA:94,4
DA:97,4
DA:109,1
DA:112,1
DA:115,0
DA:116,0
DA:119,1
DA:146,0
DA:149,0
DA:153,0
DA:160,0
DA:162,0
DA:163,0
DA:164,0
DA:172,2
DA:182,2
DA:192,2
DA:193,0
DA:196,2
LF:22
LH:12
end_of_record
TN:
SF:/usr/include/c++/14/bits/stl_function.h
FNL:0,374,375
FNA:0,4,_ZNKSt8equal_toI5PointEclERKS0_S3_
FNF:1
FNH:1
DA:374,4
DA:375,4
LF:2
LH:2
end_of_record
TN:
SF:/usr/include/c++/14/bits/stl_iterator.h
FNL:0,1067,1068
FNA:0,10,_ZN9__gnu_cxx17__normal_iteratorIP5PointSt6vectorIS1_SaIS1_EEEC2ERKS2_
FNL:1,1090,1091
FNA:1,28,_ZNK9__gnu_cxx17__normal_iteratorIP5PointSt6vectorIS1_SaIS1_EEEdeEv
FNL:2,1100,1104
FNA:2,28,_ZN9__gnu_cxx17__normal_iteratorIP5PointSt6vectorIS1_SaIS1_EEEppEv
FNL:3,1153,1154
FNA:3,66,_ZNK9__gnu_cxx17__normal_iteratorIP5PointSt6vectorIS1_SaIS1_EEE4baseEv
FNL:4,1188,1194
FNA:4,33,_ZN9__gnu_cxxeqIP5PointSt6vectorIS1_SaIS1_EEEEbRKNS_17__normal_iteratorIT_T0_EESB_QrqXeqcldtfL0p_4baseEcldtfL0p0_4baseERSt14convertible_toIbEE
FNF:5
FNH:5
DA:1067,10
DA:1068,10
DA:1090,28
DA:1091,28
DA:1100,28
DA:1102,28
DA:1103,28
DA:1153,66
DA:1154,66
DA:1188,33
DA:1194,33
LF:11
LH:11
end_of_record
TN:
SF:/usr/include/c++/14/bits/stl_iterator_base_funcs.h
FNF:0
FNH:0
DA:106,1
DA:151,2
DA:152,2
LF:3
LH:3
end_of_record
TN:
SF:/usr/include/c++/14/bits/stl_iterator_base_types.h
FNF:0
FNH:0
DA:240,2
LF:1
LH:1
end_of_record
TN:
SF:/usr/include/c++/14/bits/stl_pair.h
FNL:0,442,445
FNA:0,4,_ZNSt4pairINSt8__detail14_Node_iteratorI5PointLb1ELb1EEEbEC2IRS3_bEEOT_OT0_
FNA:0,0,_ZNSt4pairINSt8__detail14_Node_iteratorI5PointLb1ELb1EEEbEC2IS3_bEEOT_OT0_
FNF:1
FNH:1
DA:442,4
DA:444,4
DA:445,4
LF:3
LH:3
end_of_record
TN:
SF:/usr/include/c++/14/bits/stl_uninitialized.h
FNL:0,113,128
FNA:0,0,_ZSt16__do_uninit_copyIPK5PointPS0_ET0_T_S5_S4_
FNL:1,145,147
FNA:1,1,_ZNSt20__uninitialized_copyILb1EE13__uninit_copyIPK5PointPS2_EET0_T_S7_S6_
FNL:2,163,186
FNA:2,1,_ZSt18uninitialized_copyIPK5PointPS0_ET0_T_S5_S4_
FNL:3,366,374
FNA:3,1,_ZSt22__uninitialized_copy_aIPK5PointPS0_S0_ET0_T_S5_S4_RSaIT1_E
FNL:4,637,651
FNA:4,0,_ZNSt27__uninitialized_default_n_1ILb0EE18__uninit_default_nIP5PointmEET_S4_T0_
FNL:5,660,671
FNA:5,1,_ZNSt27__uninitialized_default_n_1ILb1EE18__uninit_default_nIP5PointmEET_S4_T0_
FNL:6,696,713
FNA:6,1,_ZSt25__uninitialized_default_nIP5PointmET_S2_T0_
FNL:7,777,779
FNA:7,1,_ZSt27__uninitialized_default_n_aIP5PointmS0_ET_S2_T0_RSaIT1_E
FNF:8
FNH:6
DA:113,0
DA:116,0
DA:119,0
DA:120,0
DA:121,0
DA:145,1
DA:147,1
DA:163,1
DA:174,1
DA:181,1
DA:185,1
DA:366,1
DA:370,1
DA:371,0
DA:373,1
DA:637,0
DA:639,0
DA:642,0
DA:643,0
DA:644,0
DA:660,1
DA:662,1
DA:665,1
DA:666,1
DA:667,1
DA:668,1
DA:670,1
DA:696,1
DA:699,1
DA:701,0
DA:707,1
DA:712,1
DA:777,1
DA:779,1
LF:34
LH:22
end_of_record
TN:
SF:/usr/include/c++/14/bits/stl_vector.h
FNL:0,1128,1132
FNA:0,12,_ZNSt6vectorI5PointSaIS0_EEixEm
FNL:1,145,147
FNA:1,2,_ZNSt12_Vector_baseI5PointSaIS0_EE12_Vector_implC2ERKS1_
FNL:2,1689,1700
FNA:2,1,_ZNSt6vectorI5PointSaIS0_EE19_M_range_initializeIPKS0_EEvT_S6_St20forward_iterator_tag
FNL:3,1717,1722
FNA:3,1,_ZNSt6vectorI5PointSaIS0_EE21_M_default_initializeEm
FNL:4,1917,1923
FNA:4,2,_ZNSt6vectorI5PointSaIS0_EE17_S_check_init_lenEmRKS1_
FNL:5,1926,1935
FNA:5,2,_ZNSt6vectorI5PointSaIS0_EE11_S_max_sizeERKS1_
FNL:6,300,301
FNA:6,5,_ZNSt12_Vector_baseI5PointSaIS0_EE19_M_get_Tp_allocatorEv
FNL:7,320,321
FNA:7,1,_ZNSt12_Vector_baseI5PointSaIS0_EEC2ERKS1_
FNL:8,332,334
FNA:8,1,_ZNSt12_Vector_baseI5PointSaIS0_EEC2EmRKS1_
FNL:9,366,370
FNA:9,2,_ZNSt12_Vector_baseI5PointSaIS0_EED2Ev
FNL:10,377,381
FNA:10,2,_ZNSt12_Vector_baseI5PointSaIS0_EE11_M_allocateEm
FNL:11,385,390
FNA:11,2,_ZNSt12_Vector_baseI5PointSaIS0_EE13_M_deallocateEPS0_m
FNL:12,396,401
FNA:12,1,_ZNSt12_Vector_baseI5PointSaIS0_EE17_M_create_storageEm
FNL:13,556,558
FNA:13,1,_ZNSt6vectorI5PointSaIS0_EEC2EmRKS1_
FNL:14,678,684
FNA:14,1,_ZNSt6vectorI5PointSaIS0_EEC2ESt16initializer_listIS0_ERKS1_
FNL:15,733,738
FNA:15,2,_ZNSt6vectorI5PointSaIS0_EED2Ev
FNL:16,873,874
FNA:16,5,_ZNSt6vectorI5PointSaIS0_EE5beginEv
FNL:17,893,894
FNA:17,5,_ZNSt6vectorI5PointSaIS0_EE3endEv
FNL:18,98,100
FNA:18,2,_ZNSt12_Vector_baseI5PointSaIS0_EE17_Vector_impl_dataC2Ev
FNF:19
FNH:19
DA:98,2
DA:99,2
DA:100,2
DA:145,2
DA:146,2
DA:147,2
DA:300,5
DA:301,5
DA:320,1
DA:321,1
DA:332,1
DA:333,1
DA:334,1
DA:366,2
DA:368,2
DA:369,2
DA:370,2
DA:377,2
DA:380,4
DA:385,2
DA:388,2
DA:389,2
DA:390,2
DA:396,1
DA:398,1
DA:399,1
DA:400,1
DA:401,1
DA:556,1
DA:557,1
DA:558,1
DA:678,1
DA:680,1
DA:682,1
DA:683,1
DA:684,1
DA:733,2
DA:735,2
DA:736,2
DA:738,2
DA:873,5
DA:874,5
DA:893,5
DA:894,5
DA:1128,12
DA:1131,12
DA:1689,1
DA:1692,1
DA:1694,1
DA:1695,1
DA:1696,1
DA:1697,1
DA:1699,1
DA:1700,1
DA:1717,1
DA:1719,1
DA:1720,1
DA:1721,1
DA:1722,1
DA:1917,2
DA:1919,2
DA:1920,0
DA:1922,2
DA:1926,2
DA:1931,2
DA:1933,2
DA:1934,2
LF:67
LH:66
end_of_record
TN:
SF:/usr/include/c++/14/bits/unordered_set.h
FNL:0,142,142
FNA:0,1,_ZNSt13unordered_setI5Point4HashSt8equal_toIS0_ESaIS0_EEC2Ev
FNL:1,341,342
FNA:1,24,_ZNSt13unordered_setI5Point4HashSt8equal_toIS0_ESaIS0_EE3endEv
FNL:2,428,429
FNA:2,4,_ZNSt13unordered_setI5Point4HashSt8equal_toIS0_ESaIS0_EE6insertERKS0_
FNL:3,657,658
FNA:3,24,_ZNSt13unordered_setI5Point4HashSt8equal_toIS0_ESaIS0_EE4findERKS0_
FNF:4
FNH:4
DA:142,1
DA:341,24
DA:342,24
DA:428,4
DA:429,4
DA:657,24
DA:658,24
LF:7
LH:7
end_of_record
TN:
SF:/usr/include/c++/14/ext/aligned_buffer.h
FNL:0,104,107
FNA:0,8,_ZN9__gnu_cxx16__aligned_bufferI5PointE7_M_addrEv
FNL:1,110,113
FNA:1,4,_ZNK9__gnu_cxx16__aligned_bufferI5PointE7_M_addrEv
FNL:2,116,117
FNA:2,8,_ZN9__gnu_cxx16__aligned_bufferI5PointE6_M_ptrEv
FNL:3,120,121
FNA:3,4,_ZNK9__gnu_cxx16__aligned_bufferI5PointE6_M_ptrEv
FNF:4
FNH:4
DA:104,8
DA:106,8
DA:110,4
DA:112,4
DA:116,8
DA:117,8
DA:120,4
DA:121,4
LF:8
LH:8
end_of_record
TN:
SF:/usr/include/c++/14/initializer_list
FNL:0,69,69
FNA:0,1,_ZNKSt16initializer_listI5PointE4sizeEv
FNL:1,73,73
FNA:1,2,_ZNKSt16initializer_listI5PointE5beginEv
FNL:2,77,77
FNA:2,1,_ZNKSt16initializer_listI5PointE3endEv
FNF:3
FNH:3
DA:69,1
DA:73,2
DA:77,1
LF:3
LH:3
end_of_record
TN:
SF:/usr/include/c++/14/new
FNL:0,179,180
FNA:0,9,_ZnwmPv
FNF:1
FNH:1
DA:179,9
DA:180,9
LF:2
LH:2
end_of_record
TN:
SF:/usr/include/c++/14/type_traits
FNL:0,3832,3839
FNA:0,3,_ZSt21is_constant_evaluatedv
FNF:1
FNH:1
DA:3832,3
DA:3835,3
LF:2
LH:2
end_of_record
TN:
SF:/usr/include/c++/14/x86_64-redhat-linux/bits/c++config.h
FNF:0
FNH:0
DA:2394,17
LF:1
LH:1
end_of_record
