TN:
SF:/home/monika/Documents/problems/18248번： 제야의 종/main.cpp
FNL:0,7,42
FNA:0,1,main
FNF:1
FNH:1
DA:7,1
DA:9,1
DA:10,1
DA:13,1
DA:15,1
DA:16,2
DA:18,3
DA:21,2
DA:22,2
DA:23,2
DA:27,2
DA:29,1
DA:31,0
DA:32,0
DA:33,0
DA:35,0
DA:36,0
DA:40,1
DA:41,1
DA:42,1
LF:20
LH:15
end_of_record
TN:
SF:/usr/include/c++/14/bits/alloc_traits.h
FNF:0
FNH:0
DA:515,1
DA:550,1
DA:993,1
DA:994,1
LF:4
LH:4
end_of_record
TN:
SF:/usr/include/c++/14/bits/allocator.h
FNF:0
FNH:0
DA:161,1
DA:166,2
DA:182,2
DA:189,1
DA:191,0
DA:192,0
DA:193,0
DA:196,1
DA:203,1
DA:205,0
DA:206,0
DA:208,1
LF:12
LH:7
end_of_record
TN:
SF:/usr/include/c++/14/bits/move.h
FNL:0,51,52
FNA:0,1,_ZSt11__addressofISt6bitsetILm128EEEPT_RS2_
FNF:1
FNH:1
DA:51,1
DA:52,1
LF:2
LH:2
end_of_record
TN:
SF:/usr/include/c++/14/bits/new_allocator.h
FNL:0,126,152
FNA:0,1,_ZNSt15__new_allocatorISt6bitsetILm128EEE8allocateEmPKv
FNL:1,156,173
FNA:1,1,_ZNSt15__new_allocatorISt6bitsetILm128EEE10deallocateEPS1_m
FNF:2
FNH:2
DA:88,1
DA:92,2
DA:126,1
DA:134,1
DA:138,0
DA:139,0
DA:140,0
DA:151,1
DA:156,1
DA:172,1
DA:233,1
LF:11
LH:8
end_of_record
TN:
SF:/usr/include/c++/14/bits/stl_algobase.h
FNL:0,233,241
FNA:0,1,_ZSt3minImERKT_S2_S2_
FNF:1
FNH:1
DA:233,1
DA:238,1
DA:239,0
DA:240,1
LF:4
LH:3
end_of_record
TN:
SF:/usr/include/c++/14/bits/stl_construct.h
FNL:0,109,120
FNA:0,1,_ZSt10_ConstructISt6bitsetILm128EEJEEvPT_DpOT0_
FNL:1,146,153
FNA:1,0,_ZSt8_DestroyISt6bitsetILm128EEEvPT_
FNL:2,160,164
FNA:2,0,_ZNSt12_Destroy_auxILb0EE9__destroyIPSt6bitsetILm128EEEEvT_S5_
FNL:3,172,172
FNA:3,1,_ZNSt12_Destroy_auxILb1EE9__destroyIPSt6bitsetILm128EEEEvT_S5_
FNL:4,182,197
FNA:4,1,_ZSt8_DestroyIPSt6bitsetILm128EEEvT_S3_
FNL:5,80,89
FNA:5,0,_ZSt10destroy_atISt6bitsetILm128EEEvPT_
FNL:6,94,97
FNA:6,0,_ZSt12construct_atISt6bitsetILm128EEJEEDTgsnwcvPvLi0E_T_pispcl7declvalIT0_EEEEPS3_DpOS4_
FNF:7
FNH:3
DA:80,0
DA:88,0
DA:89,0
DA:94,0
DA:97,0
DA:109,1
DA:112,1
DA:115,0
DA:116,0
DA:119,1
DA:146,0
DA:149,0
DA:153,0
DA:160,0
DA:162,0
DA:163,0
DA:164,0
DA:172,1
DA:182,1
DA:192,1
DA:193,0
DA:196,1
LF:22
LH:7
end_of_record
TN:
SF:/usr/include/c++/14/bits/stl_uninitialized.h
FNL:0,637,651
FNA:0,1,_ZNSt27__uninitialized_default_n_1ILb0EE18__uninit_default_nIPSt6bitsetILm128EEmEET_S5_T0_
FNL:1,696,713
FNA:1,1,_ZSt25__uninitialized_default_nIPSt6bitsetILm128EEmET_S3_T0_
FNL:2,777,779
FNA:2,1,_ZSt27__uninitialized_default_n_aIPSt6bitsetILm128EEmS1_ET_S3_T0_RSaIT1_E
FNF:3
FNH:3
DA:637,1
DA:639,1
DA:642,2
DA:643,1
DA:644,1
DA:696,1
DA:699,1
DA:701,0
DA:707,1
DA:712,1
DA:777,1
DA:779,1
LF:12
LH:11
end_of_record
TN:
SF:/usr/include/c++/14/bits/stl_vector.h
FNL:0,1128,1132
FNA:0,2,_ZNSt6vectorISt6bitsetILm128EESaIS1_EEixEm
FNL:1,145,147
FNA:1,1,_ZNSt12_Vector_baseISt6bitsetILm128EESaIS1_EE12_Vector_implC2ERKS2_
FNL:2,1717,1722
FNA:2,1,_ZNSt6vectorISt6bitsetILm128EESaIS1_EE21_M_default_initializeEm
FNL:3,1917,1923
FNA:3,1,_ZNSt6vectorISt6bitsetILm128EESaIS1_EE17_S_check_init_lenEmRKS2_
FNL:4,1926,1935
FNA:4,1,_ZNSt6vectorISt6bitsetILm128EESaIS1_EE11_S_max_sizeERKS2_
FNL:5,300,301
FNA:5,2,_ZNSt12_Vector_baseISt6bitsetILm128EESaIS1_EE19_M_get_Tp_allocatorEv
FNL:6,332,334
FNA:6,1,_ZNSt12_Vector_baseISt6bitsetILm128EESaIS1_EEC2EmRKS2_
FNL:7,366,370
FNA:7,1,_ZNSt12_Vector_baseISt6bitsetILm128EESaIS1_EED2Ev
FNL:8,377,381
FNA:8,1,_ZNSt12_Vector_baseISt6bitsetILm128EESaIS1_EE11_M_allocateEm
FNL:9,385,390
FNA:9,1,_ZNSt12_Vector_baseISt6bitsetILm128EESaIS1_EE13_M_deallocateEPS1_m
FNL:10,396,401
FNA:10,1,_ZNSt12_Vector_baseISt6bitsetILm128EESaIS1_EE17_M_create_storageEm
FNL:11,556,558
FNA:11,1,_ZNSt6vectorISt6bitsetILm128EESaIS1_EEC2EmRKS2_
FNL:12,733,738
FNA:12,1,_ZNSt6vectorISt6bitsetILm128EESaIS1_EED2Ev
FNL:13,98,100
FNA:13,1,_ZNSt12_Vector_baseISt6bitsetILm128EESaIS1_EE17_Vector_impl_dataC2Ev
FNF:14
FNH:14
DA:98,1
DA:99,1
DA:100,1
DA:145,1
DA:146,1
DA:147,1
DA:300,2
DA:301,2
DA:332,1
DA:333,1
DA:334,1
DA:366,1
DA:368,1
DA:369,1
DA:370,1
DA:377,1
DA:380,2
DA:385,1
DA:388,1
DA:389,1
DA:390,1
DA:396,1
DA:398,1
DA:399,1
DA:400,1
DA:401,1
DA:556,1
DA:557,1
DA:558,1
DA:733,1
DA:735,1
DA:736,1
DA:738,1
DA:1128,2
DA:1131,2
DA:1717,1
DA:1719,1
DA:1720,1
DA:1721,1
DA:1722,1
DA:1917,1
DA:1919,1
DA:1920,0
DA:1922,1
DA:1926,1
DA:1931,1
DA:1933,1
DA:1934,1
LF:48
LH:47
end_of_record
TN:
SF:/usr/include/c++/14/bitset
FNL:0,1048,1052
FNA:0,0,_ZNSt6bitsetILm128EEaNERKS0_
FNL:1,106,107
FNA:1,2,_ZNSt12_Base_bitsetILm2EE12_S_whichwordEm
FNL:2,1120,1127
FNA:2,2,_ZNSt6bitsetILm128EE14_Unchecked_setEmi
FNL:3,114,115
FNA:3,2,_ZNSt12_Base_bitsetILm2EE11_S_whichbitEm
FNL:4,1172,1176
FNA:4,2,_ZNSt6bitsetILm128EE3setEmb
FNL:5,118,119
FNA:5,2,_ZNSt12_Base_bitsetILm2EE10_S_maskbitEm
FNL:6,1209,1214
FNA:6,0,_ZNSt6bitsetILm128EE4flipEv
FNL:7,122,123
FNA:7,2,_ZNSt12_Base_bitsetILm2EE10_M_getwordEm
FNL:8,1232,1233
FNA:8,0,_ZNKSt6bitsetILm128EEcoEv
FNL:9,136,137
FNA:9,0,_ZNSt12_Base_bitsetILm2EE9_M_hiwordEv
FNL:10,1420,1421
FNA:10,0,_ZNKSt6bitsetILm128EE3anyEv
FNL:11,144,148
FNA:11,0,_ZNSt12_Base_bitsetILm2EE9_M_do_andERKS0_
FNL:12,1557,1562
FNA:12,0,_ZStanILm128EESt6bitsetIXT_EERKS1_S3_
FNL:13,171,175
FNA:13,0,_ZNSt12_Base_bitsetILm2EE10_M_do_flipEv
FNL:14,227,233
FNA:14,0,_ZNKSt12_Base_bitsetILm2EE9_M_is_anyEv
FNL:15,688,688
FNA:15,0,_ZNSt9_SanitizeILm0EE14_S_do_sanitizeEm
FNL:16,827,833
FNA:16,2,_ZNKSt6bitsetILm128EE8_M_checkEmPKc
FNL:17,837,841
FNA:17,0,_ZNSt6bitsetILm128EE14_M_do_sanitizeEv
FNL:18,89,90
FNA:18,1,_ZNSt12_Base_bitsetILm2EEC2Ev
FNL:19,936,937
FNA:19,1,_ZNSt6bitsetILm128EEC2Ev
FNF:20
FNH:9
DA:89,1
DA:90,3
DA:106,2
DA:107,2
DA:114,2
DA:115,2
DA:118,2
DA:119,2
DA:122,2
DA:123,2
DA:136,0
DA:137,0
DA:144,0
DA:146,0
DA:147,0
DA:148,0
DA:171,0
DA:173,0
DA:174,0
DA:175,0
DA:227,0
DA:229,0
DA:230,0
DA:231,0
DA:232,0
DA:688,0
DA:827,2
DA:829,2
DA:830,0
DA:833,2
DA:837,0
DA:840,0
DA:841,0
DA:936,1
DA:937,1
DA:1048,0
DA:1050,0
DA:1051,0
DA:1120,2
DA:1122,2
DA:1123,2
DA:1125,0
DA:1126,2
DA:1172,2
DA:1174,2
DA:1175,2
DA:1209,0
DA:1211,0
DA:1212,0
DA:1213,0
DA:1232,0
DA:1233,0
DA:1420,0
DA:1421,0
DA:1557,0
DA:1559,0
DA:1560,0
DA:1561,0
LF:58
LH:22
end_of_record
TN:
SF:/usr/include/c++/14/new
FNL:0,179,180
FNA:0,1,_ZnwmPv
FNF:1
FNH:1
DA:179,1
DA:180,1
LF:2
LH:2
end_of_record
TN:
SF:/usr/include/c++/14/type_traits
FNL:0,3832,3839
FNA:0,1,_ZSt21is_constant_evaluatedv
FNF:1
FNH:1
DA:3832,1
DA:3835,1
LF:2
LH:2
end_of_record
TN:
SF:/usr/include/c++/14/x86_64-redhat-linux/bits/c++config.h
FNF:0
FNH:0
DA:2394,4
LF:1
LH:1
end_of_record
