TN:
SF:/home/monika/Documents/problems/15428번： Imperfect GPS/main.cpp
FNL:0,12,15
FNA:0,0,_Z8distanceRK5PointS1_
FNL:1,17,67
FNA:1,0,main
FNF:2
FNH:0
DA:12,0
DA:14,0
DA:17,0
DA:19,0
DA:20,0
DA:23,0
DA:25,0
DA:27,0
DA:29,0
DA:32,0
DA:33,0
DA:35,0
DA:38,0
DA:39,0
DA:40,0
DA:42,0
DA:44,0
DA:46,0
DA:47,0
DA:48,0
DA:49,0
DA:50,0
DA:51,0
DA:52,0
DA:55,0
DA:57,0
DA:58,0
DA:60,0
DA:63,0
DA:64,0
DA:66,0
DA:67,0
LF:32
LH:0
end_of_record
TN:
SF:/usr/include/c++/14/bits/alloc_traits.h
FNF:0
FNH:0
DA:515,0
DA:550,0
DA:577,0
DA:581,0
DA:599,0
DA:601,0
DA:993,0
DA:994,0
LF:8
LH:0
end_of_record
TN:
SF:/usr/include/c++/14/bits/allocator.h
FNF:0
FNH:0
DA:161,0
DA:166,0
DA:182,0
DA:189,0
DA:191,0
DA:192,0
DA:193,0
DA:196,0
DA:203,0
DA:205,0
DA:206,0
DA:208,0
LF:12
LH:0
end_of_record
TN:
SF:/usr/include/c++/14/bits/ios_base.h
FNL:0,104,105
FNA:0,0,_ZStoRRSt13_Ios_FmtflagsS_
FNL:1,109,110
FNA:1,0,_ZStaNRSt13_Ios_FmtflagsS_
FNL:2,1104,1108
FNA:2,0,_ZSt5fixedRSt8ios_base
FNL:3,726,732
FNA:3,0,_ZNSt8ios_base4setfESt13_Ios_FmtflagsS0_
FNL:4,84,85
FNA:4,0,_ZStanSt13_Ios_FmtflagsS_
FNL:5,89,90
FNA:5,0,_ZStorSt13_Ios_FmtflagsS_
FNL:6,99,100
FNA:6,0,_ZStcoSt13_Ios_Fmtflags
FNF:7
FNH:0
DA:84,0
DA:85,0
DA:89,0
DA:90,0
DA:99,0
DA:100,0
DA:104,0
DA:105,0
DA:109,0
DA:110,0
DA:726,0
DA:728,0
DA:729,0
DA:730,0
DA:731,0
DA:1104,0
DA:1106,0
DA:1107,0
LF:18
LH:0
end_of_record
TN:
SF:/usr/include/c++/14/bits/move.h
FNL:0,137,138
FNA:0,0,_ZSt4moveIR5PointEONSt16remove_referenceIT_E4typeEOS3_
FNL:1,51,52
FNA:1,0,_ZSt11__addressofI5PointEPT_RS1_
FNL:2,71,72
FNA:2,0,_ZSt7forwardI5PointEOT_RNSt16remove_referenceIS1_E4typeE
FNA:2,0,_ZSt7forwardIRK5PointEOT_RNSt16remove_referenceIS3_E4typeE
FNF:3
FNH:0
DA:51,0
DA:52,0
DA:71,0
DA:72,0
DA:137,0
DA:138,0
LF:6
LH:0
end_of_record
TN:
SF:/usr/include/c++/14/bits/new_allocator.h
FNL:0,126,152
FNA:0,0,_ZNSt15__new_allocatorI5PointE8allocateEmPKv
FNL:1,156,173
FNA:1,0,_ZNSt15__new_allocatorI5PointE10deallocateEPS0_m
FNF:2
FNH:0
DA:88,0
DA:92,0
DA:126,0
DA:134,0
DA:138,0
DA:139,0
DA:140,0
DA:151,0
DA:156,0
DA:172,0
DA:233,0
LF:11
LH:0
end_of_record
TN:
SF:/usr/include/c++/14/bits/ptr_traits.h
FNL:0,205,209
FNA:0,0,_ZSt12__to_addressI5PointEPT_S2_
FNF:1
FNH:0
DA:205,0
DA:208,0
LF:2
LH:0
end_of_record
TN:
SF:/usr/include/c++/14/bits/stl_algobase.h
FNL:0,1040,1040
FNA:0,0,_ZSt17__size_to_integerm
FNL:1,1140,1153
FNA:1,0,_ZSt10__fill_n_aIP5PointmS0_ET_S2_T0_RKT1_St26random_access_iterator_tag
FNL:2,1175,1182
FNA:2,0,_ZSt6fill_nIP5PointmS0_ET_S2_T0_RKT1_
FNL:3,233,241
FNA:3,0,_ZSt3minImERKT_S2_S2_
FNL:4,257,265
FNA:4,0,_ZSt3maxImERKT_S2_S2_
FNL:5,316,318
FNA:5,0,_ZSt12__niter_baseIP5PointET_S2_
FNL:6,936,941
FNA:6,0,_ZSt9__fill_a1IP5PointS0_EN9__gnu_cxx11__enable_ifIXntsrSt11__is_scalarIT0_E7__valueEvE6__typeET_S9_RKS5_
FNL:7,997,998
FNA:7,0,_ZSt8__fill_aIP5PointS0_EvT_S2_RKT0_
FNF:8
FNH:0
DA:233,0
DA:238,0
DA:239,0
DA:240,0
DA:257,0
DA:262,0
DA:263,0
DA:264,0
DA:316,0
DA:318,0
DA:936,0
DA:939,0
DA:940,0
DA:941,0
DA:997,0
DA:998,0
DA:1040,0
DA:1140,0
DA:1146,0
DA:1147,0
DA:1151,0
DA:1152,0
DA:1175,0
DA:1180,0
DA:1181,0
LF:25
LH:0
end_of_record
TN:
SF:/usr/include/c++/14/bits/stl_construct.h
FNL:0,109,120
FNA:0,0,_ZSt10_ConstructI5PointJEEvPT_DpOT0_
FNL:1,146,153
FNA:1,0,_ZSt8_DestroyI5PointEvPT_
FNL:2,160,164
FNA:2,0,_ZNSt12_Destroy_auxILb0EE9__destroyIP5PointEEvT_S4_
FNL:3,172,172
FNA:3,0,_ZNSt12_Destroy_auxILb1EE9__destroyIP5PointEEvT_S4_
FNL:4,182,197
FNA:4,0,_ZSt8_DestroyIP5PointEvT_S2_
FNL:5,80,89
FNA:5,0,_ZSt10destroy_atI5PointEvPT_
FNL:6,94,97
FNA:6,0,_ZSt12construct_atI5PointJEEDTgsnwcvPvLi0E_T_pispcl7declvalIT0_EEEEPS2_DpOS3_
FNA:6,0,_ZSt12construct_atI5PointJRKS0_EEDTgsnwcvPvLi0E_T_pispcl7declvalIT0_EEEEPS4_DpOS5_
FNA:6,0,_ZSt12construct_atI5PointJS0_EEDTgsnwcvPvLi0E_T_pispcl7declvalIT0_EEEEPS2_DpOS3_
FNF:7
FNH:0
DA:80,0
DA:88,0
DA:89,0
DA:94,0
DA:97,0
DA:109,0
DA:112,0
DA:115,0
DA:116,0
DA:119,0
DA:146,0
DA:149,0
DA:153,0
DA:160,0
DA:162,0
DA:163,0
DA:164,0
DA:172,0
DA:182,0
DA:192,0
DA:193,0
DA:196,0
LF:22
LH:0
end_of_record
TN:
SF:/usr/include/c++/14/bits/stl_iterator.h
FNL:0,1067,1068
FNA:0,0,_ZN9__gnu_cxx17__normal_iteratorIP5PointSt6vectorIS1_SaIS1_EEEC2ERKS2_
FNA:0,0,_ZN9__gnu_cxx17__normal_iteratorIP5PointvEC2ERKS2_
FNL:1,1090,1091
FNA:1,0,_ZNK9__gnu_cxx17__normal_iteratorIP5PointSt6vectorIS1_SaIS1_EEEdeEv
FNA:1,0,_ZNK9__gnu_cxx17__normal_iteratorIP5PointvEdeEv
FNL:2,1100,1104
FNA:2,0,_ZN9__gnu_cxx17__normal_iteratorIP5PointvEppEv
FNL:3,1148,1149
FNA:3,0,_ZNK9__gnu_cxx17__normal_iteratorIP5PointSt6vectorIS1_SaIS1_EEEmiEl
FNL:4,1153,1154
FNA:4,0,_ZNK9__gnu_cxx17__normal_iteratorIP5PointSt6vectorIS1_SaIS1_EEE4baseEv
FNA:4,0,_ZNK9__gnu_cxx17__normal_iteratorIP5PointvE4baseEv
FNL:5,1325,1328
FNA:5,0,_ZN9__gnu_cxxmiIP5PointSt6vectorIS1_SaIS1_EEEENS_17__normal_iteratorIT_T0_E15difference_typeERKS9_SC_
FNF:6
FNH:0
DA:1067,0
DA:1068,0
DA:1090,0
DA:1091,0
DA:1100,0
DA:1102,0
DA:1103,0
DA:1148,0
DA:1149,0
DA:1153,0
DA:1154,0
DA:1325,0
DA:1328,0
LF:13
LH:0
end_of_record
TN:
SF:/usr/include/c++/14/bits/stl_iterator_base_types.h
FNF:0
FNH:0
DA:240,0
LF:1
LH:0
end_of_record
TN:
SF:/usr/include/c++/14/bits/stl_uninitialized.h
FNL:0,1067,1077
FNA:0,0,_ZSt19__relocate_object_aI5PointS0_SaIS0_EEvPT_PT0_RT1_
FNL:1,1089,1106
FNA:1,0,_ZSt14__relocate_a_1IP5PointN9__gnu_cxx17__normal_iteratorIS1_vEESaIS0_EET0_T_S7_S6_RT1_
FNL:2,1112,1132
FNA:2,0,_ZSt14__relocate_a_1I5PointS0_ENSt9enable_ifIXsrSt24__is_bitwise_relocatableIT_vE5valueEPS3_E4typeES5_S5_S5_RSaIT0_E
FNL:3,1139,1148
FNA:3,0,_ZSt12__relocate_aIP5PointS1_SaIS0_EET0_T_S4_S3_RT1_
FNL:4,637,651
FNA:4,0,_ZNSt27__uninitialized_default_n_1ILb0EE18__uninit_default_nIP5PointmEET_S4_T0_
FNL:5,660,671
FNA:5,0,_ZNSt27__uninitialized_default_n_1ILb1EE18__uninit_default_nIP5PointmEET_S4_T0_
FNL:6,696,713
FNA:6,0,_ZSt25__uninitialized_default_nIP5PointmET_S2_T0_
FNL:7,777,779
FNA:7,0,_ZSt27__uninitialized_default_n_aIP5PointmS0_ET_S2_T0_RSaIT1_E
FNF:8
FNH:0
DA:637,0
DA:639,0
DA:642,0
DA:643,0
DA:644,0
DA:660,0
DA:662,0
DA:665,0
DA:666,0
DA:667,0
DA:668,0
DA:670,0
DA:696,0
DA:699,0
DA:701,0
DA:707,0
DA:712,0
DA:777,0
DA:779,0
DA:1067,0
DA:1075,0
DA:1076,0
DA:1077,0
DA:1089,0
DA:1101,0
DA:1102,0
DA:1103,0
DA:1105,0
DA:1112,0
DA:1116,0
DA:1117,0
DA:1120,0
DA:1124,0
DA:1125,0
DA:1126,0
DA:1129,0
DA:1131,0
DA:1139,0
DA:1145,0
DA:1147,0
LF:40
LH:0
end_of_record
TN:
SF:/usr/include/c++/14/bits/stl_vector.h
FNL:0,1128,1132
FNA:0,0,_ZNSt6vectorI5PointSaIS0_EEixEm
FNL:1,1235,1239
FNA:1,0,_ZNSt6vectorI5PointSaIS0_EE4backEv
FNL:2,1283,1295
FNA:2,0,_ZNSt6vectorI5PointSaIS0_EE9push_backERKS0_
FNL:3,145,147
FNA:3,0,_ZNSt12_Vector_baseI5PointSaIS0_EE12_Vector_implC2ERKS1_
FNL:4,1717,1722
FNA:4,0,_ZNSt6vectorI5PointSaIS0_EE21_M_default_initializeEm
FNL:5,1906,1913
FNA:5,0,_ZNKSt6vectorI5PointSaIS0_EE12_M_check_lenEmPKc
FNL:6,1917,1923
FNA:6,0,_ZNSt6vectorI5PointSaIS0_EE17_S_check_init_lenEmRKS1_
FNL:7,1926,1935
FNA:7,0,_ZNSt6vectorI5PointSaIS0_EE11_S_max_sizeERKS1_
FNL:8,300,301
FNA:8,0,_ZNSt12_Vector_baseI5PointSaIS0_EE19_M_get_Tp_allocatorEv
FNL:9,305,306
FNA:9,0,_ZNKSt12_Vector_baseI5PointSaIS0_EE19_M_get_Tp_allocatorEv
FNL:10,332,334
FNA:10,0,_ZNSt12_Vector_baseI5PointSaIS0_EEC2EmRKS1_
FNL:11,366,370
FNA:11,0,_ZNSt12_Vector_baseI5PointSaIS0_EED2Ev
FNL:12,377,381
FNA:12,0,_ZNSt12_Vector_baseI5PointSaIS0_EE11_M_allocateEm
FNL:13,385,390
FNA:13,0,_ZNSt12_Vector_baseI5PointSaIS0_EE13_M_deallocateEPS0_m
FNL:14,396,401
FNA:14,0,_ZNSt12_Vector_baseI5PointSaIS0_EE17_M_create_storageEm
FNL:15,504,514
FNA:15,0,_ZNSt6vectorI5PointSaIS0_EE11_S_relocateEPS0_S3_S3_RS1_
FNL:16,556,558
FNA:16,0,_ZNSt6vectorI5PointSaIS0_EEC2EmRKS1_
FNL:17,733,738
FNA:17,0,_ZNSt6vectorI5PointSaIS0_EED2Ev
FNL:18,873,874
FNA:18,0,_ZNSt6vectorI5PointSaIS0_EE5beginEv
FNL:19,893,894
FNA:19,0,_ZNSt6vectorI5PointSaIS0_EE3endEv
FNL:20,98,100
FNA:20,0,_ZNSt12_Vector_baseI5PointSaIS0_EE17_Vector_impl_dataC2Ev
FNL:21,992,993
FNA:21,0,_ZNKSt6vectorI5PointSaIS0_EE4sizeEv
FNL:22,998,999
FNA:22,0,_ZNKSt6vectorI5PointSaIS0_EE8max_sizeEv
FNF:23
FNH:0
DA:98,0
DA:99,0
DA:100,0
DA:145,0
DA:146,0
DA:147,0
DA:300,0
DA:301,0
DA:305,0
DA:306,0
DA:332,0
DA:333,0
DA:334,0
DA:366,0
DA:368,0
DA:369,0
DA:370,0
DA:377,0
DA:380,0
DA:385,0
DA:388,0
DA:389,0
DA:390,0
DA:396,0
DA:398,0
DA:399,0
DA:400,0
DA:401,0
DA:504,0
DA:509,0
DA:556,0
DA:557,0
DA:558,0
DA:733,0
DA:735,0
DA:736,0
DA:738,0
DA:873,0
DA:874,0
DA:893,0
DA:894,0
DA:992,0
DA:993,0
DA:998,0
DA:999,0
DA:1128,0
DA:1131,0
DA:1235,0
DA:1238,0
DA:1283,0
DA:1285,0
DA:1288,0
DA:1290,0
DA:1294,0
DA:1295,0
DA:1717,0
DA:1719,0
DA:1720,0
DA:1721,0
DA:1722,0
DA:1906,0
DA:1908,0
DA:1909,0
DA:1911,0
DA:1912,0
DA:1917,0
DA:1919,0
DA:1920,0
DA:1922,0
DA:1926,0
DA:1931,0
DA:1933,0
DA:1934,0
LF:73
LH:0
end_of_record
TN:
SF:/usr/include/c++/14/bits/vector.tcc
FNL:0,581,695
FNA:0,0,_ZNSt6vectorI5PointSaIS0_EE17_M_realloc_appendIJRKS0_EEEvDpOT_
FNL:1,607,609
FNA:1,0,_ZZNSt6vectorI5PointSaIS0_EE17_M_realloc_appendIJRKS0_EEEvDpOT_EN6_GuardC2EPS0_mRS1_
FNL:2,612,617
FNA:2,0,_ZZNSt6vectorI5PointSaIS0_EE17_M_realloc_appendIJRKS0_EEEvDpOT_EN6_GuardD2Ev
FNF:3
FNH:0
DA:581,0
DA:590,0
DA:591,0
DA:592,0
DA:593,0
DA:594,0
DA:595,0
DA:596,0
DA:597,0
DA:607,0
DA:608,0
DA:609,0
DA:612,0
DA:614,0
DA:616,0
DA:617,0
DA:624,0
DA:634,0
DA:635,0
DA:647,0
DA:648,0
DA:649,0
DA:686,0
DA:687,0
DA:688,0
DA:692,0
DA:693,0
DA:694,0
DA:695,0
LF:29
LH:0
end_of_record
TN:
SF:/usr/include/c++/14/iomanip
FNL:0,202,203
FNA:0,0,_ZSt12setprecisioni
FNF:1
FNH:0
DA:202,0
DA:203,0
LF:2
LH:0
end_of_record
TN:
SF:/usr/include/c++/14/new
FNL:0,179,180
FNA:0,0,_ZnwmPv
FNF:1
FNH:0
DA:179,0
DA:180,0
LF:2
LH:0
end_of_record
TN:
SF:/usr/include/c++/14/type_traits
FNL:0,3832,3839
FNA:0,0,_ZSt21is_constant_evaluatedv
FNF:1
FNH:0
DA:3832,0
DA:3835,0
LF:2
LH:0
end_of_record
TN:
SF:/usr/include/c++/14/x86_64-redhat-linux/bits/c++config.h
FNF:0
FNH:0
DA:2394,0
LF:1
LH:0
end_of_record
