TN:
SF:/home/monika/Documents/problems/21414번： Вычислительная ихтиология/main.cpp
FNL:0,14,71
FNA:0,1,main
FNL:1,9,12
FNA:1,5,_Z18time_to_next_birthi
FNF:2
FNH:2
DA:9,5
DA:11,5
DA:14,1
DA:16,1
DA:17,1
DA:20,1
DA:22,1
DA:28,1
DA:30,4
DA:32,3
DA:33,3
DA:34,3
DA:37,1
DA:38,1
DA:39,1
DA:41,3
DA:43,3
DA:44,3
DA:46,3
DA:47,3
DA:49,3
DA:51,3
DA:53,2
DA:54,2
DA:56,2
DA:57,2
DA:58,2
DA:59,2
DA:63,1
DA:64,1
DA:68,1
DA:70,1
DA:71,1
LF:33
LH:33
end_of_record
TN:
SF:/usr/include/c++/14/bits/alloc_traits.h
FNF:0
FNH:0
DA:515,4
DA:550,4
DA:577,8
DA:581,8
DA:599,6
DA:601,6
DA:993,2
DA:994,2
LF:8
LH:8
end_of_record
TN:
SF:/usr/include/c++/14/bits/allocator.h
FNF:0
FNH:0
DA:161,2
DA:166,2
DA:182,2
DA:189,4
DA:191,0
DA:192,0
DA:193,0
DA:196,4
DA:203,4
DA:205,0
DA:206,0
DA:208,4
LF:12
LH:7
end_of_record
TN:
SF:/usr/include/c++/14/bits/move.h
FNL:0,137,138
FNA:0,49,_ZSt4moveIRSt4pairIxiEEONSt16remove_referenceIT_E4typeEOS4_
FNL:1,51,52
FNA:1,9,_ZSt11__addressofISt4pairIxiEEPT_RS2_
FNA:1,1,_ZSt11__addressofIiEPT_RS0_
FNL:2,71,72
FNA:2,5,_ZSt7forwardIRiEOT_RNSt16remove_referenceIS1_E4typeE
FNA:2,5,_ZSt7forwardIRxEOT_RNSt16remove_referenceIS1_E4typeE
FNA:2,24,_ZSt7forwardISt4pairIxiEEOT_RNSt16remove_referenceIS2_E4typeE
FNA:2,17,_ZSt7forwardIiEOT_RNSt16remove_referenceIS0_E4typeE
FNA:2,17,_ZSt7forwardIxEOT_RNSt16remove_referenceIS0_E4typeE
FNF:3
FNH:3
DA:51,10
DA:52,10
DA:71,68
DA:72,68
DA:137,49
DA:138,49
LF:6
LH:6
end_of_record
TN:
SF:/usr/include/c++/14/bits/new_allocator.h
FNL:0,126,152
FNA:0,3,_ZNSt15__new_allocatorISt4pairIxiEE8allocateEmPKv
FNA:0,1,_ZNSt15__new_allocatorIiE8allocateEmPKv
FNL:1,156,173
FNA:1,3,_ZNSt15__new_allocatorISt4pairIxiEE10deallocateEPS1_m
FNA:1,1,_ZNSt15__new_allocatorIiE10deallocateEPim
FNF:2
FNH:2
DA:88,2
DA:92,2
DA:126,4
DA:134,4
DA:138,0
DA:139,0
DA:140,0
DA:151,4
DA:156,4
DA:172,4
DA:233,4
LF:11
LH:8
end_of_record
TN:
SF:/usr/include/c++/14/bits/predefined_ops.h
FNL:0,157,158
FNA:0,0,_ZN9__gnu_cxx5__ops15_Iter_comp_iterISt7greaterISt4pairIxiEEEclINS_17__normal_iteratorIPS4_St6vectorIS4_SaIS4_EEEESD_EEbT_T0_
FNL:1,195,196
FNA:1,7,_ZN9__gnu_cxx5__ops14_Iter_comp_valISt7greaterISt4pairIxiEEEclINS_17__normal_iteratorIPS4_St6vectorIS4_SaIS4_EEEES4_EEbT_RT0_
FNF:2
FNH:1
DA:157,0
DA:158,0
DA:195,7
DA:196,7
LF:4
LH:2
end_of_record
TN:
SF:/usr/include/c++/14/bits/ptr_traits.h
FNL:0,205,209
FNA:0,3,_ZSt12__to_addressISt4pairIxiEEPT_S3_
FNF:1
FNH:1
DA:205,3
DA:208,3
LF:2
LH:2
end_of_record
TN:
SF:/usr/include/c++/14/bits/stl_algobase.h
FNL:0,1040,1040
FNA:0,1,_ZSt17__size_to_integerm
FNL:1,1140,1153
FNA:1,1,_ZSt10__fill_n_aIPimiET_S1_T0_RKT1_St26random_access_iterator_tag
FNL:2,1175,1182
FNA:2,1,_ZSt6fill_nIPimiET_S1_T0_RKT1_
FNL:3,233,241
FNA:3,7,_ZSt3minImERKT_S2_S2_
FNL:4,257,265
FNA:4,5,_ZSt3maxIiERKT_S2_S2_
FNA:4,3,_ZSt3maxImERKT_S2_S2_
FNL:5,316,318
FNA:5,9,_ZSt12__niter_baseIPSt4pairIxiEET_S3_
FNL:6,947,953
FNA:6,1,_ZSt9__fill_a1IPiiEN9__gnu_cxx11__enable_ifIXsrSt11__is_scalarIT0_E7__valueEvE6__typeET_S8_RKS4_
FNL:7,997,998
FNA:7,1,_ZSt8__fill_aIPiiEvT_S1_RKT0_
FNF:8
FNH:8
DA:233,7
DA:238,7
DA:239,0
DA:240,7
DA:257,8
DA:262,8
DA:263,6
DA:264,2
DA:316,9
DA:318,9
DA:947,1
DA:950,1
DA:951,3
DA:952,2
DA:953,1
DA:997,1
DA:998,1
DA:1040,1
DA:1140,1
DA:1146,1
DA:1147,0
DA:1151,1
DA:1152,1
DA:1175,1
DA:1180,1
DA:1181,2
LF:26
LH:24
end_of_record
TN:
SF:/usr/include/c++/14/bits/stl_construct.h
FNL:0,109,120
FNA:0,1,_ZSt10_ConstructIiJEEvPT_DpOT0_
FNL:1,146,153
FNA:1,0,_ZSt8_DestroyISt4pairIxiEEvPT_
FNA:1,0,_ZSt8_DestroyIiEvPT_
FNL:2,160,164
FNA:2,0,_ZNSt12_Destroy_auxILb0EE9__destroyIPSt4pairIxiEEEvT_S5_
FNA:2,0,_ZNSt12_Destroy_auxILb0EE9__destroyIPiEEvT_S3_
FNL:3,172,172
FNA:3,1,_ZNSt12_Destroy_auxILb1EE9__destroyIPSt4pairIxiEEEvT_S5_
FNA:3,1,_ZNSt12_Destroy_auxILb1EE9__destroyIPiEEvT_S3_
FNL:4,182,197
FNA:4,1,_ZSt8_DestroyIPSt4pairIxiEEvT_S3_
FNA:4,1,_ZSt8_DestroyIPiEvT_S1_
FNL:5,80,89
FNA:5,6,_ZSt10destroy_atISt4pairIxiEEvPT_
FNA:5,0,_ZSt10destroy_atIiEvPT_
FNL:6,94,97
FNA:6,8,_ZSt12construct_atISt4pairIxiEJS1_EEDTgsnwcvPvLi0E_T_pispcl7declvalIT0_EEEEPS3_DpOS4_
FNA:6,0,_ZSt12construct_atIiJEEDTgsnwcvPvLi0E_T_pispcl7declvalIT0_EEEEPS1_DpOS2_
FNF:7
FNH:5
DA:80,6
DA:88,6
DA:89,6
DA:94,8
DA:97,8
DA:109,1
DA:112,1
DA:115,0
DA:116,0
DA:119,1
DA:146,0
DA:149,0
DA:153,0
DA:160,0
DA:162,0
DA:163,0
DA:164,0
DA:172,2
DA:182,2
DA:192,2
DA:193,0
DA:196,2
LF:22
LH:12
end_of_record
TN:
SF:/usr/include/c++/14/bits/stl_function.h
FNL:0,394,395
FNA:0,7,_ZNKSt7greaterISt4pairIxiEEclERKS1_S4_
FNF:1
FNH:1
DA:394,7
DA:395,7
LF:2
LH:2
end_of_record
TN:
SF:/usr/include/c++/14/bits/stl_heap.h
FNL:0,135,147
FNA:0,8,_ZSt11__push_heapIN9__gnu_cxx17__normal_iteratorIPSt4pairIxiESt6vectorIS3_SaIS3_EEEElS3_NS0_5__ops14_Iter_comp_valISt7greaterIS3_EEEEvT_T0_SF_T1_RT2_
FNL:1,198,218
FNA:1,5,_ZSt9push_heapIN9__gnu_cxx17__normal_iteratorIPSt4pairIxiESt6vectorIS3_SaIS3_EEEESt7greaterIS3_EEvT_SB_T0_
FNL:2,224,249
FNA:2,3,_ZSt13__adjust_heapIN9__gnu_cxx17__normal_iteratorIPSt4pairIxiESt6vectorIS3_SaIS3_EEEElS3_NS0_5__ops15_Iter_comp_iterISt7greaterIS3_EEEEvT_T0_SF_T1_T2_
FNL:3,254,267
FNA:3,3,_ZSt10__pop_heapIN9__gnu_cxx17__normal_iteratorIPSt4pairIxiESt6vectorIS3_SaIS3_EEEENS0_5__ops15_Iter_comp_iterISt7greaterIS3_EEEEvT_SE_SE_RT0_
FNL:4,317,335
FNA:4,3,_ZSt8pop_heapIN9__gnu_cxx17__normal_iteratorIPSt4pairIxiESt6vectorIS3_SaIS3_EEEESt7greaterIS3_EEvT_SB_T0_
FNF:5
FNH:5
DA:135,8
DA:139,8
DA:140,11
DA:142,3
DA:143,3
DA:144,3
DA:146,8
DA:147,8
DA:198,5
DA:215,5
DA:216,5
DA:217,5
DA:218,5
DA:224,3
DA:227,3
DA:228,3
DA:229,3
DA:231,0
DA:232,0
DA:234,0
DA:235,0
DA:236,0
DA:238,3
DA:240,3
DA:241,3
DA:243,3
DA:247,3
DA:248,3
DA:249,3
DA:254,3
DA:262,3
DA:263,3
DA:264,3
DA:265,3
DA:266,3
DA:267,3
DA:317,3
DA:328,3
DA:332,3
DA:333,3
DA:335,3
LF:41
LH:36
end_of_record
TN:
SF:/usr/include/c++/14/bits/stl_iterator.h
FNL:0,1067,1068
FNA:0,9,_ZN9__gnu_cxx17__normal_iteratorIPKSt4pairIxiESt6vectorIS2_SaIS2_EEEC2ERKS4_
FNA:0,64,_ZN9__gnu_cxx17__normal_iteratorIPSt4pairIxiESt6vectorIS2_SaIS2_EEEC2ERKS3_
FNL:1,1090,1091
FNA:1,3,_ZNK9__gnu_cxx17__normal_iteratorIPKSt4pairIxiESt6vectorIS2_SaIS2_EEEdeEv
FNA:1,46,_ZNK9__gnu_cxx17__normal_iteratorIPSt4pairIxiESt6vectorIS2_SaIS2_EEEdeEv
FNL:2,1114,1118
FNA:2,3,_ZN9__gnu_cxx17__normal_iteratorIPSt4pairIxiESt6vectorIS2_SaIS2_EEEmmEv
FNL:3,1138,1139
FNA:3,27,_ZNK9__gnu_cxx17__normal_iteratorIPSt4pairIxiESt6vectorIS2_SaIS2_EEEplEl
FNL:4,1148,1149
FNA:4,10,_ZNK9__gnu_cxx17__normal_iteratorIPSt4pairIxiESt6vectorIS2_SaIS2_EEEmiEl
FNL:5,1153,1154
FNA:5,6,_ZNK9__gnu_cxx17__normal_iteratorIPKSt4pairIxiESt6vectorIS2_SaIS2_EEE4baseEv
FNA:5,28,_ZNK9__gnu_cxx17__normal_iteratorIPSt4pairIxiESt6vectorIS2_SaIS2_EEE4baseEv
FNL:6,1188,1194
FNA:6,3,_ZN9__gnu_cxxeqIPKSt4pairIxiESt6vectorIS2_SaIS2_EEEEbRKNS_17__normal_iteratorIT_T0_EESD_QrqXeqcldtfL0p_4baseEcldtfL0p0_4baseERSt14convertible_toIbEE
FNL:7,1325,1328
FNA:7,14,_ZN9__gnu_cxxmiIPSt4pairIxiESt6vectorIS2_SaIS2_EEEENS_17__normal_iteratorIT_T0_E15difference_typeERKSA_SD_
FNF:8
FNH:8
DA:1067,73
DA:1068,73
DA:1090,49
DA:1091,49
DA:1114,3
DA:1116,3
DA:1117,3
DA:1138,27
DA:1139,27
DA:1148,10
DA:1149,10
DA:1153,34
DA:1154,34
DA:1188,3
DA:1194,3
DA:1325,14
DA:1328,14
LF:17
LH:17
end_of_record
TN:
SF:/usr/include/c++/14/bits/stl_iterator_base_types.h
FNF:0
FNH:0
DA:240,1
LF:1
LH:1
end_of_record
TN:
SF:/usr/include/c++/14/bits/stl_pair.h
FNL:0,1023,1028
FNA:0,7,_ZStssIxixiENSt26common_comparison_categoryIJDTclL_ZNSt8__detail11__synth3wayEEcl7declvalIRT_EEcl7declvalIRT1_EEEEDTclL_ZNS1_11__synth3wayEEcl7declvalIRT0_EEcl7declvalIRT2_EEEEEE4typeERKSt4pairIS2_S7_ERKSE_IS4_S9_E
FNL:1,442,445
FNA:1,5,_ZNSt4pairIxiEC2IRxRiEEOT_OT0_
FNL:2,602,609
FNA:2,17,_ZNSt4pairIxiEaSEOS0_Qcl13_S_assignableIT_T0_EE
FNF:3
FNH:3
DA:442,5
DA:444,5
DA:445,5
DA:602,17
DA:606,17
DA:607,17
DA:608,17
DA:1023,7
DA:1025,7
DA:1026,7
DA:1027,0
LF:11
LH:10
end_of_record
TN:
SF:/usr/include/c++/14/bits/stl_queue.h
FNL:0,554,555
FNA:0,1,_ZNSt14priority_queueISt4pairIxiESt6vectorIS1_SaIS1_EESt7greaterIS1_EEC2IS4_vEEv
FNL:1,706,707
FNA:1,3,_ZNKSt14priority_queueISt4pairIxiESt6vectorIS1_SaIS1_EESt7greaterIS1_EE5emptyEv
FNL:2,721,725
FNA:2,3,_ZNKSt14priority_queueISt4pairIxiESt6vectorIS1_SaIS1_EESt7greaterIS1_EE3topEv
FNL:3,744,748
FNA:3,5,_ZNSt14priority_queueISt4pairIxiESt6vectorIS1_SaIS1_EESt7greaterIS1_EE4pushEOS1_
FNL:4,771,776
FNA:4,3,_ZNSt14priority_queueISt4pairIxiESt6vectorIS1_SaIS1_EESt7greaterIS1_EE3popEv
FNF:5
FNH:5
DA:554,1
DA:555,1
DA:706,3
DA:707,3
DA:721,3
DA:724,3
DA:744,5
DA:746,5
DA:747,5
DA:748,5
DA:771,3
DA:774,3
DA:775,3
DA:776,3
LF:14
LH:14
end_of_record
TN:
SF:/usr/include/c++/14/bits/stl_uninitialized.h
FNL:0,1067,1077
FNA:0,3,_ZSt19__relocate_object_aISt4pairIxiES1_SaIS1_EEvPT_PT0_RT1_
FNL:1,1089,1106
FNA:1,3,_ZSt14__relocate_a_1IPSt4pairIxiES2_SaIS1_EET0_T_S5_S4_RT1_
FNL:2,1139,1148
FNA:2,3,_ZSt12__relocate_aIPSt4pairIxiES2_SaIS1_EET0_T_S5_S4_RT1_
FNL:3,637,651
FNA:3,0,_ZNSt27__uninitialized_default_n_1ILb0EE18__uninit_default_nIPimEET_S3_T0_
FNL:4,660,671
FNA:4,1,_ZNSt27__uninitialized_default_n_1ILb1EE18__uninit_default_nIPimEET_S3_T0_
FNL:5,696,713
FNA:5,1,_ZSt25__uninitialized_default_nIPimET_S1_T0_
FNL:6,777,779
FNA:6,1,_ZSt27__uninitialized_default_n_aIPimiET_S1_T0_RSaIT1_E
FNF:7
FNH:6
DA:637,0
DA:639,0
DA:642,0
DA:643,0
DA:644,0
DA:660,1
DA:662,1
DA:665,1
DA:666,1
DA:667,1
DA:668,1
DA:670,1
DA:696,1
DA:699,1
DA:701,0
DA:707,1
DA:712,1
DA:777,1
DA:779,1
DA:1067,3
DA:1075,3
DA:1076,3
DA:1077,3
DA:1089,3
DA:1101,3
DA:1102,6
DA:1103,3
DA:1105,3
DA:1139,3
DA:1145,3
DA:1147,3
LF:31
LH:25
end_of_record
TN:
SF:/usr/include/c++/14/bits/stl_vector.h
FNL:0,1090,1091
FNA:0,3,_ZNKSt6vectorISt4pairIxiESaIS1_EE5emptyEv
FNL:1,1128,1132
FNA:1,10,_ZNSt6vectorIiSaIiEEixEm
FNL:2,1223,1227
FNA:2,3,_ZNKSt6vectorISt4pairIxiESaIS1_EE5frontEv
FNL:3,1235,1239
FNA:3,5,_ZNSt6vectorISt4pairIxiESaIS1_EE4backEv
FNL:4,1300,1301
FNA:4,5,_ZNSt6vectorISt4pairIxiESaIS1_EE9push_backEOS1_
FNL:5,1324,1330
FNA:5,3,_ZNSt6vectorISt4pairIxiESaIS1_EE8pop_backEv
FNL:6,136,142
FNA:6,1,_ZNSt12_Vector_baseISt4pairIxiESaIS1_EE12_Vector_implC2EvQ26is_default_constructible_vIN9__gnu_cxx14__alloc_traitsIT0_NS7_10value_typeEE6rebindIT_E5otherEE
FNL:7,145,147
FNA:7,1,_ZNSt12_Vector_baseIiSaIiEE12_Vector_implC2ERKS0_
FNL:8,1717,1722
FNA:8,1,_ZNSt6vectorIiSaIiEE21_M_default_initializeEm
FNL:9,1906,1913
FNA:9,3,_ZNKSt6vectorISt4pairIxiESaIS1_EE12_M_check_lenEmPKc
FNL:10,1917,1923
FNA:10,1,_ZNSt6vectorIiSaIiEE17_S_check_init_lenEmRKS0_
FNL:11,1926,1935
FNA:11,6,_ZNSt6vectorISt4pairIxiESaIS1_EE11_S_max_sizeERKS2_
FNA:11,1,_ZNSt6vectorIiSaIiEE11_S_max_sizeERKS0_
FNL:12,300,301
FNA:12,4,_ZNSt12_Vector_baseISt4pairIxiESaIS1_EE19_M_get_Tp_allocatorEv
FNA:12,2,_ZNSt12_Vector_baseIiSaIiEE19_M_get_Tp_allocatorEv
FNL:13,305,306
FNA:13,6,_ZNKSt12_Vector_baseISt4pairIxiESaIS1_EE19_M_get_Tp_allocatorEv
FNL:14,314,314
FNA:14,1,_ZNSt12_Vector_baseISt4pairIxiESaIS1_EEC2Ev
FNL:15,332,334
FNA:15,1,_ZNSt12_Vector_baseIiSaIiEEC2EmRKS0_
FNL:16,366,370
FNA:16,1,_ZNSt12_Vector_baseISt4pairIxiESaIS1_EED2Ev
FNA:16,1,_ZNSt12_Vector_baseIiSaIiEED2Ev
FNL:17,377,381
FNA:17,3,_ZNSt12_Vector_baseISt4pairIxiESaIS1_EE11_M_allocateEm
FNA:17,1,_ZNSt12_Vector_baseIiSaIiEE11_M_allocateEm
FNL:18,385,390
FNA:18,1,_ZNSt12_Vector_baseISt4pairIxiESaIS1_EE13_M_deallocateEPS1_m
FNA:18,1,_ZNSt12_Vector_baseIiSaIiEE13_M_deallocateEPim
FNL:19,396,401
FNA:19,1,_ZNSt12_Vector_baseIiSaIiEE17_M_create_storageEm
FNL:20,504,514
FNA:20,3,_ZNSt6vectorISt4pairIxiESaIS1_EE11_S_relocateEPS1_S4_S4_RS2_
FNL:21,531,531
FNA:21,1,_ZNSt6vectorISt4pairIxiESaIS1_EEC2Ev
FNL:22,556,558
FNA:22,1,_ZNSt6vectorIiSaIiEEC2EmRKS0_
FNL:23,733,738
FNA:23,1,_ZNSt6vectorISt4pairIxiESaIS1_EED2Ev
FNA:23,1,_ZNSt6vectorIiSaIiEED2Ev
FNL:24,873,874
FNA:24,11,_ZNSt6vectorISt4pairIxiESaIS1_EE5beginEv
FNL:25,883,884
FNA:25,6,_ZNKSt6vectorISt4pairIxiESaIS1_EE5beginEv
FNL:26,893,894
FNA:26,16,_ZNSt6vectorISt4pairIxiESaIS1_EE3endEv
FNL:27,903,904
FNA:27,3,_ZNKSt6vectorISt4pairIxiESaIS1_EE3endEv
FNL:28,98,100
FNA:28,1,_ZNSt12_Vector_baseISt4pairIxiESaIS1_EE17_Vector_impl_dataC2Ev
FNA:28,1,_ZNSt12_Vector_baseIiSaIiEE17_Vector_impl_dataC2Ev
FNL:29,992,993
FNA:29,12,_ZNKSt6vectorISt4pairIxiESaIS1_EE4sizeEv
FNL:30,998,999
FNA:30,6,_ZNKSt6vectorISt4pairIxiESaIS1_EE8max_sizeEv
FNF:31
FNH:31
DA:98,2
DA:99,2
DA:100,2
DA:136,1
DA:141,1
DA:142,1
DA:145,1
DA:146,1
DA:147,1
DA:300,6
DA:301,6
DA:305,6
DA:306,6
DA:314,1
DA:332,1
DA:333,1
DA:334,1
DA:366,2
DA:368,2
DA:369,2
DA:370,2
DA:377,4
DA:380,8
DA:385,2
DA:388,2
DA:389,2
DA:390,2
DA:396,1
DA:398,1
DA:399,1
DA:400,1
DA:401,1
DA:504,3
DA:509,3
DA:531,1
DA:556,1
DA:557,1
DA:558,1
DA:733,2
DA:735,2
DA:736,2
DA:738,2
DA:873,11
DA:874,11
DA:883,6
DA:884,6
DA:893,16
DA:894,16
DA:903,3
DA:904,3
DA:992,12
DA:993,12
DA:998,6
DA:999,6
DA:1090,3
DA:1091,3
DA:1128,10
DA:1131,10
DA:1223,3
DA:1226,3
DA:1235,5
DA:1238,5
DA:1300,5
DA:1301,5
DA:1324,3
DA:1327,3
DA:1328,3
DA:1330,3
DA:1717,1
DA:1719,1
DA:1720,1
DA:1721,1
DA:1722,1
DA:1906,3
DA:1908,3
DA:1909,0
DA:1911,3
DA:1912,3
DA:1917,1
DA:1919,1
DA:1920,0
DA:1922,1
DA:1926,7
DA:1931,7
DA:1933,7
DA:1934,7
LF:86
LH:84
end_of_record
TN:
SF:/usr/include/c++/14/bits/vector.tcc
FNL:0,111,127
FNA:0,5,_ZNSt6vectorISt4pairIxiESaIS1_EE12emplace_backIJS1_EEERS1_DpOT_
FNL:1,581,695
FNA:1,3,_ZNSt6vectorISt4pairIxiESaIS1_EE17_M_realloc_appendIJS1_EEEvDpOT_
FNL:2,607,609
FNA:2,3,_ZZNSt6vectorISt4pairIxiESaIS1_EE17_M_realloc_appendIJS1_EEEvDpOT_EN6_GuardC2EPS1_mRS2_
FNL:3,612,617
FNA:3,3,_ZZNSt6vectorISt4pairIxiESaIS1_EE17_M_realloc_appendIJS1_EEEvDpOT_EN6_GuardD2Ev
FNF:4
FNH:4
DA:111,5
DA:114,5
DA:117,2
DA:119,2
DA:123,3
DA:125,5
DA:581,3
DA:590,3
DA:591,3
DA:592,0
DA:593,3
DA:594,3
DA:595,3
DA:596,3
DA:597,3
DA:607,3
DA:608,3
DA:609,3
DA:612,3
DA:614,3
DA:616,2
DA:617,3
DA:624,3
DA:634,6
DA:635,3
DA:647,3
DA:648,3
DA:649,3
DA:686,3
DA:687,3
DA:688,3
DA:692,3
DA:693,3
DA:694,3
DA:695,3
LF:35
LH:34
end_of_record
TN:
SF:/usr/include/c++/14/compare
FNL:0,1224,1243
FNA:0,0,_ZNKSt8__detail10_Synth3wayclIiiEEDaRKT_RKT0_QrqXltfL0p_fL0p0_RNS_18__boolean_testableEXltfL0p0_fL0p_RNS_18__boolean_testableEE
FNA:0,7,_ZNKSt8__detail10_Synth3wayclIxxEEDaRKT_RKT0_QrqXltfL0p_fL0p0_RNS_18__boolean_testableEXltfL0p0_fL0p_RNS_18__boolean_testableEE
FNL:1,282,283
FNA:1,7,_ZSteqSt15strong_orderingNSt9__cmp_cat8__unspecE
FNL:2,296,297
FNA:2,7,_ZStgtSt15strong_orderingNSt9__cmp_cat8__unspecE
FNF:3
FNH:3
DA:282,7
DA:283,7
DA:296,7
DA:297,7
DA:1224,7
DA:1233,7
LF:6
LH:6
end_of_record
TN:
SF:/usr/include/c++/14/new
FNL:0,179,180
FNA:0,9,_ZnwmPv
FNF:1
FNH:1
DA:179,9
DA:180,9
LF:2
LH:2
end_of_record
TN:
SF:/usr/include/c++/14/type_traits
FNL:0,3832,3839
FNA:0,1,_ZSt21is_constant_evaluatedv
FNF:1
FNH:1
DA:3832,1
DA:3835,1
LF:2
LH:2
end_of_record
TN:
SF:/usr/include/c++/14/x86_64-redhat-linux/bits/c++config.h
FNF:0
FNH:0
DA:2394,11
LF:1
LH:1
end_of_record
