TN:
SF:/home/monika/Documents/problems/16945번： 매직 스퀘어로 변경하기/main.cpp
FNL:0,8,48
FNA:0,0,main
FNF:1
FNH:0
DA:8,0
DA:10,0
DA:11,0
DA:13,0
DA:15,0
DA:27,0
DA:29,0
DA:31,0
DA:33,0
DA:34,0
DA:36,0
DA:38,0
DA:42,0
DA:45,0
DA:47,0
DA:48,0
LF:16
LH:0
end_of_record
TN:
SF:/usr/include/c++/14/array
FNL:0,206,210
FNA:0,0,_ZNSt5arrayIS_IiLm3EELm3EEixEm
FNA:0,0,_ZNSt5arrayIiLm3EEixEm
FNF:1
FNH:0
DA:206,0
DA:209,0
LF:2
LH:0
end_of_record
TN:
SF:/usr/include/c++/14/bits/alloc_traits.h
FNF:0
FNH:0
DA:515,0
DA:550,0
DA:627,0
DA:993,0
DA:994,0
LF:5
LH:0
end_of_record
TN:
SF:/usr/include/c++/14/bits/allocator.h
FNF:0
FNH:0
DA:161,0
DA:166,0
DA:182,0
DA:189,0
DA:191,0
DA:192,0
DA:193,0
DA:196,0
DA:203,0
DA:205,0
DA:206,0
DA:208,0
LF:12
LH:0
end_of_record
TN:
SF:/usr/include/c++/14/bits/cpp_type_traits.h
FNL:0,608,609
FNA:0,0,_ZSt12__miter_baseIN9__gnu_cxx17__normal_iteratorIPKiSt6vectorIiSaIiEEEEET_S8_
FNA:0,0,_ZSt12__miter_baseIPKSt5arrayIS0_IiLm3EELm3EEET_S5_
FNF:1
FNH:0
DA:608,0
DA:609,0
LF:2
LH:0
end_of_record
TN:
SF:/usr/include/c++/14/bits/move.h
FNL:0,51,52
FNA:0,0,_ZSt11__addressofISt5arrayIS0_IiLm3EELm3EEEPT_RS3_
FNA:0,0,_ZSt11__addressofISt6vectorIiSaIiEEEPT_RS3_
FNA:0,0,_ZSt11__addressofIiEPT_RS0_
FNL:1,71,72
FNA:1,0,_ZSt7forwardIRKSt5arrayIS0_IiLm3EELm3EEEOT_RNSt16remove_referenceIS5_E4typeE
FNA:1,0,_ZSt7forwardIRKSt6vectorIiSaIiEEEOT_RNSt16remove_referenceIS5_E4typeE
FNA:1,0,_ZSt7forwardIRKiEOT_RNSt16remove_referenceIS2_E4typeE
FNF:2
FNH:0
DA:51,0
DA:52,0
DA:71,0
DA:72,0
LF:4
LH:0
end_of_record
TN:
SF:/usr/include/c++/14/bits/new_allocator.h
FNL:0,126,152
FNA:0,0,_ZNSt15__new_allocatorISt5arrayIS0_IiLm3EELm3EEE8allocateEmPKv
FNA:0,0,_ZNSt15__new_allocatorISt6vectorIiSaIiEEE8allocateEmPKv
FNA:0,0,_ZNSt15__new_allocatorIiE8allocateEmPKv
FNL:1,156,173
FNA:1,0,_ZNSt15__new_allocatorISt5arrayIS0_IiLm3EELm3EEE10deallocateEPS2_m
FNA:1,0,_ZNSt15__new_allocatorISt6vectorIiSaIiEEE10deallocateEPS2_m
FNA:1,0,_ZNSt15__new_allocatorIiE10deallocateEPim
FNF:2
FNH:0
DA:88,0
DA:92,0
DA:126,0
DA:134,0
DA:138,0
DA:139,0
DA:140,0
DA:151,0
DA:156,0
DA:172,0
DA:233,0
LF:11
LH:0
end_of_record
TN:
SF:/usr/include/c++/14/bits/stl_algobase.h
FNL:0,1040,1040
FNA:0,0,_ZSt17__size_to_integerm
FNL:1,1140,1153
FNA:1,0,_ZSt10__fill_n_aIPimiET_S1_T0_RKT1_St26random_access_iterator_tag
FNL:2,1175,1182
FNA:2,0,_ZSt6fill_nIPimiET_S1_T0_RKT1_
FNL:3,233,241
FNA:3,0,_ZSt3minIiERKT_S2_S2_
FNA:3,0,_ZSt3minImERKT_S2_S2_
FNL:4,316,318
FNA:4,0,_ZSt12__niter_baseIPKSt5arrayIS0_IiLm3EELm3EEET_S5_
FNA:4,0,_ZSt12__niter_baseIPSt5arrayIS0_IiLm3EELm3EEET_S4_
FNA:4,0,_ZSt12__niter_baseIPiET_S1_
FNL:5,353,354
FNA:5,0,_ZSt12__niter_wrapIPSt5arrayIS0_IiLm3EELm3EEET_RKS4_S4_
FNA:5,0,_ZSt12__niter_wrapIPiET_RKS1_S1_
FNL:6,398,408
FNA:6,0,_ZNSt11__copy_moveILb0ELb0ESt26random_access_iterator_tagE8__copy_mIPKSt5arrayIS3_IiLm3EELm3EEPS5_EET0_T_SA_S9_
FNA:6,0,_ZNSt11__copy_moveILb0ELb0ESt26random_access_iterator_tagE8__copy_mIPKiPiEET0_T_S7_S6_
FNL:7,412,413
FNA:7,0,_ZNSt11__copy_moveILb0ELb0ESt26random_access_iterator_tagE12__assign_oneISt5arrayIS3_IiLm3EELm3EEKS5_EEvPT_PT0_
FNA:7,0,_ZNSt11__copy_moveILb0ELb0ESt26random_access_iterator_tagE12__assign_oneIiKiEEvPT_PT0_
FNL:8,448,457
FNA:8,0,_ZNSt11__copy_moveILb0ELb1ESt26random_access_iterator_tagE8__copy_mIKSt5arrayIS3_IiLm3EELm3EES5_EEPT0_PT_SA_S8_
FNA:8,0,_ZNSt11__copy_moveILb0ELb1ESt26random_access_iterator_tagE8__copy_mIKiiEEPT0_PT_S7_S5_
FNL:9,512,522
FNA:9,0,_ZSt14__copy_move_a2ILb0EPKSt5arrayIS0_IiLm3EELm3EEPS2_ET1_T0_S7_S6_
FNA:9,0,_ZSt14__copy_move_a2ILb0EPKiPiET1_T0_S4_S3_
FNL:10,547,548
FNA:10,0,_ZSt14__copy_move_a1ILb0EPKSt5arrayIS0_IiLm3EELm3EEPS2_ET1_T0_S7_S6_
FNA:10,0,_ZSt14__copy_move_a1ILb0EPKiPiET1_T0_S4_S3_
FNL:11,553,559
FNA:11,0,_ZSt13__copy_move_aILb0EN9__gnu_cxx17__normal_iteratorIPKiSt6vectorIiSaIiEEEEPiET1_T0_SA_S9_
FNA:11,0,_ZSt13__copy_move_aILb0EPKSt5arrayIS0_IiLm3EELm3EEPS2_ET1_T0_S7_S6_
FNL:12,642,652
FNA:12,0,_ZSt4copyIN9__gnu_cxx17__normal_iteratorIPKiSt6vectorIiSaIiEEEEPiET0_T_SA_S9_
FNA:12,0,_ZSt4copyIPKSt5arrayIS0_IiLm3EELm3EEPS2_ET0_T_S7_S6_
FNL:13,947,953
FNA:13,0,_ZSt9__fill_a1IPiiEN9__gnu_cxx11__enable_ifIXsrSt11__is_scalarIT0_E7__valueEvE6__typeET_S8_RKS4_
FNL:14,997,998
FNA:14,0,_ZSt8__fill_aIPiiEvT_S1_RKT0_
FNF:15
FNH:0
DA:233,0
DA:238,0
DA:239,0
DA:240,0
DA:316,0
DA:318,0
DA:353,0
DA:354,0
DA:398,0
DA:401,0
DA:403,0
DA:404,0
DA:405,0
DA:407,0
DA:412,0
DA:413,0
DA:448,0
DA:450,0
DA:451,0
DA:452,0
DA:453,0
DA:455,0
DA:456,0
DA:512,0
DA:516,0
DA:518,0
DA:521,0
DA:547,0
DA:548,0
DA:553,0
DA:555,0
DA:558,0
DA:642,0
DA:651,0
DA:947,0
DA:950,0
DA:951,0
DA:952,0
DA:953,0
DA:997,0
DA:998,0
DA:1040,0
DA:1140,0
DA:1146,0
DA:1147,0
DA:1151,0
DA:1152,0
DA:1175,0
DA:1180,0
DA:1181,0
LF:50
LH:0
end_of_record
TN:
SF:/usr/include/c++/14/bits/stl_construct.h
FNL:0,109,120
FNA:0,0,_ZSt10_ConstructISt5arrayIS0_IiLm3EELm3EEJRKS2_EEvPT_DpOT0_
FNA:0,0,_ZSt10_ConstructISt6vectorIiSaIiEEJRKS2_EEvPT_DpOT0_
FNA:0,0,_ZSt10_ConstructIiJEEvPT_DpOT0_
FNA:0,0,_ZSt10_ConstructIiJRKiEEvPT_DpOT0_
FNL:1,146,153
FNA:1,0,_ZSt8_DestroyISt5arrayIS0_IiLm3EELm3EEEvPT_
FNA:1,0,_ZSt8_DestroyISt6vectorIiSaIiEEEvPT_
FNA:1,0,_ZSt8_DestroyIiEvPT_
FNL:2,160,164
FNA:2,0,_ZNSt12_Destroy_auxILb0EE9__destroyIPSt5arrayIS2_IiLm3EELm3EEEEvT_S6_
FNA:2,0,_ZNSt12_Destroy_auxILb0EE9__destroyIPSt6vectorIiSaIiEEEEvT_S6_
FNA:2,0,_ZNSt12_Destroy_auxILb0EE9__destroyIPiEEvT_S3_
FNL:3,172,172
FNA:3,0,_ZNSt12_Destroy_auxILb1EE9__destroyIPSt5arrayIS2_IiLm3EELm3EEEEvT_S6_
FNA:3,0,_ZNSt12_Destroy_auxILb1EE9__destroyIPiEEvT_S3_
FNL:4,182,197
FNA:4,0,_ZSt8_DestroyIPSt5arrayIS0_IiLm3EELm3EEEvT_S4_
FNA:4,0,_ZSt8_DestroyIPSt6vectorIiSaIiEEEvT_S4_
FNA:4,0,_ZSt8_DestroyIPiEvT_S1_
FNL:5,80,89
FNA:5,0,_ZSt10destroy_atISt5arrayIS0_IiLm3EELm3EEEvPT_
FNA:5,0,_ZSt10destroy_atISt6vectorIiSaIiEEEvPT_
FNA:5,0,_ZSt10destroy_atIiEvPT_
FNL:6,94,97
FNA:6,0,_ZSt12construct_atISt5arrayIS0_IiLm3EELm3EEJRKS2_EEDTgsnwcvPvLi0E_T_pispcl7declvalIT0_EEEEPS6_DpOS7_
FNA:6,0,_ZSt12construct_atISt6vectorIiSaIiEEJRKS2_EEDTgsnwcvPvLi0E_T_pispcl7declvalIT0_EEEEPS6_DpOS7_
FNA:6,0,_ZSt12construct_atIiJEEDTgsnwcvPvLi0E_T_pispcl7declvalIT0_EEEEPS1_DpOS2_
FNA:6,0,_ZSt12construct_atIiJRKiEEDTgsnwcvPvLi0E_T_pispcl7declvalIT0_EEEEPS3_DpOS4_
FNF:7
FNH:0
DA:80,0
DA:88,0
DA:89,0
DA:94,0
DA:97,0
DA:109,0
DA:112,0
DA:115,0
DA:116,0
DA:119,0
DA:146,0
DA:149,0
DA:153,0
DA:160,0
DA:162,0
DA:163,0
DA:164,0
DA:172,0
DA:182,0
DA:192,0
DA:193,0
DA:196,0
LF:22
LH:0
end_of_record
TN:
SF:/usr/include/c++/14/bits/stl_iterator.h
FNL:0,1067,1068
FNA:0,0,_ZN9__gnu_cxx17__normal_iteratorIPKiSt6vectorIiSaIiEEEC2ERKS2_
FNA:0,0,_ZN9__gnu_cxx17__normal_iteratorIPSt5arrayIS1_IiLm3EELm3EESt6vectorIS3_SaIS3_EEEC2ERKS4_
FNL:1,1090,1091
FNA:1,0,_ZNK9__gnu_cxx17__normal_iteratorIPKiSt6vectorIiSaIiEEEdeEv
FNA:1,0,_ZNK9__gnu_cxx17__normal_iteratorIPSt5arrayIS1_IiLm3EELm3EESt6vectorIS3_SaIS3_EEEdeEv
FNL:2,1100,1104
FNA:2,0,_ZN9__gnu_cxx17__normal_iteratorIPKiSt6vectorIiSaIiEEEppEv
FNA:2,0,_ZN9__gnu_cxx17__normal_iteratorIPSt5arrayIS1_IiLm3EELm3EESt6vectorIS3_SaIS3_EEEppEv
FNL:3,1153,1154
FNA:3,0,_ZNK9__gnu_cxx17__normal_iteratorIPKiSt6vectorIiSaIiEEE4baseEv
FNA:3,0,_ZNK9__gnu_cxx17__normal_iteratorIPSt5arrayIS1_IiLm3EELm3EESt6vectorIS3_SaIS3_EEE4baseEv
FNL:4,1188,1194
FNA:4,0,_ZN9__gnu_cxxeqIPKiSt6vectorIiSaIiEEEEbRKNS_17__normal_iteratorIT_T0_EESB_QrqXeqcldtfL0p_4baseEcldtfL0p0_4baseERSt14convertible_toIbEE
FNA:4,0,_ZN9__gnu_cxxeqIPSt5arrayIS1_IiLm3EELm3EESt6vectorIS3_SaIS3_EEEEbRKNS_17__normal_iteratorIT_T0_EESD_QrqXeqcldtfL0p_4baseEcldtfL0p0_4baseERSt14convertible_toIbEE
FNL:5,1348,1350
FNA:5,0,_ZSt12__niter_baseIPKiSt6vectorIiSaIiEEET_N9__gnu_cxx17__normal_iteratorIS5_T0_EE
FNF:6
FNH:0
DA:1067,0
DA:1068,0
DA:1090,0
DA:1091,0
DA:1100,0
DA:1102,0
DA:1103,0
DA:1153,0
DA:1154,0
DA:1188,0
DA:1194,0
DA:1348,0
DA:1350,0
LF:13
LH:0
end_of_record
TN:
SF:/usr/include/c++/14/bits/stl_iterator_base_funcs.h
FNF:0
FNH:0
DA:106,0
DA:151,0
DA:152,0
LF:3
LH:0
end_of_record
TN:
SF:/usr/include/c++/14/bits/stl_iterator_base_types.h
FNF:0
FNH:0
DA:240,0
LF:1
LH:0
end_of_record
TN:
SF:/usr/include/c++/14/bits/stl_uninitialized.h
FNL:0,113,128
FNA:0,0,_ZSt16__do_uninit_copyIN9__gnu_cxx17__normal_iteratorIPKiSt6vectorIiSaIiEEEEPiET0_T_SA_S9_
FNA:0,0,_ZSt16__do_uninit_copyIPKSt5arrayIS0_IiLm3EELm3EEPS2_ET0_T_S7_S6_
FNL:1,145,147
FNA:1,0,_ZNSt20__uninitialized_copyILb1EE13__uninit_copyIN9__gnu_cxx17__normal_iteratorIPKiSt6vectorIiSaIiEEEEPiEET0_T_SC_SB_
FNA:1,0,_ZNSt20__uninitialized_copyILb1EE13__uninit_copyIPKSt5arrayIS2_IiLm3EELm3EEPS4_EET0_T_S9_S8_
FNL:2,163,186
FNA:2,0,_ZSt18uninitialized_copyIN9__gnu_cxx17__normal_iteratorIPKiSt6vectorIiSaIiEEEEPiET0_T_SA_S9_
FNA:2,0,_ZSt18uninitialized_copyIPKSt5arrayIS0_IiLm3EELm3EEPS2_ET0_T_S7_S6_
FNL:3,261,275
FNA:3,0,_ZSt18__do_uninit_fill_nIPSt6vectorIiSaIiEEmS2_ET_S4_T0_RKT1_
FNL:4,282,284
FNA:4,0,_ZNSt22__uninitialized_fill_nILb0EE15__uninit_fill_nIPSt6vectorIiSaIiEEmS4_EET_S6_T0_RKT1_
FNL:5,312,328
FNA:5,0,_ZSt20uninitialized_fill_nIPSt6vectorIiSaIiEEmS2_ET_S4_T0_RKT1_
FNL:6,366,374
FNA:6,0,_ZSt22__uninitialized_copy_aIN9__gnu_cxx17__normal_iteratorIPKiSt6vectorIiSaIiEEEEPiiET0_T_SA_S9_RSaIT1_E
FNA:6,0,_ZSt22__uninitialized_copy_aIPKSt5arrayIS0_IiLm3EELm3EEPS2_S2_ET0_T_S7_S6_RSaIT1_E
FNL:7,465,473
FNA:7,0,_ZSt24__uninitialized_fill_n_aIPSt6vectorIiSaIiEEmS2_S2_ET_S4_T0_RKT1_RSaIT2_E
FNL:8,637,651
FNA:8,0,_ZNSt27__uninitialized_default_n_1ILb0EE18__uninit_default_nIPimEET_S3_T0_
FNL:9,660,671
FNA:9,0,_ZNSt27__uninitialized_default_n_1ILb1EE18__uninit_default_nIPimEET_S3_T0_
FNL:10,696,713
FNA:10,0,_ZSt25__uninitialized_default_nIPimET_S1_T0_
FNL:11,777,779
FNA:11,0,_ZSt27__uninitialized_default_n_aIPimiET_S1_T0_RSaIT1_E
FNF:12
FNH:0
DA:113,0
DA:116,0
DA:119,0
DA:120,0
DA:121,0
DA:145,0
DA:147,0
DA:163,0
DA:174,0
DA:181,0
DA:185,0
DA:261,0
DA:263,0
DA:266,0
DA:267,0
DA:268,0
DA:270,0
DA:272,0
DA:273,0
DA:282,0
DA:284,0
DA:312,0
DA:319,0
DA:327,0
DA:366,0
DA:370,0
DA:371,0
DA:373,0
DA:465,0
DA:469,0
DA:470,0
DA:472,0
DA:637,0
DA:639,0
DA:642,0
DA:643,0
DA:644,0
DA:660,0
DA:662,0
DA:665,0
DA:666,0
DA:667,0
DA:668,0
DA:670,0
DA:696,0
DA:699,0
DA:701,0
DA:707,0
DA:712,0
DA:777,0
DA:779,0
LF:51
LH:0
end_of_record
TN:
SF:/usr/include/c++/14/bits/stl_vector.h
FNL:0,1128,1132
FNA:0,0,_ZNSt6vectorIS_IiSaIiEESaIS1_EEixEm
FNA:0,0,_ZNSt6vectorIiSaIiEEixEm
FNL:1,145,147
FNA:1,0,_ZNSt12_Vector_baseISt5arrayIS0_IiLm3EELm3EESaIS2_EE12_Vector_implC2ERKS3_
FNA:1,0,_ZNSt12_Vector_baseISt6vectorIiSaIiEESaIS2_EE12_Vector_implC2ERKS3_
FNA:1,0,_ZNSt12_Vector_baseIiSaIiEE12_Vector_implC2ERKS0_
FNL:2,1689,1700
FNA:2,0,_ZNSt6vectorISt5arrayIS0_IiLm3EELm3EESaIS2_EE19_M_range_initializeIPKS2_EEvT_S8_St20forward_iterator_tag
FNL:3,1706,1711
FNA:3,0,_ZNSt6vectorIS_IiSaIiEESaIS1_EE18_M_fill_initializeEmRKS1_
FNL:4,1717,1722
FNA:4,0,_ZNSt6vectorIiSaIiEE21_M_default_initializeEm
FNL:5,1917,1923
FNA:5,0,_ZNSt6vectorIS_IiSaIiEESaIS1_EE17_S_check_init_lenEmRKS2_
FNA:5,0,_ZNSt6vectorISt5arrayIS0_IiLm3EELm3EESaIS2_EE17_S_check_init_lenEmRKS3_
FNA:5,0,_ZNSt6vectorIiSaIiEE17_S_check_init_lenEmRKS0_
FNL:6,1926,1935
FNA:6,0,_ZNSt6vectorIS_IiSaIiEESaIS1_EE11_S_max_sizeERKS2_
FNA:6,0,_ZNSt6vectorISt5arrayIS0_IiLm3EELm3EESaIS2_EE11_S_max_sizeERKS3_
FNA:6,0,_ZNSt6vectorIiSaIiEE11_S_max_sizeERKS0_
FNL:7,300,301
FNA:7,0,_ZNSt12_Vector_baseISt5arrayIS0_IiLm3EELm3EESaIS2_EE19_M_get_Tp_allocatorEv
FNA:7,0,_ZNSt12_Vector_baseISt6vectorIiSaIiEESaIS2_EE19_M_get_Tp_allocatorEv
FNA:7,0,_ZNSt12_Vector_baseIiSaIiEE19_M_get_Tp_allocatorEv
FNL:8,305,306
FNA:8,0,_ZNKSt12_Vector_baseIiSaIiEE19_M_get_Tp_allocatorEv
FNL:9,320,321
FNA:9,0,_ZNSt12_Vector_baseISt5arrayIS0_IiLm3EELm3EESaIS2_EEC2ERKS3_
FNL:10,332,334
FNA:10,0,_ZNSt12_Vector_baseISt6vectorIiSaIiEESaIS2_EEC2EmRKS3_
FNA:10,0,_ZNSt12_Vector_baseIiSaIiEEC2EmRKS0_
FNL:11,366,370
FNA:11,0,_ZNSt12_Vector_baseISt5arrayIS0_IiLm3EELm3EESaIS2_EED2Ev
FNA:11,0,_ZNSt12_Vector_baseISt6vectorIiSaIiEESaIS2_EED2Ev
FNA:11,0,_ZNSt12_Vector_baseIiSaIiEED2Ev
FNL:12,377,381
FNA:12,0,_ZNSt12_Vector_baseISt5arrayIS0_IiLm3EELm3EESaIS2_EE11_M_allocateEm
FNA:12,0,_ZNSt12_Vector_baseISt6vectorIiSaIiEESaIS2_EE11_M_allocateEm
FNA:12,0,_ZNSt12_Vector_baseIiSaIiEE11_M_allocateEm
FNL:13,385,390
FNA:13,0,_ZNSt12_Vector_baseISt5arrayIS0_IiLm3EELm3EESaIS2_EE13_M_deallocateEPS2_m
FNA:13,0,_ZNSt12_Vector_baseISt6vectorIiSaIiEESaIS2_EE13_M_deallocateEPS2_m
FNA:13,0,_ZNSt12_Vector_baseIiSaIiEE13_M_deallocateEPim
FNL:14,396,401
FNA:14,0,_ZNSt12_Vector_baseISt6vectorIiSaIiEESaIS2_EE17_M_create_storageEm
FNA:14,0,_ZNSt12_Vector_baseIiSaIiEE17_M_create_storageEm
FNL:15,556,558
FNA:15,0,_ZNSt6vectorIiSaIiEEC2EmRKS0_
FNL:16,569,572
FNA:16,0,_ZNSt6vectorIS_IiSaIiEESaIS1_EEC2EmRKS1_RKS2_
FNL:17,601,609
FNA:17,0,_ZNSt6vectorIiSaIiEEC2ERKS1_
FNL:18,678,684
FNA:18,0,_ZNSt6vectorISt5arrayIS0_IiLm3EELm3EESaIS2_EEC2ESt16initializer_listIS2_ERKS3_
FNL:19,733,738
FNA:19,0,_ZNSt6vectorIS_IiSaIiEESaIS1_EED2Ev
FNA:19,0,_ZNSt6vectorISt5arrayIS0_IiLm3EELm3EESaIS2_EED2Ev
FNA:19,0,_ZNSt6vectorIiSaIiEED2Ev
FNL:20,873,874
FNA:20,0,_ZNSt6vectorISt5arrayIS0_IiLm3EELm3EESaIS2_EE5beginEv
FNL:21,883,884
FNA:21,0,_ZNKSt6vectorIiSaIiEE5beginEv
FNL:22,893,894
FNA:22,0,_ZNSt6vectorISt5arrayIS0_IiLm3EELm3EESaIS2_EE3endEv
FNL:23,903,904
FNA:23,0,_ZNKSt6vectorIiSaIiEE3endEv
FNL:24,98,100
FNA:24,0,_ZNSt12_Vector_baseISt5arrayIS0_IiLm3EELm3EESaIS2_EE17_Vector_impl_dataC2Ev
FNA:24,0,_ZNSt12_Vector_baseISt6vectorIiSaIiEESaIS2_EE17_Vector_impl_dataC2Ev
FNA:24,0,_ZNSt12_Vector_baseIiSaIiEE17_Vector_impl_dataC2Ev
FNL:25,992,993
FNA:25,0,_ZNKSt6vectorIiSaIiEE4sizeEv
FNF:26
FNH:0
DA:98,0
DA:99,0
DA:100,0
DA:145,0
DA:146,0
DA:147,0
DA:300,0
DA:301,0
DA:305,0
DA:306,0
DA:320,0
DA:321,0
DA:332,0
DA:333,0
DA:334,0
DA:366,0
DA:368,0
DA:369,0
DA:370,0
DA:377,0
DA:380,0
DA:385,0
DA:388,0
DA:389,0
DA:390,0
DA:396,0
DA:398,0
DA:399,0
DA:400,0
DA:401,0
DA:556,0
DA:557,0
DA:558,0
DA:569,0
DA:571,0
DA:572,0
DA:601,0
DA:603,0
DA:605,0
DA:606,0
DA:608,0
DA:609,0
DA:678,0
DA:680,0
DA:682,0
DA:683,0
DA:684,0
DA:733,0
DA:735,0
DA:736,0
DA:738,0
DA:873,0
DA:874,0
DA:883,0
DA:884,0
DA:893,0
DA:894,0
DA:903,0
DA:904,0
DA:992,0
DA:993,0
DA:1128,0
DA:1131,0
DA:1689,0
DA:1692,0
DA:1694,0
DA:1695,0
DA:1696,0
DA:1697,0
DA:1699,0
DA:1700,0
DA:1706,0
DA:1708,0
DA:1709,0
DA:1710,0
DA:1711,0
DA:1717,0
DA:1719,0
DA:1720,0
DA:1721,0
DA:1722,0
DA:1917,0
DA:1919,0
DA:1920,0
DA:1922,0
DA:1926,0
DA:1931,0
DA:1933,0
DA:1934,0
LF:89
LH:0
end_of_record
TN:
SF:/usr/include/c++/14/ext/alloc_traits.h
FNF:0
FNH:0
DA:98,0
LF:1
LH:0
end_of_record
TN:
SF:/usr/include/c++/14/initializer_list
FNL:0,69,69
FNA:0,0,_ZNKSt16initializer_listISt5arrayIS0_IiLm3EELm3EEE4sizeEv
FNL:1,73,73
FNA:1,0,_ZNKSt16initializer_listISt5arrayIS0_IiLm3EELm3EEE5beginEv
FNL:2,77,77
FNA:2,0,_ZNKSt16initializer_listISt5arrayIS0_IiLm3EELm3EEE3endEv
FNF:3
FNH:0
DA:69,0
DA:73,0
DA:77,0
LF:3
LH:0
end_of_record
TN:
SF:/usr/include/c++/14/new
FNL:0,179,180
FNA:0,0,_ZnwmPv
FNL:1,185,185
FNA:1,0,_ZdlPvS_
FNF:2
FNH:0
DA:179,0
DA:180,0
DA:185,0
LF:3
LH:0
end_of_record
TN:
SF:/usr/include/c++/14/type_traits
FNL:0,3832,3839
FNA:0,0,_ZSt21is_constant_evaluatedv
FNF:1
FNH:0
DA:3832,0
DA:3835,0
LF:2
LH:0
end_of_record
TN:
SF:/usr/include/c++/14/x86_64-redhat-linux/bits/c++config.h
FNF:0
FNH:0
DA:2394,0
LF:1
LH:0
end_of_record
