TN:
SF:/home/monika/Documents/problems/21980번： 비슷한 번호판/main.cpp
FNL:0,16,19
FNA:0,0,_ZNK8PlateKeyeqERKS_
FNL:1,24,37
FNA:1,0,_ZNK12PlateKeyHashclERK8PlateKey
FNL:2,40,90
FNA:2,0,main
FNF:3
FNH:0
DA:16,0
DA:18,0
DA:24,0
DA:26,0
DA:29,0
DA:31,0
DA:34,0
DA:36,0
DA:40,0
DA:42,0
DA:43,0
DA:46,0
DA:48,0
DA:51,0
DA:53,0
DA:54,0
DA:56,0
DA:59,0
DA:61,0
DA:63,0
DA:64,0
DA:66,0
DA:67,0
DA:68,0
DA:70,0
DA:73,0
DA:76,0
DA:77,0
DA:79,0
DA:80,0
DA:82,0
DA:86,0
DA:87,0
DA:89,0
LF:34
LH:0
end_of_record
TN:
SF:/usr/include/c++/14/array
FNL:0,137,138
FNA:0,0,_ZNKSt5arrayIiLm26EE5beginEv
FNL:1,147,148
FNA:1,0,_ZNKSt5arrayIiLm26EE3endEv
FNL:2,206,210
FNA:2,0,_ZNSt5arrayIiLm26EEixEm
FNL:3,287,288
FNA:3,0,_ZNKSt5arrayIiLm26EE4dataEv
FNL:4,303,304
FNA:4,0,_ZSteqIiLm26EEbRKSt5arrayIT_XT0_EES4_
FNF:5
FNH:0
DA:137,0
DA:138,0
DA:147,0
DA:148,0
DA:206,0
DA:209,0
DA:287,0
DA:288,0
DA:303,0
DA:304,0
LF:10
LH:0
end_of_record
TN:
SF:/usr/include/c++/14/bits/alloc_traits.h
FNF:0
FNH:0
DA:515,0
DA:550,0
DA:577,0
DA:581,0
DA:599,0
DA:601,0
DA:993,0
DA:994,0
LF:8
LH:0
end_of_record
TN:
SF:/usr/include/c++/14/bits/allocator.h
FNF:0
FNH:0
DA:161,0
DA:166,0
DA:176,0
DA:182,0
DA:189,0
DA:191,0
DA:192,0
DA:193,0
DA:196,0
DA:203,0
DA:205,0
DA:206,0
DA:208,0
LF:13
LH:0
end_of_record
TN:
SF:/usr/include/c++/14/bits/basic_string.h
FNL:0,1076,1077
FNA:0,0,_ZNKSt7__cxx1112basic_stringIcSt11char_traitsIcESaIcEE4sizeEv
FNL:1,197,198
FNA:1,0,_ZNSt7__cxx1112basic_stringIcSt11char_traitsIcESaIcEE12_Alloc_hiderC2EPcOS3_
FNL:2,222,223
FNA:2,0,_ZNSt7__cxx1112basic_stringIcSt11char_traitsIcESaIcEE9_M_lengthEm
FNL:3,227,228
FNA:3,0,_ZNKSt7__cxx1112basic_stringIcSt11char_traitsIcESaIcEE7_M_dataEv
FNL:4,232,239
FNA:4,0,_ZNSt7__cxx1112basic_stringIcSt11char_traitsIcESaIcEE13_M_local_dataEv
FNL:5,243,250
FNA:5,0,_ZNKSt7__cxx1112basic_stringIcSt11char_traitsIcESaIcEE13_M_local_dataEv
FNL:6,259,263
FNA:6,0,_ZNSt7__cxx1112basic_stringIcSt11char_traitsIcESaIcEE13_M_set_lengthEm
FNL:7,267,276
FNA:7,0,_ZNKSt7__cxx1112basic_stringIcSt11char_traitsIcESaIcEE11_M_is_localEv
FNL:8,285,289
FNA:8,0,_ZNSt7__cxx1112basic_stringIcSt11char_traitsIcESaIcEE10_M_disposeEv
FNL:9,293,294
FNA:9,0,_ZNSt7__cxx1112basic_stringIcSt11char_traitsIcESaIcEE10_M_destroyEm
FNL:10,341,342
FNA:10,0,_ZNSt7__cxx1112basic_stringIcSt11char_traitsIcESaIcEE16_M_get_allocatorEv
FNL:11,527,533
FNA:11,0,_ZNSt7__cxx1112basic_stringIcSt11char_traitsIcESaIcEEC2Ev
FNL:12,808,809
FNA:12,0,_ZNSt7__cxx1112basic_stringIcSt11char_traitsIcESaIcEED2Ev
FNL:13,969,970
FNA:13,0,_ZNKSt7__cxx1112basic_stringIcSt11char_traitsIcESaIcEE5beginEv
FNL:14,987,988
FNA:14,0,_ZNKSt7__cxx1112basic_stringIcSt11char_traitsIcESaIcEE3endEv
FNF:15
FNH:0
DA:197,0
DA:198,0
DA:222,0
DA:223,0
DA:227,0
DA:228,0
DA:232,0
DA:235,0
DA:243,0
DA:246,0
DA:259,0
DA:261,0
DA:262,0
DA:263,0
DA:267,0
DA:269,0
DA:271,0
DA:272,0
DA:273,0
DA:275,0
DA:285,0
DA:287,0
DA:288,0
DA:289,0
DA:293,0
DA:294,0
DA:341,0
DA:342,0
DA:356,0
DA:357,0
DA:358,0
DA:360,0
DA:527,0
DA:529,0
DA:532,0
DA:533,0
DA:808,0
DA:809,0
DA:969,0
DA:970,0
DA:987,0
DA:988,0
DA:1076,0
DA:1077,0
LF:44
LH:0
end_of_record
TN:
SF:/usr/include/c++/14/bits/char_traits.h
FNL:0,343,351
FNA:0,0,_ZNSt11char_traitsIcE6assignERcRKc
FNF:1
FNH:0
DA:343,0
DA:346,0
DA:347,0
DA:350,0
DA:351,0
LF:5
LH:0
end_of_record
TN:
SF:/usr/include/c++/14/bits/functional_hash.h
FNL:0,154,154
FNA:0,0,_ZNKSt4hashIiEclEi
FNF:1
FNH:0
DA:154,0
LF:1
LH:0
end_of_record
TN:
SF:/usr/include/c++/14/bits/hashtable.h
FNL:0,1658,1673
FNA:0,0,_ZNSt10_HashtableI8PlateKeySt4pairIKS0_xESaIS3_ENSt8__detail10_Select1stESt8equal_toIS0_E12PlateKeyHashNS5_18_Mod_range_hashingENS5_20_Default_ranged_hashENS5_20_Prime_rehash_policyENS5_17_Hashtable_traitsILb1ELb0ELb1EEEED2Ev
FNL:1,2065,2087
FNA:1,0,_ZNKSt10_HashtableI8PlateKeySt4pairIKS0_xESaIS3_ENSt8__detail10_Select1stESt8equal_toIS0_E12PlateKeyHashNS5_18_Mod_range_hashingENS5_20_Default_ranged_hashENS5_20_Prime_rehash_policyENS5_17_Hashtable_traitsILb1ELb0ELb1EEEE19_M_find_before_nodeEmRS2_m
FNL:2,2228,2252
FNA:2,0,_ZNSt10_HashtableI8PlateKeySt4pairIKS0_xESaIS3_ENSt8__detail10_Select1stESt8equal_toIS0_E12PlateKeyHashNS5_18_Mod_range_hashingENS5_20_Default_ranged_hashENS5_20_Prime_rehash_policyENS5_17_Hashtable_traitsILb1ELb0ELb1EEEE21_M_insert_unique_nodeEmmPNS5_10_Hash_nodeIS3_Lb1EEEm
FNL:3,2584,2593
FNA:3,0,_ZNSt10_HashtableI8PlateKeySt4pairIKS0_xESaIS3_ENSt8__detail10_Select1stESt8equal_toIS0_E12PlateKeyHashNS5_18_Mod_range_hashingENS5_20_Default_ranged_hashENS5_20_Prime_rehash_policyENS5_17_Hashtable_traitsILb1ELb0ELb1EEEE5clearEv
FNL:4,2623,2657
FNA:4,0,_ZNSt10_HashtableI8PlateKeySt4pairIKS0_xESaIS3_ENSt8__detail10_Select1stESt8equal_toIS0_E12PlateKeyHashNS5_18_Mod_range_hashingENS5_20_Default_ranged_hashENS5_20_Prime_rehash_policyENS5_17_Hashtable_traitsILb1ELb0ELb1EEEE9_M_rehashEmSt17integral_constantIbLb1EE
FNL:5,310,313
FNA:5,0,_ZNSt10_HashtableI8PlateKeySt4pairIKS0_xESaIS3_ENSt8__detail10_Select1stESt8equal_toIS0_E12PlateKeyHashNS5_18_Mod_range_hashingENS5_20_Default_ranged_hashENS5_20_Prime_rehash_policyENS5_17_Hashtable_traitsILb1ELb0ELb1EEEE12_Scoped_nodeC2IJRKSt21piecewise_construct_tSt5tupleIJRS2_EESL_IJEEEEEPNS5_16_Hashtable_allocISaINS5_10_Hash_nodeIS3_Lb1EEEEEEDpOT_
FNL:6,316,316
FNA:6,0,_ZNSt10_HashtableI8PlateKeySt4pairIKS0_xESaIS3_ENSt8__detail10_Select1stESt8equal_toIS0_E12PlateKeyHashNS5_18_Mod_range_hashingENS5_20_Default_ranged_hashENS5_20_Prime_rehash_policyENS5_17_Hashtable_traitsILb1ELb0ELb1EEEE12_Scoped_nodeD2Ev
FNL:7,421,422
FNA:7,0,_ZNKSt10_HashtableI8PlateKeySt4pairIKS0_xESaIS3_ENSt8__detail10_Select1stESt8equal_toIS0_E12PlateKeyHashNS5_18_Mod_range_hashingENS5_20_Default_ranged_hashENS5_20_Prime_rehash_policyENS5_17_Hashtable_traitsILb1ELb0ELb1EEEE21_M_uses_single_bucketEPPNS5_15_Hash_node_baseE
FNL:8,439,448
FNA:8,0,_ZNSt10_HashtableI8PlateKeySt4pairIKS0_xESaIS3_ENSt8__detail10_Select1stESt8equal_toIS0_E12PlateKeyHashNS5_18_Mod_range_hashingENS5_20_Default_ranged_hashENS5_20_Prime_rehash_policyENS5_17_Hashtable_traitsILb1ELb0ELb1EEEE19_M_allocate_bucketsEm
FNL:9,451,457
FNA:9,0,_ZNSt10_HashtableI8PlateKeySt4pairIKS0_xESaIS3_ENSt8__detail10_Select1stESt8equal_toIS0_E12PlateKeyHashNS5_18_Mod_range_hashingENS5_20_Default_ranged_hashENS5_20_Prime_rehash_policyENS5_17_Hashtable_traitsILb1ELb0ELb1EEEE21_M_deallocate_bucketsEPPNS5_15_Hash_node_baseEm
FNL:10,460,461
FNA:10,0,_ZNSt10_HashtableI8PlateKeySt4pairIKS0_xESaIS3_ENSt8__detail10_Select1stESt8equal_toIS0_E12PlateKeyHashNS5_18_Mod_range_hashingENS5_20_Default_ranged_hashENS5_20_Prime_rehash_policyENS5_17_Hashtable_traitsILb1ELb0ELb1EEEE21_M_deallocate_bucketsEv
FNL:11,473,474
FNA:11,0,_ZNKSt10_HashtableI8PlateKeySt4pairIKS0_xESaIS3_ENSt8__detail10_Select1stESt8equal_toIS0_E12PlateKeyHashNS5_18_Mod_range_hashingENS5_20_Default_ranged_hashENS5_20_Prime_rehash_policyENS5_17_Hashtable_traitsILb1ELb0ELb1EEEE8_M_beginEv
FNL:12,539,539
FNA:12,0,_ZNSt10_HashtableI8PlateKeySt4pairIKS0_xESaIS3_ENSt8__detail10_Select1stESt8equal_toIS0_E12PlateKeyHashNS5_18_Mod_range_hashingENS5_20_Default_ranged_hashENS5_20_Prime_rehash_policyENS5_17_Hashtable_traitsILb1ELb0ELb1EEEEC2Ev
FNL:13,632,633
FNA:13,0,_ZNSt10_HashtableI8PlateKeySt4pairIKS0_xESaIS3_ENSt8__detail10_Select1stESt8equal_toIS0_E12PlateKeyHashNS5_18_Mod_range_hashingENS5_20_Default_ranged_hashENS5_20_Prime_rehash_policyENS5_17_Hashtable_traitsILb1ELb0ELb1EEEE5beginEv
FNL:14,640,641
FNA:14,0,_ZNSt10_HashtableI8PlateKeySt4pairIKS0_xESaIS3_ENSt8__detail10_Select1stESt8equal_toIS0_E12PlateKeyHashNS5_18_Mod_range_hashingENS5_20_Default_ranged_hashENS5_20_Prime_rehash_policyENS5_17_Hashtable_traitsILb1ELb0ELb1EEEE3endEv
FNL:15,799,800
FNA:15,0,_ZNKSt10_HashtableI8PlateKeySt4pairIKS0_xESaIS3_ENSt8__detail10_Select1stESt8equal_toIS0_E12PlateKeyHashNS5_18_Mod_range_hashingENS5_20_Default_ranged_hashENS5_20_Prime_rehash_policyENS5_17_Hashtable_traitsILb1ELb0ELb1EEEE15_M_bucket_indexERKNS5_16_Hash_node_valueIS3_Lb1EEE
FNL:16,803,804
FNA:16,0,_ZNKSt10_HashtableI8PlateKeySt4pairIKS0_xESaIS3_ENSt8__detail10_Select1stESt8equal_toIS0_E12PlateKeyHashNS5_18_Mod_range_hashingENS5_20_Default_ranged_hashENS5_20_Prime_rehash_policyENS5_17_Hashtable_traitsILb1ELb0ELb1EEEE15_M_bucket_indexEm
FNL:17,819,826
FNA:17,0,_ZNKSt10_HashtableI8PlateKeySt4pairIKS0_xESaIS3_ENSt8__detail10_Select1stESt8equal_toIS0_E12PlateKeyHashNS5_18_Mod_range_hashingENS5_20_Default_ranged_hashENS5_20_Prime_rehash_policyENS5_17_Hashtable_traitsILb1ELb0ELb1EEEE12_M_find_nodeEmRS2_m
FNL:18,841,865
FNA:18,0,_ZNSt10_HashtableI8PlateKeySt4pairIKS0_xESaIS3_ENSt8__detail10_Select1stESt8equal_toIS0_E12PlateKeyHashNS5_18_Mod_range_hashingENS5_20_Default_ranged_hashENS5_20_Prime_rehash_policyENS5_17_Hashtable_traitsILb1ELb0ELb1EEEE22_M_insert_bucket_beginEmPNS5_10_Hash_nodeIS3_Lb1EEE
FNF:19
FNH:0
DA:310,0
DA:311,0
DA:312,0
DA:313,0
DA:316,0
DA:421,0
DA:422,0
DA:439,0
DA:441,0
DA:443,0
DA:444,0
DA:447,0
DA:451,0
DA:453,0
DA:454,0
DA:456,0
DA:460,0
DA:461,0
DA:473,0
DA:474,0
DA:539,0
DA:632,0
DA:633,0
DA:640,0
DA:641,0
DA:799,0
DA:800,0
DA:803,0
DA:804,0
DA:819,0
DA:822,0
DA:823,0
DA:824,0
DA:825,0
DA:841,0
DA:843,0
DA:847,0
DA:848,0
DA:855,0
DA:856,0
DA:858,0
DA:861,0
DA:863,0
DA:865,0
DA:1658,0
DA:1671,0
DA:1672,0
DA:1673,0
DA:2065,0
DA:2071,0
DA:2072,0
DA:2073,0
DA:2075,0
DA:2076,0
DA:2078,0
DA:2079,0
DA:2081,0
DA:2082,0
DA:2083,0
DA:2086,0
DA:2228,0
DA:2234,0
DA:2236,0
DA:2239,0
DA:2241,0
DA:2242,0
DA:2245,0
DA:2246,0
DA:2249,0
DA:2250,0
DA:2251,0
DA:2252,0
DA:2584,0
DA:2588,0
DA:2589,0
DA:2590,0
DA:2591,0
DA:2592,0
DA:2593,0
DA:2623,0
DA:2627,0
DA:2628,0
DA:2629,0
DA:2630,0
DA:2631,0
DA:2633,0
DA:2635,0
DA:2636,0
DA:2638,0
DA:2639,0
DA:2640,0
DA:2641,0
DA:2642,0
DA:2643,0
DA:2647,0
DA:2648,0
DA:2651,0
DA:2654,0
DA:2655,0
DA:2656,0
DA:2657,0
LF:101
LH:0
end_of_record
TN:
SF:/usr/include/c++/14/bits/hashtable_policy.h
FNL:0,112,113
FNA:0,0,_ZNKSt8__detail10_Select1stclIRKSt4pairIK8PlateKeyxEEEONS0_10__1st_typeIT_E4typeEOS9_
FNL:1,1245,1245
FNA:1,0,_ZNSt8__detail21_Hashtable_ebo_helperILi0ESaINS_10_Hash_nodeISt4pairIK8PlateKeyxELb1EEEELb1EEC2Ev
FNA:1,0,_ZNSt8__detail21_Hashtable_ebo_helperILi0ESt8equal_toI8PlateKeyELb1EEC2Ev
FNA:1,0,_ZNSt8__detail21_Hashtable_ebo_helperILi1E12PlateKeyHashLb1EEC2Ev
FNL:2,1252,1252
FNA:2,0,_ZNKSt8__detail21_Hashtable_ebo_helperILi0ESt8equal_toI8PlateKeyELb1EE7_M_cgetEv
FNA:2,0,_ZNKSt8__detail21_Hashtable_ebo_helperILi1E12PlateKeyHashLb1EE7_M_cgetEv
FNL:3,1253,1253
FNA:3,0,_ZNSt8__detail21_Hashtable_ebo_helperILi0ESaINS_10_Hash_nodeISt4pairIK8PlateKeyxELb1EEEELb1EE6_M_getEv
FNL:4,1328,1328
FNA:4,0,_ZNSt8__detail15_Hash_code_baseI8PlateKeySt4pairIKS1_xENS_10_Select1stE12PlateKeyHashNS_18_Mod_range_hashingENS_20_Default_ranged_hashELb1EEC2Ev
FNL:5,1333,1338
FNA:5,0,_ZNKSt8__detail15_Hash_code_baseI8PlateKeySt4pairIKS1_xENS_10_Select1stE12PlateKeyHashNS_18_Mod_range_hashingENS_20_Default_ranged_hashELb1EE12_M_hash_codeERS3_
FNL:6,1358,1359
FNA:6,0,_ZNKSt8__detail15_Hash_code_baseI8PlateKeySt4pairIKS1_xENS_10_Select1stE12PlateKeyHashNS_18_Mod_range_hashingENS_20_Default_ranged_hashELb1EE15_M_bucket_indexEmm
FNL:7,1373,1377
FNA:7,0,_ZNKSt8__detail15_Hash_code_baseI8PlateKeySt4pairIKS1_xENS_10_Select1stE12PlateKeyHashNS_18_Mod_range_hashingENS_20_Default_ranged_hashELb1EE15_M_bucket_indexERKNS_16_Hash_node_valueIS4_Lb1EEEm
FNL:8,1389,1390
FNA:8,0,_ZNKSt8__detail15_Hash_code_baseI8PlateKeySt4pairIKS1_xENS_10_Select1stE12PlateKeyHashNS_18_Mod_range_hashingENS_20_Default_ranged_hashELb1EE13_M_store_codeERNS_21_Hash_node_code_cacheILb1EEEm
FNL:9,1402,1402
FNA:9,0,_ZNKSt8__detail15_Hash_code_baseI8PlateKeySt4pairIKS1_xENS_10_Select1stE12PlateKeyHashNS_18_Mod_range_hashingENS_20_Default_ranged_hashELb1EE7_M_hashEv
FNL:10,1719,1720
FNA:10,0,_ZNSt8__detail15_Hashtable_baseI8PlateKeySt4pairIKS1_xENS_10_Select1stESt8equal_toIS1_E12PlateKeyHashNS_18_Mod_range_hashingENS_20_Default_ranged_hashENS_17_Hashtable_traitsILb1ELb0ELb1EEEE9_S_equalsEmRKNS_21_Hash_node_code_cacheILb1EEE
FNL:11,1728,1728
FNA:11,0,_ZNSt8__detail15_Hashtable_baseI8PlateKeySt4pairIKS1_xENS_10_Select1stESt8equal_toIS1_E12PlateKeyHashNS_18_Mod_range_hashingENS_20_Default_ranged_hashENS_17_Hashtable_traitsILb1ELb0ELb1EEEEC2Ev
FNL:12,1735,1743
FNA:12,0,_ZNKSt8__detail15_Hashtable_baseI8PlateKeySt4pairIKS1_xENS_10_Select1stESt8equal_toIS1_E12PlateKeyHashNS_18_Mod_range_hashingENS_20_Default_ranged_hashENS_17_Hashtable_traitsILb1ELb0ELb1EEEE13_M_key_equalsERS3_RKNS_16_Hash_node_valueIS4_Lb1EEE
FNL:13,1759,1761
FNA:13,0,_ZNKSt8__detail15_Hashtable_baseI8PlateKeySt4pairIKS1_xENS_10_Select1stESt8equal_toIS1_E12PlateKeyHashNS_18_Mod_range_hashingENS_20_Default_ranged_hashENS_17_Hashtable_traitsILb1ELb0ELb1EEEE9_M_equalsERS3_mRKNS_16_Hash_node_valueIS4_Lb1EEE
FNL:14,1787,1787
FNA:14,0,_ZNKSt8__detail15_Hashtable_baseI8PlateKeySt4pairIKS1_xENS_10_Select1stESt8equal_toIS1_E12PlateKeyHashNS_18_Mod_range_hashingENS_20_Default_ranged_hashENS_17_Hashtable_traitsILb1ELb0ELb1EEEE5_M_eqEv
FNL:15,1970,1970
FNA:15,0,_ZNSt8__detail16_Hashtable_allocISaINS_10_Hash_nodeISt4pairIK8PlateKeyxELb1EEEEEC2Ev
FNL:16,1980,1981
FNA:16,0,_ZNSt8__detail16_Hashtable_allocISaINS_10_Hash_nodeISt4pairIK8PlateKeyxELb1EEEEE17_M_node_allocatorEv
FNL:17,2017,2036
FNA:17,0,_ZNSt8__detail16_Hashtable_allocISaINS_10_Hash_nodeISt4pairIK8PlateKeyxELb1EEEEE16_M_allocate_nodeIJRKSt21piecewise_construct_tSt5tupleIJRS4_EESD_IJEEEEEPS6_DpOT_
FNL:18,2040,2044
FNA:18,0,_ZNSt8__detail16_Hashtable_allocISaINS_10_Hash_nodeISt4pairIK8PlateKeyxELb1EEEEE18_M_deallocate_nodeEPS6_
FNL:19,2048,2054
FNA:19,0,_ZNSt8__detail16_Hashtable_allocISaINS_10_Hash_nodeISt4pairIK8PlateKeyxELb1EEEEE22_M_deallocate_node_ptrEPS6_
FNL:20,2058,2066
FNA:20,0,_ZNSt8__detail16_Hashtable_allocISaINS_10_Hash_nodeISt4pairIK8PlateKeyxELb1EEEEE19_M_deallocate_nodesEPS6_
FNL:21,2070,2079
FNA:21,0,_ZNSt8__detail16_Hashtable_allocISaINS_10_Hash_nodeISt4pairIK8PlateKeyxELb1EEEEE19_M_allocate_bucketsEm
FNL:22,2083,2091
FNA:22,0,_ZNSt8__detail16_Hashtable_allocISaINS_10_Hash_nodeISt4pairIK8PlateKeyxELb1EEEEE21_M_deallocate_bucketsEPPNS_15_Hash_node_baseEm
FNL:23,319,319
FNA:23,0,_ZNSt8__detail15_Hash_node_baseC2Ev
FNL:24,386,387
FNA:24,0,_ZNKSt8__detail10_Hash_nodeISt4pairIK8PlateKeyxELb1EE7_M_nextEv
FNL:25,399,400
FNA:25,0,_ZNSt8__detail19_Node_iterator_baseISt4pairIK8PlateKeyxELb1EEC2EPNS_10_Hash_nodeIS4_Lb1EEE
FNL:26,403,404
FNA:26,0,_ZNSt8__detail19_Node_iterator_baseISt4pairIK8PlateKeyxELb1EE7_M_incrEv
FNL:27,407,409
FNA:27,0,_ZNSt8__detaileqERKNS_19_Node_iterator_baseISt4pairIK8PlateKeyxELb1EEES7_
FNL:28,442,443
FNA:28,0,_ZNSt8__detail14_Node_iteratorISt4pairIK8PlateKeyxELb0ELb1EEC2EPNS_10_Hash_nodeIS4_Lb1EEE
FNL:29,446,447
FNA:29,0,_ZNKSt8__detail14_Node_iteratorISt4pairIK8PlateKeyxELb0ELb1EEdeEv
FNL:30,450,451
FNA:30,0,_ZNKSt8__detail14_Node_iteratorISt4pairIK8PlateKeyxELb0ELb1EEptEv
FNL:31,454,458
FNA:31,0,_ZNSt8__detail14_Node_iteratorISt4pairIK8PlateKeyxELb0ELb1EEppEv
FNL:32,532,534
FNA:32,0,_ZNKSt8__detail18_Mod_range_hashingclEmm
FNL:33,550,551
FNA:33,0,_ZNSt8__detail20_Prime_rehash_policyC2Ef
FNL:34,577,578
FNA:34,0,_ZNKSt8__detail20_Prime_rehash_policy8_M_stateEv
FNL:35,585,586
FNA:35,0,_ZNSt8__detail20_Prime_rehash_policy8_M_resetEm
FNL:36,730,733
FNA:36,0,_ZNSt8__detail17_RehashStateGuardINS_20_Prime_rehash_policyEEC2ERS1_
FNL:37,736,740
FNA:37,0,_ZNSt8__detail17_RehashStateGuardINS_20_Prime_rehash_policyEED2Ev
FNL:38,832,853
FNA:38,0,_ZNSt8__detail9_Map_baseI8PlateKeySt4pairIKS1_xESaIS4_ENS_10_Select1stESt8equal_toIS1_E12PlateKeyHashNS_18_Mod_range_hashingENS_20_Default_ranged_hashENS_20_Prime_rehash_policyENS_17_Hashtable_traitsILb1ELb0ELb1EEELb1EEixERS3_
FNF:39
FNH:0
DA:112,0
DA:113,0
DA:319,0
DA:339,0
DA:344,0
DA:349,0
DA:354,0
DA:386,0
DA:387,0
DA:399,0
DA:400,0
DA:403,0
DA:404,0
DA:407,0
DA:409,0
DA:442,0
DA:443,0
DA:446,0
DA:447,0
DA:450,0
DA:451,0
DA:454,0
DA:456,0
DA:457,0
DA:532,0
DA:534,0
DA:550,0
DA:551,0
DA:577,0
DA:578,0
DA:585,0
DA:586,0
DA:730,0
DA:731,0
DA:732,0
DA:733,0
DA:736,0
DA:738,0
DA:739,0
DA:740,0
DA:832,0
DA:837,0
DA:838,0
DA:839,0
DA:840,0
DA:841,0
DA:843,0
DA:846,0
DA:847,0
DA:850,0
DA:851,0
DA:852,0
DA:853,0
DA:1245,0
DA:1252,0
DA:1253,0
DA:1328,0
DA:1333,0
DA:1337,0
DA:1358,0
DA:1359,0
DA:1373,0
DA:1377,0
DA:1389,0
DA:1390,0
DA:1402,0
DA:1719,0
DA:1720,0
DA:1728,0
DA:1735,0
DA:1742,0
DA:1759,0
DA:1761,0
DA:1787,0
DA:1970,0
DA:1980,0
DA:1981,0
DA:2017,0
DA:2020,0
DA:2021,0
DA:2022,0
DA:2025,0
DA:2026,0
DA:2028,0
DA:2030,0
DA:2032,0
DA:2034,0
DA:2040,0
DA:2042,0
DA:2043,0
DA:2044,0
DA:2048,0
DA:2051,0
DA:2052,0
DA:2053,0
DA:2054,0
DA:2058,0
DA:2060,0
DA:2062,0
DA:2063,0
DA:2064,0
DA:2066,0
DA:2070,0
DA:2073,0
DA:2075,0
DA:2076,0
DA:2077,0
DA:2078,0
DA:2083,0
DA:2088,0
DA:2089,0
DA:2091,0
LF:112
LH:0
end_of_record
TN:
SF:/usr/include/c++/14/bits/move.h
FNL:0,137,138
FNA:0,0,_ZSt4moveIRSaIcEEONSt16remove_referenceIT_E4typeEOS3_
FNL:1,175,176
FNA:1,0,_ZSt9addressofIKcEPT_RS1_
FNA:1,0,_ZSt9addressofINSt8__detail10_Hash_nodeISt4pairIK8PlateKeyxELb1EEEEPT_RS7_
FNA:1,0,_ZSt9addressofIPNSt8__detail15_Hash_node_baseEEPT_RS3_
FNA:1,0,_ZSt9addressofIcEPT_RS0_
FNL:2,51,52
FNA:2,0,_ZSt11__addressofIKcEPT_RS1_
FNA:2,0,_ZSt11__addressofINSt7__cxx1112basic_stringIcSt11char_traitsIcESaIcEEEEPT_RS6_
FNA:2,0,_ZSt11__addressofINSt8__detail10_Hash_nodeISt4pairIK8PlateKeyxELb1EEEEPT_RS7_
FNA:2,0,_ZSt11__addressofINSt8__detail20_Prime_rehash_policyEEPT_RS2_
FNA:2,0,_ZSt11__addressofIPNSt8__detail15_Hash_node_baseEEPT_RS3_
FNA:2,0,_ZSt11__addressofIcEPT_RS0_
FNL:3,71,72
FNA:3,0,_ZSt7forwardIRK8PlateKeyEOT_RNSt16remove_referenceIS3_E4typeE
FNA:3,0,_ZSt7forwardIRKSt21piecewise_construct_tEOT_RNSt16remove_referenceIS3_E4typeE
FNA:3,0,_ZSt7forwardIRKSt4pairIK8PlateKeyxEEOT_RNSt16remove_referenceIS6_E4typeE
FNA:3,0,_ZSt7forwardIRKcEOT_RNSt16remove_referenceIS2_E4typeE
FNA:3,0,_ZSt7forwardISt5tupleIJEEEOT_RNSt16remove_referenceIS2_E4typeE
FNA:3,0,_ZSt7forwardISt5tupleIJRK8PlateKeyEEEOT_RNSt16remove_referenceIS5_E4typeE
FNF:4
FNH:0
DA:51,0
DA:52,0
DA:71,0
DA:72,0
DA:137,0
DA:138,0
DA:175,0
DA:176,0
LF:8
LH:0
end_of_record
TN:
SF:/usr/include/c++/14/bits/new_allocator.h
FNL:0,126,152
FNA:0,0,_ZNSt15__new_allocatorINSt7__cxx1112basic_stringIcSt11char_traitsIcESaIcEEEE8allocateEmPKv
FNA:0,0,_ZNSt15__new_allocatorINSt8__detail10_Hash_nodeISt4pairIK8PlateKeyxELb1EEEE8allocateEmPKv
FNA:0,0,_ZNSt15__new_allocatorIPNSt8__detail15_Hash_node_baseEE8allocateEmPKv
FNL:1,156,173
FNA:1,0,_ZNSt15__new_allocatorINSt7__cxx1112basic_stringIcSt11char_traitsIcESaIcEEEE10deallocateEPS5_m
FNA:1,0,_ZNSt15__new_allocatorINSt8__detail10_Hash_nodeISt4pairIK8PlateKeyxELb1EEEE10deallocateEPS6_m
FNA:1,0,_ZNSt15__new_allocatorIPNSt8__detail15_Hash_node_baseEE10deallocateEPS2_m
FNA:1,0,_ZNSt15__new_allocatorIcE10deallocateEPcm
FNF:2
FNH:0
DA:88,0
DA:92,0
DA:126,0
DA:134,0
DA:138,0
DA:139,0
DA:140,0
DA:151,0
DA:156,0
DA:172,0
DA:233,0
LF:11
LH:0
end_of_record
TN:
SF:/usr/include/c++/14/bits/ptr_traits.h
FNL:0,134,135
FNA:0,0,_ZNSt19__ptr_traits_ptr_toIPKcS0_Lb0EE10pointer_toERS0_
FNA:0,0,_ZNSt19__ptr_traits_ptr_toIPNSt8__detail10_Hash_nodeISt4pairIK8PlateKeyxELb1EEES6_Lb0EE10pointer_toERS6_
FNA:0,0,_ZNSt19__ptr_traits_ptr_toIPPNSt8__detail15_Hash_node_baseES2_Lb0EE10pointer_toERS2_
FNA:0,0,_ZNSt19__ptr_traits_ptr_toIPccLb0EE10pointer_toERc
FNL:1,205,209
FNA:1,0,_ZSt12__to_addressINSt8__detail10_Hash_nodeISt4pairIK8PlateKeyxELb1EEEEPT_S8_
FNA:1,0,_ZSt12__to_addressIPNSt8__detail15_Hash_node_baseEEPT_S4_
FNF:2
FNH:0
DA:134,0
DA:135,0
DA:205,0
DA:208,0
LF:4
LH:0
end_of_record
TN:
SF:/usr/include/c++/14/bits/stl_algobase.h
FNL:0,1205,1210
FNA:0,0,_ZNSt7__equalILb1EE5equalIiEEbPKT_S4_S4_
FNL:1,1236,1243
FNA:1,0,_ZSt12__equal_aux1IPKiS1_EbT_S2_T0_
FNL:2,233,241
FNA:2,0,_ZSt3minImERKT_S2_S2_
FNL:3,93,109
FNA:3,0,_ZSt8__memcmpIiiEiPKT_PKT0_m
FNF:4
FNH:0
DA:93,0
DA:99,0
DA:101,0
DA:102,0
DA:103,0
DA:104,0
DA:108,0
DA:233,0
DA:238,0
DA:239,0
DA:240,0
DA:1205,0
DA:1207,0
DA:1208,0
DA:1209,0
DA:1236,0
DA:1239,0
DA:1242,0
LF:18
LH:0
end_of_record
TN:
SF:/usr/include/c++/14/bits/stl_construct.h
FNL:0,109,120
FNA:0,0,_ZSt10_ConstructINSt7__cxx1112basic_stringIcSt11char_traitsIcESaIcEEEJEEvPT_DpOT0_
FNL:1,146,153
FNA:1,0,_ZSt8_DestroyINSt7__cxx1112basic_stringIcSt11char_traitsIcESaIcEEEEvPT_
FNL:2,160,164
FNA:2,0,_ZNSt12_Destroy_auxILb0EE9__destroyIPNSt7__cxx1112basic_stringIcSt11char_traitsIcESaIcEEEEEvT_S9_
FNL:3,182,197
FNA:3,0,_ZSt8_DestroyIPNSt7__cxx1112basic_stringIcSt11char_traitsIcESaIcEEEEvT_S7_
FNL:4,80,89
FNA:4,0,_ZSt10destroy_atINSt7__cxx1112basic_stringIcSt11char_traitsIcESaIcEEEEvPT_
FNA:4,0,_ZSt10destroy_atISt4pairIK8PlateKeyxEEvPT_
FNL:5,94,97
FNA:5,0,_ZSt12construct_atINSt7__cxx1112basic_stringIcSt11char_traitsIcESaIcEEEJEEDTgsnwcvPvLi0E_T_pispcl7declvalIT0_EEEEPS7_DpOS8_
FNA:5,0,_ZSt12construct_atISt4pairIK8PlateKeyxEJRKSt21piecewise_construct_tSt5tupleIJRS2_EES7_IJEEEEDTgsnwcvPvLi0E_T_pispcl7declvalIT0_EEEEPSC_DpOSD_
FNA:5,0,_ZSt12construct_atIcJRKcEEDTgsnwcvPvLi0E_T_pispcl7declvalIT0_EEEEPS3_DpOS4_
FNF:6
FNH:0
DA:80,0
DA:88,0
DA:89,0
DA:94,0
DA:97,0
DA:109,0
DA:112,0
DA:115,0
DA:116,0
DA:119,0
DA:146,0
DA:149,0
DA:153,0
DA:160,0
DA:162,0
DA:163,0
DA:164,0
DA:182,0
DA:192,0
DA:193,0
DA:196,0
LF:21
LH:0
end_of_record
TN:
SF:/usr/include/c++/14/bits/stl_function.h
FNL:0,374,375
FNA:0,0,_ZNKSt8equal_toI8PlateKeyEclERKS0_S3_
FNF:1
FNH:0
DA:374,0
DA:375,0
LF:2
LH:0
end_of_record
TN:
SF:/usr/include/c++/14/bits/stl_iterator.h
FNL:0,1067,1068
FNA:0,0,_ZN9__gnu_cxx17__normal_iteratorIPKcNSt7__cxx1112basic_stringIcSt11char_traitsIcESaIcEEEEC2ERKS2_
FNA:0,0,_ZN9__gnu_cxx17__normal_iteratorIPNSt7__cxx1112basic_stringIcSt11char_traitsIcESaIcEEESt6vectorIS6_SaIS6_EEEC2ERKS7_
FNL:1,1090,1091
FNA:1,0,_ZNK9__gnu_cxx17__normal_iteratorIPKcNSt7__cxx1112basic_stringIcSt11char_traitsIcESaIcEEEEdeEv
FNA:1,0,_ZNK9__gnu_cxx17__normal_iteratorIPNSt7__cxx1112basic_stringIcSt11char_traitsIcESaIcEEESt6vectorIS6_SaIS6_EEEdeEv
FNL:2,1100,1104
FNA:2,0,_ZN9__gnu_cxx17__normal_iteratorIPKcNSt7__cxx1112basic_stringIcSt11char_traitsIcESaIcEEEEppEv
FNA:2,0,_ZN9__gnu_cxx17__normal_iteratorIPNSt7__cxx1112basic_stringIcSt11char_traitsIcESaIcEEESt6vectorIS6_SaIS6_EEEppEv
FNL:3,1153,1154
FNA:3,0,_ZNK9__gnu_cxx17__normal_iteratorIPKcNSt7__cxx1112basic_stringIcSt11char_traitsIcESaIcEEEE4baseEv
FNA:3,0,_ZNK9__gnu_cxx17__normal_iteratorIPNSt7__cxx1112basic_stringIcSt11char_traitsIcESaIcEEESt6vectorIS6_SaIS6_EEE4baseEv
FNL:4,1188,1194
FNA:4,0,_ZN9__gnu_cxxeqIPKcNSt7__cxx1112basic_stringIcSt11char_traitsIcESaIcEEEEEbRKNS_17__normal_iteratorIT_T0_EESE_QrqXeqcldtfL0p_4baseEcldtfL0p0_4baseERSt14convertible_toIbEE
FNA:4,0,_ZN9__gnu_cxxeqIPNSt7__cxx1112basic_stringIcSt11char_traitsIcESaIcEEESt6vectorIS6_SaIS6_EEEEbRKNS_17__normal_iteratorIT_T0_EESG_QrqXeqcldtfL0p_4baseEcldtfL0p0_4baseERSt14convertible_toIbEE
FNF:5
FNH:0
DA:1067,0
DA:1068,0
DA:1090,0
DA:1091,0
DA:1100,0
DA:1102,0
DA:1103,0
DA:1153,0
DA:1154,0
DA:1188,0
DA:1194,0
LF:11
LH:0
end_of_record
TN:
SF:/usr/include/c++/14/bits/stl_uninitialized.h
FNL:0,637,651
FNA:0,0,_ZNSt27__uninitialized_default_n_1ILb0EE18__uninit_default_nIPNSt7__cxx1112basic_stringIcSt11char_traitsIcESaIcEEEmEET_S9_T0_
FNL:1,696,713
FNA:1,0,_ZSt25__uninitialized_default_nIPNSt7__cxx1112basic_stringIcSt11char_traitsIcESaIcEEEmET_S7_T0_
FNL:2,777,779
FNA:2,0,_ZSt27__uninitialized_default_n_aIPNSt7__cxx1112basic_stringIcSt11char_traitsIcESaIcEEEmS5_ET_S7_T0_RSaIT1_E
FNF:3
FNH:0
DA:637,0
DA:639,0
DA:642,0
DA:643,0
DA:644,0
DA:696,0
DA:699,0
DA:701,0
DA:707,0
DA:712,0
DA:777,0
DA:779,0
LF:12
LH:0
end_of_record
TN:
SF:/usr/include/c++/14/bits/stl_vector.h
FNL:0,1128,1132
FNA:0,0,_ZNSt6vectorINSt7__cxx1112basic_stringIcSt11char_traitsIcESaIcEEESaIS5_EEixEm
FNL:1,145,147
FNA:1,0,_ZNSt12_Vector_baseINSt7__cxx1112basic_stringIcSt11char_traitsIcESaIcEEESaIS5_EE12_Vector_implC2ERKS6_
FNL:2,1717,1722
FNA:2,0,_ZNSt6vectorINSt7__cxx1112basic_stringIcSt11char_traitsIcESaIcEEESaIS5_EE21_M_default_initializeEm
FNL:3,1917,1923
FNA:3,0,_ZNSt6vectorINSt7__cxx1112basic_stringIcSt11char_traitsIcESaIcEEESaIS5_EE17_S_check_init_lenEmRKS6_
FNL:4,1926,1935
FNA:4,0,_ZNSt6vectorINSt7__cxx1112basic_stringIcSt11char_traitsIcESaIcEEESaIS5_EE11_S_max_sizeERKS6_
FNL:5,300,301
FNA:5,0,_ZNSt12_Vector_baseINSt7__cxx1112basic_stringIcSt11char_traitsIcESaIcEEESaIS5_EE19_M_get_Tp_allocatorEv
FNL:6,332,334
FNA:6,0,_ZNSt12_Vector_baseINSt7__cxx1112basic_stringIcSt11char_traitsIcESaIcEEESaIS5_EEC2EmRKS6_
FNL:7,366,370
FNA:7,0,_ZNSt12_Vector_baseINSt7__cxx1112basic_stringIcSt11char_traitsIcESaIcEEESaIS5_EED2Ev
FNL:8,377,381
FNA:8,0,_ZNSt12_Vector_baseINSt7__cxx1112basic_stringIcSt11char_traitsIcESaIcEEESaIS5_EE11_M_allocateEm
FNL:9,385,390
FNA:9,0,_ZNSt12_Vector_baseINSt7__cxx1112basic_stringIcSt11char_traitsIcESaIcEEESaIS5_EE13_M_deallocateEPS5_m
FNL:10,396,401
FNA:10,0,_ZNSt12_Vector_baseINSt7__cxx1112basic_stringIcSt11char_traitsIcESaIcEEESaIS5_EE17_M_create_storageEm
FNL:11,556,558
FNA:11,0,_ZNSt6vectorINSt7__cxx1112basic_stringIcSt11char_traitsIcESaIcEEESaIS5_EEC2EmRKS6_
FNL:12,733,738
FNA:12,0,_ZNSt6vectorINSt7__cxx1112basic_stringIcSt11char_traitsIcESaIcEEESaIS5_EED2Ev
FNL:13,873,874
FNA:13,0,_ZNSt6vectorINSt7__cxx1112basic_stringIcSt11char_traitsIcESaIcEEESaIS5_EE5beginEv
FNL:14,893,894
FNA:14,0,_ZNSt6vectorINSt7__cxx1112basic_stringIcSt11char_traitsIcESaIcEEESaIS5_EE3endEv
FNL:15,98,100
FNA:15,0,_ZNSt12_Vector_baseINSt7__cxx1112basic_stringIcSt11char_traitsIcESaIcEEESaIS5_EE17_Vector_impl_dataC2Ev
FNF:16
FNH:0
DA:98,0
DA:99,0
DA:100,0
DA:145,0
DA:146,0
DA:147,0
DA:300,0
DA:301,0
DA:332,0
DA:333,0
DA:334,0
DA:366,0
DA:368,0
DA:369,0
DA:370,0
DA:377,0
DA:380,0
DA:385,0
DA:388,0
DA:389,0
DA:390,0
DA:396,0
DA:398,0
DA:399,0
DA:400,0
DA:401,0
DA:556,0
DA:557,0
DA:558,0
DA:733,0
DA:735,0
DA:736,0
DA:738,0
DA:873,0
DA:874,0
DA:893,0
DA:894,0
DA:1128,0
DA:1131,0
DA:1717,0
DA:1719,0
DA:1720,0
DA:1721,0
DA:1722,0
DA:1917,0
DA:1919,0
DA:1920,0
DA:1922,0
DA:1926,0
DA:1931,0
DA:1933,0
DA:1934,0
LF:52
LH:0
end_of_record
TN:
SF:/usr/include/c++/14/bits/unordered_map.h
FNL:0,148,148
FNA:0,0,_ZNSt13unordered_mapI8PlateKeyx12PlateKeyHashSt8equal_toIS0_ESaISt4pairIKS0_xEEEC2Ev
FNL:1,332,333
FNA:1,0,_ZNSt13unordered_mapI8PlateKeyx12PlateKeyHashSt8equal_toIS0_ESaISt4pairIKS0_xEEE5beginEv
FNL:2,354,355
FNA:2,0,_ZNSt13unordered_mapI8PlateKeyx12PlateKeyHashSt8equal_toIS0_ESaISt4pairIKS0_xEEE3endEv
FNL:3,987,988
FNA:3,0,_ZNSt13unordered_mapI8PlateKeyx12PlateKeyHashSt8equal_toIS0_ESaISt4pairIKS0_xEEEixERS5_
FNF:4
FNH:0
DA:148,0
DA:332,0
DA:333,0
DA:354,0
DA:355,0
DA:987,0
DA:988,0
LF:7
LH:0
end_of_record
TN:
SF:/usr/include/c++/14/ext/aligned_buffer.h
FNL:0,104,107
FNA:0,0,_ZN9__gnu_cxx16__aligned_bufferISt4pairIK8PlateKeyxEE7_M_addrEv
FNL:1,110,113
FNA:1,0,_ZNK9__gnu_cxx16__aligned_bufferISt4pairIK8PlateKeyxEE7_M_addrEv
FNL:2,116,117
FNA:2,0,_ZN9__gnu_cxx16__aligned_bufferISt4pairIK8PlateKeyxEE6_M_ptrEv
FNL:3,120,121
FNA:3,0,_ZNK9__gnu_cxx16__aligned_bufferISt4pairIK8PlateKeyxEE6_M_ptrEv
FNF:4
FNH:0
DA:104,0
DA:106,0
DA:110,0
DA:112,0
DA:116,0
DA:117,0
DA:120,0
DA:121,0
LF:8
LH:0
end_of_record
TN:
SF:/usr/include/c++/14/new
FNL:0,179,180
FNA:0,0,_ZnwmPv
FNL:1,185,185
FNA:1,0,_ZdlPvS_
FNF:2
FNH:0
DA:179,0
DA:180,0
DA:185,0
LF:3
LH:0
end_of_record
TN:
SF:/usr/include/c++/14/tuple
FNL:0,201,202
FNA:0,0,_ZNSt10_Head_baseILm0ERK8PlateKeyLb0EEC2ES2_
FNL:1,242,242
FNA:1,0,_ZNSt10_Head_baseILm0ERK8PlateKeyLb0EE7_M_headERS3_
FNL:2,2427,2428
FNA:2,0,_ZSt12__get_helperILm0ERK8PlateKeyJEERT0_RSt11_Tuple_implIXT_EJS3_DpT1_EE
FNL:3,2443,2444
FNA:3,0,_ZSt3getILm0EJRK8PlateKeyEERNSt13tuple_elementIXT_ESt5tupleIJDpT0_EEE4typeERS7_
FNL:4,2872,2878
FNA:4,0,_ZNSt4pairIK8PlateKeyxEC2IJRS1_EJEEESt21piecewise_construct_tSt5tupleIJDpT_EES6_IJDpT0_EE
FNL:5,2884,2889
FNA:5,0,_ZNSt4pairIK8PlateKeyxEC2IJRS1_EJLm0EEJEJEEERSt5tupleIJDpT_EERS5_IJDpT1_EESt12_Index_tupleIJXspT0_EEESE_IJXspT2_EEE
FNL:6,556,556
FNA:6,0,_ZNSt11_Tuple_implILm0EJRK8PlateKeyEE7_M_headERS3_
FNL:7,566,568
FNA:7,0,_ZNSt11_Tuple_implILm0EJRK8PlateKeyEEC2ES2_
FNL:8,586,589
FNA:8,0,_ZNSt11_Tuple_implILm0EJRK8PlateKeyEEC2EOS3_
FNL:9,971,975
FNA:9,0,_ZNSt5tupleIJRK8PlateKeyEEC2ES2_Qcl15__constructibleIDpRKT_EE
FNL:10,995,995
FNA:10,0,_ZNSt5tupleIJRK8PlateKeyEEC2EOS3_
FNF:11
FNH:0
DA:201,0
DA:202,0
DA:242,0
DA:556,0
DA:566,0
DA:567,0
DA:568,0
DA:586,0
DA:588,0
DA:589,0
DA:971,0
DA:974,0
DA:975,0
DA:995,0
DA:2427,0
DA:2428,0
DA:2443,0
DA:2444,0
DA:2872,0
DA:2877,0
DA:2878,0
DA:2884,0
DA:2887,0
DA:2888,0
DA:2889,0
LF:25
LH:0
end_of_record
TN:
SF:/usr/include/c++/14/type_traits
FNL:0,3832,3839
FNA:0,0,_ZSt21is_constant_evaluatedv
FNF:1
FNH:0
DA:3832,0
DA:3835,0
LF:2
LH:0
end_of_record
TN:
SF:/usr/include/c++/14/x86_64-redhat-linux/bits/c++config.h
FNF:0
FNH:0
DA:2394,0
LF:1
LH:0
end_of_record
