TN:
SF:/home/monika/Documents/problems/17086번： 아기 상어 2/main.cpp
FNL:0,8,67
FNA:0,0,main
FNF:1
FNH:0
DA:8,0
DA:10,0
DA:11,0
DA:14,0
DA:16,0
DA:17,0
DA:18,0
DA:20,0
DA:22,0
DA:24,0
DA:26,0
DA:28,0
DA:29,0
DA:34,0
DA:35,0
DA:37,0
DA:39,0
DA:40,0
DA:42,0
DA:44,0
DA:45,0
DA:47,0
DA:49,0
DA:50,0
DA:55,0
DA:56,0
DA:58,0
DA:60,0
DA:64,0
DA:66,0
DA:67,0
LF:31
LH:0
end_of_record
TN:
SF:/usr/include/c++/14/bits/alloc_traits.h
FNF:0
FNH:0
DA:515,0
DA:550,0
DA:577,0
DA:581,0
DA:599,0
DA:601,0
DA:627,0
DA:993,0
DA:994,0
LF:9
LH:0
end_of_record
TN:
SF:/usr/include/c++/14/bits/allocator.h
FNF:0
FNH:0
DA:161,0
DA:166,0
DA:176,0
DA:182,0
DA:189,0
DA:191,0
DA:192,0
DA:193,0
DA:196,0
DA:203,0
DA:205,0
DA:206,0
DA:208,0
LF:13
LH:0
end_of_record
TN:
SF:/usr/include/c++/14/bits/cpp_type_traits.h
FNL:0,608,609
FNA:0,0,_ZSt12__miter_baseIN9__gnu_cxx17__normal_iteratorIPKiSt6vectorIiSaIiEEEEET_S8_
FNA:0,0,_ZSt12__miter_baseIPPSt4pairIiiEET_S4_
FNF:1
FNH:0
DA:608,0
DA:609,0
LF:2
LH:0
end_of_record
TN:
SF:/usr/include/c++/14/bits/deque.tcc
FNL:0,164,180
FNA:0,0,_ZNSt5dequeISt4pairIiiESaIS1_EE12emplace_backIJS1_EEERS1_DpOT_
FNL:1,484,516
FNA:1,0,_ZNSt5dequeISt4pairIiiESaIS1_EE16_M_push_back_auxIJS1_EEEvDpOT_
FNL:2,576,584
FNA:2,0,_ZNSt5dequeISt4pairIiiESaIS1_EE16_M_pop_front_auxEv
FNL:3,934,976
FNA:3,0,_ZNSt5dequeISt4pairIiiESaIS1_EE17_M_reallocate_mapEmb
FNF:4
FNH:0
DA:164,0
DA:167,0
DA:168,0
DA:170,0
DA:173,0
DA:176,0
DA:178,0
DA:484,0
DA:492,0
DA:493,0
DA:496,0
DA:497,0
DA:501,0
DA:507,0
DA:509,0
DA:516,0
DA:576,0
DA:579,0
DA:581,0
DA:582,0
DA:583,0
DA:584,0
DA:934,0
DA:937,0
DA:938,0
DA:939,0
DA:942,0
DA:944,0
DA:945,0
DA:946,0
DA:947,0
DA:948,0
DA:949,0
DA:952,0
DA:953,0
DA:954,0
DA:958,0
DA:959,0
DA:962,0
DA:963,0
DA:964,0
DA:965,0
DA:966,0
DA:968,0
DA:970,0
DA:971,0
DA:974,0
DA:975,0
DA:976,0
LF:49
LH:0
end_of_record
TN:
SF:/usr/include/c++/14/bits/move.h
FNL:0,137,138
FNA:0,0,_ZSt4moveIRSt4pairIiiEEONSt16remove_referenceIT_E4typeEOS4_
FNL:1,51,52
FNA:1,0,_ZSt11__addressofISt6vectorIiSaIiEEEPT_RS3_
FNA:1,0,_ZSt11__addressofIiEPT_RS0_
FNL:2,71,72
FNA:2,0,_ZSt7forwardIRKSt6vectorIiSaIiEEEOT_RNSt16remove_referenceIS5_E4typeE
FNA:2,0,_ZSt7forwardIRKiEOT_RNSt16remove_referenceIS2_E4typeE
FNA:2,0,_ZSt7forwardIRiEOT_RNSt16remove_referenceIS1_E4typeE
FNA:2,0,_ZSt7forwardISt4pairIiiEEOT_RNSt16remove_referenceIS2_E4typeE
FNA:2,0,_ZSt7forwardIiEOT_RNSt16remove_referenceIS0_E4typeE
FNF:3
FNH:0
DA:51,0
DA:52,0
DA:71,0
DA:72,0
DA:137,0
DA:138,0
LF:6
LH:0
end_of_record
TN:
SF:/usr/include/c++/14/bits/new_allocator.h
FNL:0,126,152
FNA:0,0,_ZNSt15__new_allocatorIPSt4pairIiiEE8allocateEmPKv
FNA:0,0,_ZNSt15__new_allocatorISt4pairIiiEE8allocateEmPKv
FNA:0,0,_ZNSt15__new_allocatorISt6vectorIiSaIiEEE8allocateEmPKv
FNA:0,0,_ZNSt15__new_allocatorIiE8allocateEmPKv
FNL:1,156,173
FNA:1,0,_ZNSt15__new_allocatorIPSt4pairIiiEE10deallocateEPS2_m
FNA:1,0,_ZNSt15__new_allocatorISt4pairIiiEE10deallocateEPS1_m
FNA:1,0,_ZNSt15__new_allocatorISt6vectorIiSaIiEEE10deallocateEPS2_m
FNA:1,0,_ZNSt15__new_allocatorIiE10deallocateEPim
FNF:2
FNH:0
DA:88,0
DA:92,0
DA:126,0
DA:134,0
DA:138,0
DA:139,0
DA:140,0
DA:151,0
DA:156,0
DA:172,0
DA:233,0
LF:11
LH:0
end_of_record
TN:
SF:/usr/include/c++/14/bits/stl_algobase.h
FNL:0,1040,1040
FNA:0,0,_ZSt17__size_to_integerm
FNL:1,1140,1153
FNA:1,0,_ZSt10__fill_n_aIPimiET_S1_T0_RKT1_St26random_access_iterator_tag
FNL:2,1175,1182
FNA:2,0,_ZSt6fill_nIPimiET_S1_T0_RKT1_
FNL:3,233,241
FNA:3,0,_ZSt3minImERKT_S2_S2_
FNL:4,257,265
FNA:4,0,_ZSt3maxIiERKT_S2_S2_
FNA:4,0,_ZSt3maxImERKT_S2_S2_
FNL:5,316,318
FNA:5,0,_ZSt12__niter_baseIPPSt4pairIiiEET_S4_
FNA:5,0,_ZSt12__niter_baseIPiET_S1_
FNL:6,353,354
FNA:6,0,_ZSt12__niter_wrapIPPSt4pairIiiEET_RKS4_S4_
FNA:6,0,_ZSt12__niter_wrapIPiET_RKS1_S1_
FNL:7,398,408
FNA:7,0,_ZNSt11__copy_moveILb0ELb0ESt26random_access_iterator_tagE8__copy_mIPKiPiEET0_T_S7_S6_
FNA:7,0,_ZNSt11__copy_moveILb0ELb0ESt26random_access_iterator_tagE8__copy_mIPPSt4pairIiiES6_EET0_T_S8_S7_
FNL:8,412,413
FNA:8,0,_ZNSt11__copy_moveILb0ELb0ESt26random_access_iterator_tagE12__assign_oneIPSt4pairIiiES5_EEvPT_PT0_
FNA:8,0,_ZNSt11__copy_moveILb0ELb0ESt26random_access_iterator_tagE12__assign_oneIiKiEEvPT_PT0_
FNL:9,448,457
FNA:9,0,_ZNSt11__copy_moveILb0ELb1ESt26random_access_iterator_tagE8__copy_mIKiiEEPT0_PT_S7_S5_
FNA:9,0,_ZNSt11__copy_moveILb0ELb1ESt26random_access_iterator_tagE8__copy_mIPSt4pairIiiES5_EEPT0_PT_S9_S7_
FNL:10,512,522
FNA:10,0,_ZSt14__copy_move_a2ILb0EPKiPiET1_T0_S4_S3_
FNA:10,0,_ZSt14__copy_move_a2ILb0EPPSt4pairIiiES3_ET1_T0_S5_S4_
FNL:11,547,548
FNA:11,0,_ZSt14__copy_move_a1ILb0EPKiPiET1_T0_S4_S3_
FNA:11,0,_ZSt14__copy_move_a1ILb0EPPSt4pairIiiES3_ET1_T0_S5_S4_
FNL:12,553,559
FNA:12,0,_ZSt13__copy_move_aILb0EN9__gnu_cxx17__normal_iteratorIPKiSt6vectorIiSaIiEEEEPiET1_T0_SA_S9_
FNA:12,0,_ZSt13__copy_move_aILb0EPPSt4pairIiiES3_ET1_T0_S5_S4_
FNL:13,642,652
FNA:13,0,_ZSt4copyIN9__gnu_cxx17__normal_iteratorIPKiSt6vectorIiSaIiEEEEPiET0_T_SA_S9_
FNA:13,0,_ZSt4copyIPPSt4pairIiiES3_ET0_T_S5_S4_
FNL:14,728,735
FNA:14,0,_ZNSt20__copy_move_backwardILb0ELb0ESt26random_access_iterator_tagE13__copy_move_bIPPSt4pairIiiES6_EET0_T_S8_S7_
FNL:15,762,771
FNA:15,0,_ZNSt20__copy_move_backwardILb0ELb1ESt26random_access_iterator_tagE13__copy_move_bIPSt4pairIiiES5_EEPT0_PT_S9_S7_
FNL:16,777,790
FNA:16,0,_ZSt23__copy_move_backward_a2ILb0EPPSt4pairIiiES3_ET1_T0_S5_S4_
FNL:17,795,796
FNA:17,0,_ZSt23__copy_move_backward_a1ILb0EPPSt4pairIiiES3_ET1_T0_S5_S4_
FNL:18,823,829
FNA:18,0,_ZSt22__copy_move_backward_aILb0EPPSt4pairIiiES3_ET1_T0_S5_S4_
FNL:19,878,889
FNA:19,0,_ZSt13copy_backwardIPPSt4pairIiiES3_ET0_T_S5_S4_
FNL:20,947,953
FNA:20,0,_ZSt9__fill_a1IPiiEN9__gnu_cxx11__enable_ifIXsrSt11__is_scalarIT0_E7__valueEvE6__typeET_S8_RKS4_
FNL:21,997,998
FNA:21,0,_ZSt8__fill_aIPiiEvT_S1_RKT0_
FNF:22
FNH:0
DA:233,0
DA:238,0
DA:239,0
DA:240,0
DA:257,0
DA:262,0
DA:263,0
DA:264,0
DA:316,0
DA:318,0
DA:353,0
DA:354,0
DA:398,0
DA:401,0
DA:403,0
DA:404,0
DA:405,0
DA:407,0
DA:412,0
DA:413,0
DA:448,0
DA:450,0
DA:451,0
DA:452,0
DA:453,0
DA:455,0
DA:456,0
DA:512,0
DA:516,0
DA:518,0
DA:521,0
DA:547,0
DA:548,0
DA:553,0
DA:555,0
DA:558,0
DA:642,0
DA:651,0
DA:728,0
DA:731,0
DA:732,0
DA:733,0
DA:734,0
DA:762,0
DA:764,0
DA:765,0
DA:766,0
DA:767,0
DA:769,0
DA:770,0
DA:777,0
DA:781,0
DA:783,0
DA:787,0
DA:789,0
DA:795,0
DA:796,0
DA:823,0
DA:825,0
DA:828,0
DA:878,0
DA:888,0
DA:947,0
DA:950,0
DA:951,0
DA:952,0
DA:953,0
DA:997,0
DA:998,0
DA:1040,0
DA:1140,0
DA:1146,0
DA:1147,0
DA:1151,0
DA:1152,0
DA:1175,0
DA:1180,0
DA:1181,0
LF:78
LH:0
end_of_record
TN:
SF:/usr/include/c++/14/bits/stl_construct.h
FNL:0,109,120
FNA:0,0,_ZSt10_ConstructISt6vectorIiSaIiEEJRKS2_EEvPT_DpOT0_
FNA:0,0,_ZSt10_ConstructIiJEEvPT_DpOT0_
FNA:0,0,_ZSt10_ConstructIiJRKiEEvPT_DpOT0_
FNL:1,146,153
FNA:1,0,_ZSt8_DestroyISt6vectorIiSaIiEEEvPT_
FNA:1,0,_ZSt8_DestroyIiEvPT_
FNL:2,160,164
FNA:2,0,_ZNSt12_Destroy_auxILb0EE9__destroyIPSt6vectorIiSaIiEEEEvT_S6_
FNA:2,0,_ZNSt12_Destroy_auxILb0EE9__destroyIPiEEvT_S3_
FNL:3,172,172
FNA:3,0,_ZNSt12_Destroy_auxILb1EE9__destroyIPiEEvT_S3_
FNL:4,182,197
FNA:4,0,_ZSt8_DestroyIPSt6vectorIiSaIiEEEvT_S4_
FNA:4,0,_ZSt8_DestroyIPiEvT_S1_
FNL:5,80,89
FNA:5,0,_ZSt10destroy_atISt4pairIiiEEvPT_
FNA:5,0,_ZSt10destroy_atISt6vectorIiSaIiEEEvPT_
FNA:5,0,_ZSt10destroy_atIiEvPT_
FNL:6,94,97
FNA:6,0,_ZSt12construct_atISt4pairIiiEJS1_EEDTgsnwcvPvLi0E_T_pispcl7declvalIT0_EEEEPS3_DpOS4_
FNA:6,0,_ZSt12construct_atISt6vectorIiSaIiEEJRKS2_EEDTgsnwcvPvLi0E_T_pispcl7declvalIT0_EEEEPS6_DpOS7_
FNA:6,0,_ZSt12construct_atIiJEEDTgsnwcvPvLi0E_T_pispcl7declvalIT0_EEEEPS1_DpOS2_
FNA:6,0,_ZSt12construct_atIiJRKiEEDTgsnwcvPvLi0E_T_pispcl7declvalIT0_EEEEPS3_DpOS4_
FNF:7
FNH:0
DA:80,0
DA:88,0
DA:89,0
DA:94,0
DA:97,0
DA:109,0
DA:112,0
DA:115,0
DA:116,0
DA:119,0
DA:146,0
DA:149,0
DA:153,0
DA:160,0
DA:162,0
DA:163,0
DA:164,0
DA:172,0
DA:182,0
DA:192,0
DA:193,0
DA:196,0
LF:22
LH:0
end_of_record
TN:
SF:/usr/include/c++/14/bits/stl_deque.h
FNL:0,1027,1028
FNA:0,0,_ZNSt5dequeISt4pairIiiESaIS1_EED2Ev
FNL:1,1151,1152
FNA:1,0,_ZNSt5dequeISt4pairIiiESaIS1_EE5beginEv
FNL:2,1170,1171
FNA:2,0,_ZNSt5dequeISt4pairIiiESaIS1_EE3endEv
FNL:3,1268,1269
FNA:3,0,_ZNKSt5dequeISt4pairIiiESaIS1_EE4sizeEv
FNL:4,1274,1275
FNA:4,0,_ZNKSt5dequeISt4pairIiiESaIS1_EE8max_sizeEv
FNL:5,131,132
FNA:5,0,_ZNSt15_Deque_iteratorISt4pairIiiERS1_PS1_E14_S_buffer_sizeEv
FNL:6,1347,1348
FNA:6,0,_ZNKSt5dequeISt4pairIiiESaIS1_EE5emptyEv
FNL:7,1444,1448
FNA:7,0,_ZNSt5dequeISt4pairIiiESaIS1_EE5frontEv
FNL:8,1468,1474
FNA:8,0,_ZNSt5dequeISt4pairIiiESaIS1_EE4backEv
FNL:9,151,152
FNA:9,0,_ZNSt15_Deque_iteratorISt4pairIiiERS1_PS1_EC2Ev
FNL:10,1553,1554
FNA:10,0,_ZNSt5dequeISt4pairIiiESaIS1_EE9push_backEOS1_
FNL:11,1574,1586
FNA:11,0,_ZNSt5dequeISt4pairIiiESaIS1_EE9pop_frontEv
FNL:12,168,170
FNA:12,0,_ZNSt15_Deque_iteratorISt4pairIiiERS1_PS1_EC2ERKS4_
FNL:13,181,182
FNA:13,0,_ZNKSt15_Deque_iteratorISt4pairIiiERS1_PS1_EdeEv
FNL:14,1876,1881
FNA:14,0,_ZNSt5dequeISt4pairIiiESaIS1_EE11_S_max_sizeERKS2_
FNL:15,2087,2092
FNA:15,0,_ZNSt5dequeISt4pairIiiESaIS1_EE15_M_destroy_dataESt15_Deque_iteratorIS1_RS1_PS1_ES7_RKS2_
FNL:16,210,219
FNA:16,0,_ZNSt15_Deque_iteratorISt4pairIiiERS1_PS1_EmmEv
FNL:17,2168,2173
FNA:17,0,_ZNSt5dequeISt4pairIiiESaIS1_EE22_M_reserve_map_at_backEm
FNL:18,263,268
FNA:18,0,_ZNSt15_Deque_iteratorISt4pairIiiERS1_PS1_E11_M_set_nodeEPS3_
FNL:19,272,273
FNA:19,0,_ZSteqRKSt15_Deque_iteratorISt4pairIiiERS1_PS1_ES6_
FNL:20,370,376
FNA:20,0,_ZStmiRKSt15_Deque_iteratorISt4pairIiiERS1_PS1_ES6_
FNL:21,458,460
FNA:21,0,_ZNSt11_Deque_baseISt4pairIiiESaIS1_EEC2Ev
FNL:22,516,518
FNA:22,0,_ZNSt11_Deque_baseISt4pairIiiESaIS1_EE16_Deque_impl_dataC2Ev
FNL:23,545,548
FNA:23,0,_ZNSt11_Deque_baseISt4pairIiiESaIS1_EE11_Deque_implC2Ev
FNL:24,568,569
FNA:24,0,_ZNSt11_Deque_baseISt4pairIiiESaIS1_EE19_M_get_Tp_allocatorEv
FNL:25,572,573
FNA:25,0,_ZNKSt11_Deque_baseISt4pairIiiESaIS1_EE19_M_get_Tp_allocatorEv
FNL:26,576,577
FNA:26,0,_ZNKSt11_Deque_baseISt4pairIiiESaIS1_EE20_M_get_map_allocatorEv
FNL:27,580,584
FNA:27,0,_ZNSt11_Deque_baseISt4pairIiiESaIS1_EE16_M_allocate_nodeEv
FNL:28,587,591
FNA:28,0,_ZNSt11_Deque_baseISt4pairIiiESaIS1_EE18_M_deallocate_nodeEPS1_
FNL:29,594,598
FNA:29,0,_ZNSt11_Deque_baseISt4pairIiiESaIS1_EE15_M_allocate_mapEm
FNL:30,601,605
FNA:30,0,_ZNSt11_Deque_baseISt4pairIiiESaIS1_EE17_M_deallocate_mapEPPS1_m
FNL:31,617,626
FNA:31,0,_ZNSt11_Deque_baseISt4pairIiiESaIS1_EED2Ev
FNL:32,638,673
FNA:32,0,_ZNSt11_Deque_baseISt4pairIiiESaIS1_EE17_M_initialize_mapEm
FNL:33,677,691
FNA:33,0,_ZNSt11_Deque_baseISt4pairIiiESaIS1_EE15_M_create_nodesEPPS1_S5_
FNL:34,695,701
FNA:34,0,_ZNSt11_Deque_baseISt4pairIiiESaIS1_EE16_M_destroy_nodesEPPS1_S5_
FNL:35,855,855
FNA:35,0,_ZNSt5dequeISt4pairIiiESaIS1_EEC2Ev
FNL:36,96,98
FNA:36,0,_ZSt16__deque_buf_sizem
FNF:37
FNH:0
DA:96,0
DA:98,0
DA:131,0
DA:132,0
DA:151,0
DA:152,0
DA:168,0
DA:169,0
DA:170,0
DA:181,0
DA:182,0
DA:210,0
DA:212,0
DA:214,0
DA:215,0
DA:217,0
DA:218,0
DA:263,0
DA:265,0
DA:266,0
DA:267,0
DA:268,0
DA:272,0
DA:273,0
DA:370,0
DA:372,0
DA:373,0
DA:374,0
DA:375,0
DA:458,0
DA:459,0
DA:460,0
DA:516,0
DA:517,0
DA:518,0
DA:545,0
DA:547,0
DA:548,0
DA:568,0
DA:569,0
DA:572,0
DA:573,0
DA:576,0
DA:577,0
DA:580,0
DA:583,0
DA:587,0
DA:590,0
DA:591,0
DA:594,0
DA:596,0
DA:597,0
DA:601,0
DA:603,0
DA:605,0
DA:617,0
DA:620,0
DA:622,0
DA:623,0
DA:624,0
DA:626,0
DA:638,0
DA:641,0
DA:644,0
DA:645,0
DA:646,0
DA:653,0
DA:654,0
DA:655,0
DA:658,0
DA:659,0
DA:661,0
DA:662,0
DA:663,0
DA:664,0
DA:667,0
DA:668,0
DA:669,0
DA:670,0
DA:671,0
DA:672,0
DA:673,0
DA:677,0
DA:683,0
DA:684,0
DA:686,0
DA:688,0
DA:689,0
DA:691,0
DA:695,0
DA:699,0
DA:700,0
DA:701,0
DA:855,0
DA:1027,0
DA:1028,0
DA:1151,0
DA:1152,0
DA:1170,0
DA:1171,0
DA:1268,0
DA:1269,0
DA:1274,0
DA:1275,0
DA:1347,0
DA:1348,0
DA:1444,0
DA:1447,0
DA:1468,0
DA:1471,0
DA:1472,0
DA:1473,0
DA:1553,0
DA:1554,0
DA:1574,0
DA:1577,0
DA:1578,0
DA:1580,0
DA:1582,0
DA:1585,0
DA:1586,0
DA:1876,0
DA:1878,0
DA:1879,0
DA:1880,0
DA:2087,0
DA:2092,0
DA:2168,0
DA:2170,0
DA:2171,0
DA:2172,0
DA:2173,0
LF:132
LH:0
end_of_record
TN:
SF:/usr/include/c++/14/bits/stl_iterator.h
FNL:0,1067,1068
FNA:0,0,_ZN9__gnu_cxx17__normal_iteratorIPKiSt6vectorIiSaIiEEEC2ERKS2_
FNL:1,1090,1091
FNA:1,0,_ZNK9__gnu_cxx17__normal_iteratorIPKiSt6vectorIiSaIiEEEdeEv
FNL:2,1100,1104
FNA:2,0,_ZN9__gnu_cxx17__normal_iteratorIPKiSt6vectorIiSaIiEEEppEv
FNL:3,1153,1154
FNA:3,0,_ZNK9__gnu_cxx17__normal_iteratorIPKiSt6vectorIiSaIiEEE4baseEv
FNL:4,1188,1194
FNA:4,0,_ZN9__gnu_cxxeqIPKiSt6vectorIiSaIiEEEEbRKNS_17__normal_iteratorIT_T0_EESB_QrqXeqcldtfL0p_4baseEcldtfL0p0_4baseERSt14convertible_toIbEE
FNL:5,1348,1350
FNA:5,0,_ZSt12__niter_baseIPKiSt6vectorIiSaIiEEET_N9__gnu_cxx17__normal_iteratorIS5_T0_EE
FNF:6
FNH:0
DA:1067,0
DA:1068,0
DA:1090,0
DA:1091,0
DA:1100,0
DA:1102,0
DA:1103,0
DA:1153,0
DA:1154,0
DA:1188,0
DA:1194,0
DA:1348,0
DA:1350,0
LF:13
LH:0
end_of_record
TN:
SF:/usr/include/c++/14/bits/stl_iterator_base_types.h
FNF:0
FNH:0
DA:240,0
LF:1
LH:0
end_of_record
TN:
SF:/usr/include/c++/14/bits/stl_pair.h
FNL:0,1205,1206
FNA:0,0,_ZNSt10__pair_getILm0EE10__move_getIiiEEOT_OSt4pairIS2_T0_E
FNL:1,1229,1230
FNA:1,0,_ZNSt10__pair_getILm1EE10__move_getIiiEEOT0_OSt4pairIT_S2_E
FNL:2,1255,1256
FNA:2,0,_ZSt3getILm0EiiEONSt13tuple_elementIXT_ESt4pairIT0_T1_EE4typeEOS4_
FNA:2,0,_ZSt3getILm1EiiEONSt13tuple_elementIXT_ESt4pairIT0_T1_EE4typeEOS4_
FNL:3,442,445
FNA:3,0,_ZNSt4pairIiiEC2IRiS2_EEOT_OT0_
FNL:4,492,495
FNA:4,0,_ZNSt4pairIiiEC2IiiEERS_IT_T0_E
FNF:5
FNH:0
DA:442,0
DA:444,0
DA:445,0
DA:492,0
DA:494,0
DA:495,0
DA:1205,0
DA:1206,0
DA:1229,0
DA:1230,0
DA:1255,0
DA:1256,0
LF:12
LH:0
end_of_record
TN:
SF:/usr/include/c++/14/bits/stl_queue.h
FNL:0,166,167
FNA:0,0,_ZNSt5queueISt4pairIiiESt5dequeIS1_SaIS1_EEEC2IS4_vEEv
FNL:1,216,217
FNA:1,0,_ZNKSt5queueISt4pairIiiESt5dequeIS1_SaIS1_EEE5emptyEv
FNL:2,231,235
FNA:2,0,_ZNSt5queueISt4pairIiiESt5dequeIS1_SaIS1_EEE5frontEv
FNL:3,288,289
FNA:3,0,_ZNSt5queueISt4pairIiiESt5dequeIS1_SaIS1_EEE4pushEOS1_
FNL:4,316,320
FNA:4,0,_ZNSt5queueISt4pairIiiESt5dequeIS1_SaIS1_EEE3popEv
FNF:5
FNH:0
DA:166,0
DA:167,0
DA:216,0
DA:217,0
DA:231,0
DA:234,0
DA:288,0
DA:289,0
DA:316,0
DA:319,0
DA:320,0
LF:11
LH:0
end_of_record
TN:
SF:/usr/include/c++/14/bits/stl_uninitialized.h
FNL:0,113,128
FNA:0,0,_ZSt16__do_uninit_copyIN9__gnu_cxx17__normal_iteratorIPKiSt6vectorIiSaIiEEEEPiET0_T_SA_S9_
FNL:1,145,147
FNA:1,0,_ZNSt20__uninitialized_copyILb1EE13__uninit_copyIN9__gnu_cxx17__normal_iteratorIPKiSt6vectorIiSaIiEEEEPiEET0_T_SC_SB_
FNL:2,163,186
FNA:2,0,_ZSt18uninitialized_copyIN9__gnu_cxx17__normal_iteratorIPKiSt6vectorIiSaIiEEEEPiET0_T_SA_S9_
FNL:3,261,275
FNA:3,0,_ZSt18__do_uninit_fill_nIPSt6vectorIiSaIiEEmS2_ET_S4_T0_RKT1_
FNA:3,0,_ZSt18__do_uninit_fill_nIPimiET_S1_T0_RKT1_
FNL:4,282,284
FNA:4,0,_ZNSt22__uninitialized_fill_nILb0EE15__uninit_fill_nIPSt6vectorIiSaIiEEmS4_EET_S6_T0_RKT1_
FNL:5,292,294
FNA:5,0,_ZNSt22__uninitialized_fill_nILb1EE15__uninit_fill_nIPimiEET_S3_T0_RKT1_
FNL:6,312,328
FNA:6,0,_ZSt20uninitialized_fill_nIPSt6vectorIiSaIiEEmS2_ET_S4_T0_RKT1_
FNA:6,0,_ZSt20uninitialized_fill_nIPimiET_S1_T0_RKT1_
FNL:7,366,374
FNA:7,0,_ZSt22__uninitialized_copy_aIN9__gnu_cxx17__normal_iteratorIPKiSt6vectorIiSaIiEEEEPiiET0_T_SA_S9_RSaIT1_E
FNL:8,465,473
FNA:8,0,_ZSt24__uninitialized_fill_n_aIPSt6vectorIiSaIiEEmS2_S2_ET_S4_T0_RKT1_RSaIT2_E
FNA:8,0,_ZSt24__uninitialized_fill_n_aIPimiiET_S1_T0_RKT1_RSaIT2_E
FNL:9,637,651
FNA:9,0,_ZNSt27__uninitialized_default_n_1ILb0EE18__uninit_default_nIPimEET_S3_T0_
FNL:10,660,671
FNA:10,0,_ZNSt27__uninitialized_default_n_1ILb1EE18__uninit_default_nIPimEET_S3_T0_
FNL:11,696,713
FNA:11,0,_ZSt25__uninitialized_default_nIPimET_S1_T0_
FNL:12,777,779
FNA:12,0,_ZSt27__uninitialized_default_n_aIPimiET_S1_T0_RSaIT1_E
FNF:13
FNH:0
DA:113,0
DA:116,0
DA:119,0
DA:120,0
DA:121,0
DA:145,0
DA:147,0
DA:163,0
DA:174,0
DA:181,0
DA:185,0
DA:261,0
DA:263,0
DA:266,0
DA:267,0
DA:268,0
DA:270,0
DA:272,0
DA:273,0
DA:282,0
DA:284,0
DA:292,0
DA:294,0
DA:312,0
DA:319,0
DA:327,0
DA:366,0
DA:370,0
DA:371,0
DA:373,0
DA:465,0
DA:469,0
DA:470,0
DA:472,0
DA:637,0
DA:639,0
DA:642,0
DA:643,0
DA:644,0
DA:660,0
DA:662,0
DA:665,0
DA:666,0
DA:667,0
DA:668,0
DA:670,0
DA:696,0
DA:699,0
DA:701,0
DA:707,0
DA:712,0
DA:777,0
DA:779,0
LF:53
LH:0
end_of_record
TN:
SF:/usr/include/c++/14/bits/stl_vector.h
FNL:0,1128,1132
FNA:0,0,_ZNSt6vectorIS_IiSaIiEESaIS1_EEixEm
FNA:0,0,_ZNSt6vectorIiSaIiEEixEm
FNL:1,145,147
FNA:1,0,_ZNSt12_Vector_baseISt6vectorIiSaIiEESaIS2_EE12_Vector_implC2ERKS3_
FNA:1,0,_ZNSt12_Vector_baseIiSaIiEE12_Vector_implC2ERKS0_
FNL:2,1706,1711
FNA:2,0,_ZNSt6vectorIS_IiSaIiEESaIS1_EE18_M_fill_initializeEmRKS1_
FNA:2,0,_ZNSt6vectorIiSaIiEE18_M_fill_initializeEmRKi
FNL:3,1717,1722
FNA:3,0,_ZNSt6vectorIiSaIiEE21_M_default_initializeEm
FNL:4,1917,1923
FNA:4,0,_ZNSt6vectorIS_IiSaIiEESaIS1_EE17_S_check_init_lenEmRKS2_
FNA:4,0,_ZNSt6vectorIiSaIiEE17_S_check_init_lenEmRKS0_
FNL:5,1926,1935
FNA:5,0,_ZNSt6vectorIS_IiSaIiEESaIS1_EE11_S_max_sizeERKS2_
FNA:5,0,_ZNSt6vectorIiSaIiEE11_S_max_sizeERKS0_
FNL:6,300,301
FNA:6,0,_ZNSt12_Vector_baseISt6vectorIiSaIiEESaIS2_EE19_M_get_Tp_allocatorEv
FNA:6,0,_ZNSt12_Vector_baseIiSaIiEE19_M_get_Tp_allocatorEv
FNL:7,305,306
FNA:7,0,_ZNKSt12_Vector_baseIiSaIiEE19_M_get_Tp_allocatorEv
FNL:8,332,334
FNA:8,0,_ZNSt12_Vector_baseISt6vectorIiSaIiEESaIS2_EEC2EmRKS3_
FNA:8,0,_ZNSt12_Vector_baseIiSaIiEEC2EmRKS0_
FNL:9,366,370
FNA:9,0,_ZNSt12_Vector_baseISt6vectorIiSaIiEESaIS2_EED2Ev
FNA:9,0,_ZNSt12_Vector_baseIiSaIiEED2Ev
FNL:10,377,381
FNA:10,0,_ZNSt12_Vector_baseISt6vectorIiSaIiEESaIS2_EE11_M_allocateEm
FNA:10,0,_ZNSt12_Vector_baseIiSaIiEE11_M_allocateEm
FNL:11,385,390
FNA:11,0,_ZNSt12_Vector_baseISt6vectorIiSaIiEESaIS2_EE13_M_deallocateEPS2_m
FNA:11,0,_ZNSt12_Vector_baseIiSaIiEE13_M_deallocateEPim
FNL:12,396,401
FNA:12,0,_ZNSt12_Vector_baseISt6vectorIiSaIiEESaIS2_EE17_M_create_storageEm
FNA:12,0,_ZNSt12_Vector_baseIiSaIiEE17_M_create_storageEm
FNL:13,556,558
FNA:13,0,_ZNSt6vectorIiSaIiEEC2EmRKS0_
FNL:14,569,572
FNA:14,0,_ZNSt6vectorIS_IiSaIiEESaIS1_EEC2EmRKS1_RKS2_
FNA:14,0,_ZNSt6vectorIiSaIiEEC2EmRKiRKS0_
FNL:15,601,609
FNA:15,0,_ZNSt6vectorIiSaIiEEC2ERKS1_
FNL:16,733,738
FNA:16,0,_ZNSt6vectorIS_IiSaIiEESaIS1_EED2Ev
FNA:16,0,_ZNSt6vectorIiSaIiEED2Ev
FNL:17,883,884
FNA:17,0,_ZNKSt6vectorIiSaIiEE5beginEv
FNL:18,903,904
FNA:18,0,_ZNKSt6vectorIiSaIiEE3endEv
FNL:19,98,100
FNA:19,0,_ZNSt12_Vector_baseISt6vectorIiSaIiEESaIS2_EE17_Vector_impl_dataC2Ev
FNA:19,0,_ZNSt12_Vector_baseIiSaIiEE17_Vector_impl_dataC2Ev
FNL:20,992,993
FNA:20,0,_ZNKSt6vectorIiSaIiEE4sizeEv
FNF:21
FNH:0
DA:98,0
DA:99,0
DA:100,0
DA:145,0
DA:146,0
DA:147,0
DA:300,0
DA:301,0
DA:305,0
DA:306,0
DA:332,0
DA:333,0
DA:334,0
DA:366,0
DA:368,0
DA:369,0
DA:370,0
DA:377,0
DA:380,0
DA:385,0
DA:388,0
DA:389,0
DA:390,0
DA:396,0
DA:398,0
DA:399,0
DA:400,0
DA:401,0
DA:556,0
DA:557,0
DA:558,0
DA:569,0
DA:571,0
DA:572,0
DA:601,0
DA:603,0
DA:605,0
DA:606,0
DA:608,0
DA:609,0
DA:733,0
DA:735,0
DA:736,0
DA:738,0
DA:883,0
DA:884,0
DA:903,0
DA:904,0
DA:992,0
DA:993,0
DA:1128,0
DA:1131,0
DA:1706,0
DA:1708,0
DA:1709,0
DA:1710,0
DA:1711,0
DA:1717,0
DA:1719,0
DA:1720,0
DA:1721,0
DA:1722,0
DA:1917,0
DA:1919,0
DA:1920,0
DA:1922,0
DA:1926,0
DA:1931,0
DA:1933,0
DA:1934,0
LF:70
LH:0
end_of_record
TN:
SF:/usr/include/c++/14/ext/alloc_traits.h
FNF:0
FNH:0
DA:98,0
LF:1
LH:0
end_of_record
TN:
SF:/usr/include/c++/14/new
FNL:0,179,180
FNA:0,0,_ZnwmPv
FNL:1,185,185
FNA:1,0,_ZdlPvS_
FNF:2
FNH:0
DA:179,0
DA:180,0
DA:185,0
LF:3
LH:0
end_of_record
TN:
SF:/usr/include/c++/14/type_traits
FNL:0,3832,3839
FNA:0,0,_ZSt21is_constant_evaluatedv
FNF:1
FNH:0
DA:3832,0
DA:3835,0
LF:2
LH:0
end_of_record
TN:
SF:/usr/include/c++/14/x86_64-redhat-linux/bits/c++config.h
FNF:0
FNH:0
DA:2394,0
LF:1
LH:0
end_of_record
