TN:
SF:/home/monika/Documents/problems/12713번： Ugly Numbers (Small)/Ugly Numbers (Small).cpp
FN:13,51,_Z5solveii
FN:53,77,main
FNDA:136,_Z5solveii
FNDA:1,main
FNF:2
FNH:2
DA:13,136
DA:15,136
DA:16,136
DA:17,17
DA:18,119
DA:20,73
DA:21,73
DA:22,73
DA:28,117
DA:30,71
DA:31,71
DA:32,71
DA:33,71
DA:35,10
DA:39,61
DA:40,61
DA:41,0
DA:42,61
DA:43,61
DA:44,61
DA:45,21
DA:46,61
DA:50,46
DA:53,1
DA:55,1
DA:56,1
DA:58,1
DA:59,1
DA:61,5
DA:63,4
DA:64,4
DA:66,18
DA:68,14
DA:71,4
DA:73,4
DA:76,1
LF:36
LH:35
end_of_record
TN:
SF:/usr/include/c++/14/bits/alloc_traits.h
FNF:0
FNH:0
DA:514,129
DA:515,119
DA:549,129
DA:550,129
DA:566,119
DA:577,119
LF:6
LH:6
end_of_record
TN:
SF:/usr/include/c++/14/bits/allocator.h
FNF:0
FNH:0
DA:176,20
DA:182,10
DA:187,119
DA:196,129
DA:201,129
DA:208,129
LF:6
LH:6
end_of_record
TN:
SF:/usr/include/c++/14/bits/basic_ios.h
FNF:0
FNH:0
DA:311,1
DA:313,1
DA:314,1
LF:3
LH:3
end_of_record
TN:
SF:/usr/include/c++/14/bits/basic_string.h
FN:285,289,_ZNSt7__cxx1112basic_stringIcSt11char_traitsIcESaIcEE10_M_disposeEv
FN:808,809,_ZNSt7__cxx1112basic_stringIcSt11char_traitsIcESaIcEED2Ev
FNDA:1,_ZNSt7__cxx1112basic_stringIcSt11char_traitsIcESaIcEE10_M_disposeEv
FNDA:1,_ZNSt7__cxx1112basic_stringIcSt11char_traitsIcESaIcEED2Ev
FNF:2
FNH:2
DA:186,1
DA:227,72
DA:228,72
DA:243,1
DA:246,1
DA:267,1
DA:269,1
DA:271,1
DA:272,0
DA:285,1
DA:287,1
DA:288,0
DA:289,1
DA:293,0
DA:294,0
DA:342,0
DA:808,1
DA:809,1
DA:1076,4
DA:1077,4
DA:1265,71
DA:1269,71
DA:1272,71
LF:23
LH:18
end_of_record
TN:
SF:/usr/include/c++/14/bits/functional_hash.h
FNF:0
FNH:0
DA:160,541
LF:1
LH:1
end_of_record
TN:
SF:/usr/include/c++/14/bits/hashtable.h
FN:1750,1766,_ZNKSt10_HashtableIxSt4pairIKxxESaIS2_ENSt8__detail10_Select1stESt8equal_toIxESt4hashIxENS4_18_Mod_range_hashingENS4_20_Default_ranged_hashENS4_20_Prime_rehash_policyENS4_17_Hashtable_traitsILb0ELb0ELb1EEEE4findERS1_
FN:2065,2087,_ZNKSt10_HashtableIxSt4pairIKxxESaIS2_ENSt8__detail10_Select1stESt8equal_toIxESt4hashIxENS4_18_Mod_range_hashingENS4_20_Default_ranged_hashENS4_20_Prime_rehash_policyENS4_17_Hashtable_traitsILb0ELb0ELb1EEEE19_M_find_before_nodeEmRS1_m
FN:2228,2252,_ZNSt10_HashtableIxSt4pairIKxxESaIS2_ENSt8__detail10_Select1stESt8equal_toIxESt4hashIxENS4_18_Mod_range_hashingENS4_20_Default_ranged_hashENS4_20_Prime_rehash_policyENS4_17_Hashtable_traitsILb0ELb0ELb1EEEE21_M_insert_unique_nodeEmmPNS4_10_Hash_nodeIS2_Lb0EEEm
FN:2584,2593,_ZNSt10_HashtableIxSt4pairIKxxESaIS2_ENSt8__detail10_Select1stESt8equal_toIxESt4hashIxENS4_18_Mod_range_hashingENS4_20_Default_ranged_hashENS4_20_Prime_rehash_policyENS4_17_Hashtable_traitsILb0ELb0ELb1EEEE5clearEv
FN:2623,2657,_ZNSt10_HashtableIxSt4pairIKxxESaIS2_ENSt8__detail10_Select1stESt8equal_toIxESt4hashIxENS4_18_Mod_range_hashingENS4_20_Default_ranged_hashENS4_20_Prime_rehash_policyENS4_17_Hashtable_traitsILb0ELb0ELb1EEEE9_M_rehashEmSt17integral_constantIbLb1EE
FN:316,316,_ZNSt10_HashtableIxSt4pairIKxxESaIS2_ENSt8__detail10_Select1stESt8equal_toIxESt4hashIxENS4_18_Mod_range_hashingENS4_20_Default_ranged_hashENS4_20_Prime_rehash_policyENS4_17_Hashtable_traitsILb0ELb0ELb1EEEE12_Scoped_nodeD2Ev
FN:460,461,_ZNSt10_HashtableIxSt4pairIKxxESaIS2_ENSt8__detail10_Select1stESt8equal_toIxESt4hashIxENS4_18_Mod_range_hashingENS4_20_Default_ranged_hashENS4_20_Prime_rehash_policyENS4_17_Hashtable_traitsILb0ELb0ELb1EEEE21_M_deallocate_bucketsEv
FN:841,865,_ZNSt10_HashtableIxSt4pairIKxxESaIS2_ENSt8__detail10_Select1stESt8equal_toIxESt4hashIxENS4_18_Mod_range_hashingENS4_20_Default_ranged_hashENS4_20_Prime_rehash_policyENS4_17_Hashtable_traitsILb0ELb0ELb1EEEE22_M_insert_bucket_beginEmPNS4_10_Hash_nodeIS2_Lb0EEE
FNDA:136,_ZNKSt10_HashtableIxSt4pairIKxxESaIS2_ENSt8__detail10_Select1stESt8equal_toIxESt4hashIxENS4_18_Mod_range_hashingENS4_20_Default_ranged_hashENS4_20_Prime_rehash_policyENS4_17_Hashtable_traitsILb0ELb0ELb1EEEE4findERS1_
FNDA:258,_ZNKSt10_HashtableIxSt4pairIKxxESaIS2_ENSt8__detail10_Select1stESt8equal_toIxESt4hashIxENS4_18_Mod_range_hashingENS4_20_Default_ranged_hashENS4_20_Prime_rehash_policyENS4_17_Hashtable_traitsILb0ELb0ELb1EEEE19_M_find_before_nodeEmRS1_m
FNDA:119,_ZNSt10_HashtableIxSt4pairIKxxESaIS2_ENSt8__detail10_Select1stESt8equal_toIxESt4hashIxENS4_18_Mod_range_hashingENS4_20_Default_ranged_hashENS4_20_Prime_rehash_policyENS4_17_Hashtable_traitsILb0ELb0ELb1EEEE21_M_insert_unique_nodeEmmPNS4_10_Hash_nodeIS2_Lb0EEEm
FNDA:34,_ZNSt10_HashtableIxSt4pairIKxxESaIS2_ENSt8__detail10_Select1stESt8equal_toIxESt4hashIxENS4_18_Mod_range_hashingENS4_20_Default_ranged_hashENS4_20_Prime_rehash_policyENS4_17_Hashtable_traitsILb0ELb0ELb1EEEE5clearEv
FNDA:10,_ZNSt10_HashtableIxSt4pairIKxxESaIS2_ENSt8__detail10_Select1stESt8equal_toIxESt4hashIxENS4_18_Mod_range_hashingENS4_20_Default_ranged_hashENS4_20_Prime_rehash_policyENS4_17_Hashtable_traitsILb0ELb0ELb1EEEE9_M_rehashEmSt17integral_constantIbLb1EE
FNDA:119,_ZNSt10_HashtableIxSt4pairIKxxESaIS2_ENSt8__detail10_Select1stESt8equal_toIxESt4hashIxENS4_18_Mod_range_hashingENS4_20_Default_ranged_hashENS4_20_Prime_rehash_policyENS4_17_Hashtable_traitsILb0ELb0ELb1EEEE12_Scoped_nodeD2Ev
FNDA:30,_ZNSt10_HashtableIxSt4pairIKxxESaIS2_ENSt8__detail10_Select1stESt8equal_toIxESt4hashIxENS4_18_Mod_range_hashingENS4_20_Default_ranged_hashENS4_20_Prime_rehash_policyENS4_17_Hashtable_traitsILb0ELb0ELb1EEEE21_M_deallocate_bucketsEv
FNDA:119,_ZNSt10_HashtableIxSt4pairIKxxESaIS2_ENSt8__detail10_Select1stESt8equal_toIxESt4hashIxENS4_18_Mod_range_hashingENS4_20_Default_ranged_hashENS4_20_Prime_rehash_policyENS4_17_Hashtable_traitsILb0ELb0ELb1EEEE22_M_insert_bucket_beginEmPNS4_10_Hash_nodeIS2_Lb0EEE
FNF:8
FNH:8
DA:310,119
DA:311,119
DA:312,119
DA:316,119
DA:421,30
DA:422,30
DA:439,10
DA:441,10
DA:443,0
DA:444,0
DA:447,10
DA:451,30
DA:453,30
DA:456,10
DA:460,30
DA:461,30
DA:473,58
DA:474,58
DA:644,14
DA:645,14
DA:656,136
DA:657,136
DA:799,169
DA:800,169
DA:803,268
DA:804,146
DA:819,258
DA:822,258
DA:823,136
DA:824,34
DA:841,119
DA:843,119
DA:847,46
DA:848,46
DA:855,73
DA:856,73
DA:858,73
DA:861,59
DA:863,73
DA:865,119
DA:1750,136
DA:1755,136
DA:1757,14
DA:1758,0
DA:1759,0
DA:1760,14
DA:1763,122
DA:1764,122
DA:1765,122
DA:1823,136
DA:1828,136
DA:1829,136
DA:2065,258
DA:2071,258
DA:2072,258
DA:2075,128
DA:2078,154
DA:2081,120
DA:2228,119
DA:2234,119
DA:2236,119
DA:2239,119
DA:2241,10
DA:2242,10
DA:2245,119
DA:2249,119
DA:2250,119
DA:2251,119
DA:2252,119
DA:2584,34
DA:2588,34
DA:2589,34
DA:2590,34
DA:2591,34
DA:2592,34
DA:2593,34
DA:2623,10
DA:2627,10
DA:2628,10
DA:2629,10
DA:2630,10
DA:2631,124
DA:2633,114
DA:2635,114
DA:2636,114
DA:2638,98
DA:2639,98
DA:2640,98
DA:2641,98
DA:2642,94
DA:2647,16
DA:2648,16
DA:2654,10
DA:2655,10
DA:2656,10
DA:2657,10
LF:96
LH:92
end_of_record
TN:
SF:/usr/include/c++/14/bits/hashtable_policy.h
FN:2070,2079,_ZNSt8__detail16_Hashtable_allocISaINS_10_Hash_nodeISt4pairIKxxELb0EEEEE19_M_allocate_bucketsEm
FN:832,853,_ZNSt8__detail9_Map_baseIxSt4pairIKxxESaIS3_ENS_10_Select1stESt8equal_toIxESt4hashIxENS_18_Mod_range_hashingENS_20_Default_ranged_hashENS_20_Prime_rehash_policyENS_17_Hashtable_traitsILb0ELb0ELb1EEELb1EEixERS2_
FNDA:10,_ZNSt8__detail16_Hashtable_allocISaINS_10_Hash_nodeISt4pairIKxxELb0EEEEE19_M_allocate_bucketsEm
FNDA:136,_ZNSt8__detail9_Map_baseIxSt4pairIKxxESaIS3_ENS_10_Select1stESt8equal_toIxESt4hashIxENS_18_Mod_range_hashingENS_20_Default_ranged_hashENS_20_Prime_rehash_policyENS_17_Hashtable_traitsILb0ELb0ELb1EEELb1EEixERS2_
FNF:2
FNH:2
DA:319,119
DA:339,374
DA:344,437
DA:349,17
DA:381,119
DA:386,233
DA:387,114
DA:399,255
DA:442,119
DA:443,119
DA:450,119
DA:451,119
DA:489,136
DA:490,136
DA:532,551
DA:534,283
DA:577,119
DA:578,119
DA:585,0
DA:586,0
DA:730,119
DA:731,119
DA:732,119
DA:736,119
DA:739,0
DA:832,136
DA:837,136
DA:838,136
DA:839,136
DA:840,17
DA:841,17
DA:843,119
DA:846,119
DA:850,119
DA:851,119
DA:852,119
DA:853,119
DA:1333,541
DA:1337,258
DA:1358,268
DA:1359,268
DA:1362,283
DA:1368,283
DA:1735,154
DA:1742,0
DA:1759,154
DA:1761,154
DA:2017,119
DA:2020,119
DA:2021,119
DA:2022,119
DA:2025,119
DA:2026,119
DA:2040,119
DA:2042,0
DA:2043,0
DA:2044,119
DA:2048,119
DA:2051,119
DA:2052,119
DA:2053,119
DA:2058,34
DA:2060,153
DA:2062,119
DA:2063,119
DA:2064,119
DA:2070,10
DA:2073,10
DA:2075,10
DA:2076,10
DA:2077,10
DA:2078,10
DA:2083,10
DA:2088,10
DA:2089,10
DA:2090,10
DA:2091,10
LF:77
LH:71
end_of_record
TN:
SF:/usr/include/c++/14/bits/new_allocator.h
FN:126,152,_ZNSt15__new_allocatorIPNSt8__detail15_Hash_node_baseEE8allocateEmPKv
FNDA:10,_ZNSt15__new_allocatorIPNSt8__detail15_Hash_node_baseEE8allocateEmPKv
FNF:1
FNH:1
DA:126,129
DA:134,10
DA:138,0
DA:139,0
DA:140,0
DA:151,129
DA:156,129
DA:172,129
LF:8
LH:5
end_of_record
TN:
SF:/usr/include/c++/14/bits/stl_construct.h
FNF:0
FNH:0
DA:94,119
DA:97,119
LF:2
LH:2
end_of_record
TN:
SF:/usr/include/c++/14/bits/stl_function.h
FNF:0
FNH:0
DA:374,154
DA:375,154
LF:2
LH:2
end_of_record
TN:
SF:/usr/include/c++/14/bits/unordered_map.h
FNF:0
FNH:0
DA:798,14
DA:799,14
DA:909,136
DA:910,136
DA:987,136
DA:988,136
LF:6
LH:6
end_of_record
TN:
SF:/usr/include/c++/14/ext/aligned_buffer.h
FNF:0
FNH:0
DA:106,238
DA:117,136
LF:2
LH:2
end_of_record
TN:
SF:/usr/include/c++/14/ostream
FNF:0
FNH:0
DA:209,4
DA:210,4
LF:2
LH:2
end_of_record
TN:
SF:/usr/include/c++/14/tuple
FNF:0
FNH:0
DA:201,119
DA:556,119
DA:566,119
DA:567,119
DA:586,119
DA:971,119
DA:974,119
DA:995,119
DA:2428,119
DA:2443,119
DA:2444,119
DA:2872,119
DA:2877,119
DA:2884,119
DA:2887,119
DA:2888,119
LF:16
LH:16
end_of_record
