TN:
SF:/home/monika/Documents/problems/14012번： Large PhD Restaurant/Large PhD Restaurant.cpp
FNL:0,12,65
FNA:0,1,main
FNF:1
FNH:1
DA:12,1
DA:14,1
DA:15,1
DA:17,1
DA:18,1
DA:19,1
DA:20,1
DA:21,6
DA:23,5
DA:25,6
DA:27,5
DA:31,1
DA:32,10
DA:35,1
DA:36,1
DA:37,1
DA:39,4
DA:42,8
DA:44,4
DA:45,4
DA:46,4
DA:49,4
DA:53,4
DA:54,4
DA:57,4
DA:60,3
DA:63,1
DA:64,1
DA:65,1
LF:29
LH:29
end_of_record
TN:
SF:/usr/include/c++/14/bit
FNF:0
FNH:0
DA:201,1
DA:204,1
DA:206,1
DA:209,1
DA:210,1
DA:211,1
DA:220,1
DA:221,1
DA:371,1
DA:373,1
DA:374,1
LF:11
LH:11
end_of_record
TN:
SF:/usr/include/c++/14/bits/alloc_traits.h
FNF:0
FNH:0
DA:514,4
DA:515,4
DA:549,4
DA:550,4
DA:566,4
DA:577,4
DA:593,4
DA:599,4
DA:990,1
LF:9
LH:9
end_of_record
TN:
SF:/usr/include/c++/14/bits/allocator.h
FNF:0
FNH:0
DA:161,1
DA:182,1
DA:187,4
DA:196,4
DA:201,4
DA:208,4
LF:6
LH:6
end_of_record
TN:
SF:/usr/include/c++/14/bits/basic_ios.h
FNF:0
FNH:0
DA:311,1
DA:313,1
DA:314,1
LF:3
LH:3
end_of_record
TN:
SF:/usr/include/c++/14/bits/move.h
FNF:0
FNH:0
DA:226,0
DA:234,0
DA:235,0
DA:236,0
LF:4
LH:0
end_of_record
TN:
SF:/usr/include/c++/14/bits/new_allocator.h
FNL:0,126,152
FNA:0,1,_ZNSt15__new_allocatorI9ChallengeE8allocateEmPKv
FNA:0,3,_ZNSt15__new_allocatorIxE8allocateEmPKv
FNF:1
FNH:1
DA:126,4
DA:134,4
DA:138,0
DA:139,0
DA:140,0
DA:151,4
DA:156,4
DA:172,4
LF:8
LH:5
end_of_record
TN:
SF:/usr/include/c++/14/bits/predefined_ops.h
FNF:0
FNH:0
DA:157,4
DA:158,4
DA:195,5
DA:196,5
DA:239,6
DA:240,6
LF:6
LH:6
end_of_record
TN:
SF:/usr/include/c++/14/bits/stl_algo.h
FNL:0,1589,1597
FNA:0,0,_ZSt13__heap_selectIN9__gnu_cxx17__normal_iteratorIP9ChallengeSt6vectorIS2_SaIS2_EEEENS0_5__ops15_Iter_comp_iterIZ4mainEUlRKS2_SB_E_EEEvT_SE_SE_T0_
FNL:1,1750,1764
FNA:1,4,_ZSt25__unguarded_linear_insertIN9__gnu_cxx17__normal_iteratorIP9ChallengeSt6vectorIS2_SaIS2_EEEENS0_5__ops14_Val_comp_iterIZ4mainEUlRKS2_SB_E_EEEvT_T0_
FNL:2,1770,1788
FNA:2,1,_ZSt16__insertion_sortIN9__gnu_cxx17__normal_iteratorIP9ChallengeSt6vectorIS2_SaIS2_EEEENS0_5__ops15_Iter_comp_iterIZ4mainEUlRKS2_SB_E_EEEvT_SE_T0_
FNL:3,1812,1823
FNA:3,1,_ZSt22__final_insertion_sortIN9__gnu_cxx17__normal_iteratorIP9ChallengeSt6vectorIS2_SaIS2_EEEENS0_5__ops15_Iter_comp_iterIZ4mainEUlRKS2_SB_E_EEEvT_SE_T0_
FNL:4,1829,1845
FNA:4,0,_ZSt21__unguarded_partitionIN9__gnu_cxx17__normal_iteratorIP9ChallengeSt6vectorIS2_SaIS2_EEEENS0_5__ops15_Iter_comp_iterIZ4mainEUlRKS2_SB_E_EEET_SE_SE_SE_T0_
FNL:5,1851,1858
FNA:5,0,_ZSt27__unguarded_partition_pivotIN9__gnu_cxx17__normal_iteratorIP9ChallengeSt6vectorIS2_SaIS2_EEEENS0_5__ops15_Iter_comp_iterIZ4mainEUlRKS2_SB_E_EEET_SE_SE_T0_
FNL:6,1863,1870
FNA:6,0,_ZSt14__partial_sortIN9__gnu_cxx17__normal_iteratorIP9ChallengeSt6vectorIS2_SaIS2_EEEENS0_5__ops15_Iter_comp_iterIZ4mainEUlRKS2_SB_E_EEEvT_SE_SE_T0_
FNL:7,1876,1893
FNA:7,1,_ZSt16__introsort_loopIN9__gnu_cxx17__normal_iteratorIP9ChallengeSt6vectorIS2_SaIS2_EEEElNS0_5__ops15_Iter_comp_iterIZ4mainEUlRKS2_SB_E_EEEvT_SE_T0_T1_
FNL:8,1900,1910
FNA:8,1,_ZSt6__sortIN9__gnu_cxx17__normal_iteratorIP9ChallengeSt6vectorIS2_SaIS2_EEEENS0_5__ops15_Iter_comp_iterIZ4mainEUlRKS2_SB_E_EEEvT_SE_T0_
FNL:9,85,103
FNA:9,0,_ZSt22__move_median_to_firstIN9__gnu_cxx17__normal_iteratorIP9ChallengeSt6vectorIS2_SaIS2_EEEENS0_5__ops15_Iter_comp_iterIZ4mainEUlRKS2_SB_E_EEEvT_SE_SE_SE_T0_
FNF:10
FNH:5
DA:85,0
DA:88,0
DA:90,0
DA:91,0
DA:92,0
DA:93,0
DA:95,0
DA:97,0
DA:98,0
DA:99,0
DA:100,0
DA:102,0
DA:103,0
DA:1589,0
DA:1593,0
DA:1594,0
DA:1595,0
DA:1596,0
DA:1597,0
DA:1750,4
DA:1754,4
DA:1755,4
DA:1756,4
DA:1757,6
DA:1759,2
DA:1760,2
DA:1761,2
DA:1763,4
DA:1764,4
DA:1770,1
DA:1773,1
DA:1775,5
DA:1777,4
DA:1780,0
DA:1781,0
DA:1782,0
DA:1785,4
DA:1794,0
DA:1797,0
DA:1798,0
DA:1812,1
DA:1815,1
DA:1817,0
DA:1818,0
DA:1822,1
DA:1823,1
DA:1829,0
DA:1833,0
DA:1835,0
DA:1836,0
DA:1837,0
DA:1838,0
DA:1839,0
DA:1840,0
DA:1841,0
DA:1842,0
DA:1843,0
DA:1851,0
DA:1854,0
DA:1855,0
DA:1857,0
DA:1863,0
DA:1868,0
DA:1869,0
DA:1870,0
DA:1876,1
DA:1880,1
DA:1882,0
DA:1884,0
DA:1885,0
DA:1887,0
DA:1889,0
DA:1890,0
DA:1891,0
DA:1900,1
DA:1903,1
DA:1905,1
DA:1906,2
DA:1908,1
DA:1910,1
DA:4793,1
DA:4805,1
LF:82
LH:29
end_of_record
TN:
SF:/usr/include/c++/14/bits/stl_algobase.h
FNL:0,762,771
FNA:0,0,_ZNSt20__copy_move_backwardILb1ELb1ESt26random_access_iterator_tagE13__copy_move_bI9ChallengeS3_EEPT0_PT_S7_S5_
FNF:1
FNH:0
DA:155,0
DA:185,0
DA:257,3
DA:262,3
DA:346,0
DA:347,0
DA:437,0
DA:438,0
DA:762,0
DA:764,0
DA:765,0
DA:766,0
DA:767,0
DA:769,0
DA:770,0
DA:777,0
DA:787,0
DA:795,0
DA:796,0
DA:823,0
DA:825,0
DA:913,0
DA:922,0
DA:936,1
DA:939,5
DA:940,4
DA:997,1
DA:998,1
DA:1140,1
DA:1146,1
DA:1151,1
DA:1175,1
DA:1180,1
DA:1544,1
DA:1547,2
LF:35
LH:14
end_of_record
TN:
SF:/usr/include/c++/14/bits/stl_construct.h
FNF:0
FNH:0
DA:80,4
DA:88,4
DA:94,4
DA:97,4
DA:109,1
DA:119,1
LF:6
LH:6
end_of_record
TN:
SF:/usr/include/c++/14/bits/stl_function.h
FNF:0
FNH:0
DA:404,5
DA:405,5
LF:2
LH:2
end_of_record
TN:
SF:/usr/include/c++/14/bits/stl_heap.h
FNL:0,135,147
FNA:0,0,_ZSt11__push_heapIN9__gnu_cxx17__normal_iteratorIP9ChallengeSt6vectorIS2_SaIS2_EEEElS2_NS0_5__ops14_Iter_comp_valIZ4mainEUlRKS2_SB_E_EEEvT_T0_SF_T1_RT2_
FNA:0,7,_ZSt11__push_heapIN9__gnu_cxx17__normal_iteratorIPxSt6vectorIxSaIxEEEElxNS0_5__ops14_Iter_comp_valISt4lessIxEEEEvT_T0_SD_T1_RT2_
FNL:1,198,218
FNA:1,4,_ZSt9push_heapIN9__gnu_cxx17__normal_iteratorIPxSt6vectorIxSaIxEEEESt4lessIxEEvT_S9_T0_
FNL:2,224,249
FNA:2,0,_ZSt13__adjust_heapIN9__gnu_cxx17__normal_iteratorIP9ChallengeSt6vectorIS2_SaIS2_EEEElS2_NS0_5__ops15_Iter_comp_iterIZ4mainEUlRKS2_SB_E_EEEvT_T0_SF_T1_T2_
FNA:2,3,_ZSt13__adjust_heapIN9__gnu_cxx17__normal_iteratorIPxSt6vectorIxSaIxEEEElxNS0_5__ops15_Iter_comp_iterISt4lessIxEEEEvT_T0_SD_T1_T2_
FNL:3,254,267
FNA:3,0,_ZSt10__pop_heapIN9__gnu_cxx17__normal_iteratorIP9ChallengeSt6vectorIS2_SaIS2_EEEENS0_5__ops15_Iter_comp_iterIZ4mainEUlRKS2_SB_E_EEEvT_SE_SE_RT0_
FNA:3,3,_ZSt10__pop_heapIN9__gnu_cxx17__normal_iteratorIPxSt6vectorIxSaIxEEEENS0_5__ops15_Iter_comp_iterISt4lessIxEEEEvT_SC_SC_RT0_
FNL:4,317,335
FNA:4,4,_ZSt8pop_heapIN9__gnu_cxx17__normal_iteratorIPxSt6vectorIxSaIxEEEESt4lessIxEEvT_S9_T0_
FNL:5,340,362
FNA:5,0,_ZSt11__make_heapIN9__gnu_cxx17__normal_iteratorIP9ChallengeSt6vectorIS2_SaIS2_EEEENS0_5__ops15_Iter_comp_iterIZ4mainEUlRKS2_SB_E_EEEvT_SE_RT0_
FNL:6,419,427
FNA:6,0,_ZSt11__sort_heapIN9__gnu_cxx17__normal_iteratorIP9ChallengeSt6vectorIS2_SaIS2_EEEENS0_5__ops15_Iter_comp_iterIZ4mainEUlRKS2_SB_E_EEEvT_SE_RT0_
FNF:7
FNH:5
DA:135,7
DA:139,7
DA:140,11
DA:142,4
DA:143,4
DA:144,4
DA:146,7
DA:147,7
DA:198,4
DA:215,4
DA:216,4
DA:218,4
DA:224,3
DA:227,3
DA:228,3
DA:229,3
DA:231,0
DA:232,0
DA:234,0
DA:235,0
DA:236,0
DA:238,3
DA:240,2
DA:241,2
DA:243,2
DA:247,3
DA:249,3
DA:254,3
DA:262,3
DA:263,3
DA:264,3
DA:265,3
DA:266,0
DA:267,3
DA:317,4
DA:328,4
DA:332,3
DA:333,3
DA:335,4
DA:340,0
DA:348,0
DA:351,0
DA:352,0
DA:353,0
DA:355,0
DA:356,0
DA:358,0
DA:359,0
DA:360,0
DA:419,0
DA:422,0
DA:424,0
DA:425,0
DA:427,0
LF:54
LH:33
end_of_record
TN:
SF:/usr/include/c++/14/bits/stl_iterator.h
FNF:0
FNH:0
DA:1067,7
DA:1068,13
DA:1090,7
DA:1100,4
DA:1102,0
DA:1103,4
DA:1114,9
DA:1116,9
DA:1117,6
DA:1138,4
DA:1139,8
DA:1148,4
DA:1149,4
DA:1199,0
DA:1202,0
DA:1325,17
DA:1328,17
LF:17
LH:14
end_of_record
TN:
SF:/usr/include/c++/14/bits/stl_queue.h
FNL:0,736,740
FNA:0,4,_ZNSt14priority_queueIxSt6vectorIxSaIxEESt4lessIxEE4pushERKx
FNL:1,771,776
FNA:1,4,_ZNSt14priority_queueIxSt6vectorIxSaIxEESt4lessIxEE3popEv
FNF:2
FNH:2
DA:496,1
DA:554,1
DA:555,1
DA:706,4
DA:707,4
DA:721,4
DA:724,4
DA:736,4
DA:738,4
DA:739,4
DA:740,4
DA:771,4
DA:774,4
DA:775,4
DA:776,4
LF:15
LH:15
end_of_record
TN:
SF:/usr/include/c++/14/bits/stl_uninitialized.h
FNL:0,660,671
FNA:0,1,_ZNSt27__uninitialized_default_n_1ILb1EE18__uninit_default_nIP9ChallengemEET_S4_T0_
FNF:1
FNH:1
DA:660,1
DA:662,1
DA:664,1
DA:666,1
DA:667,1
DA:668,1
DA:670,1
DA:696,1
DA:707,1
DA:712,1
DA:777,1
DA:779,1
DA:1112,3
DA:1116,3
DA:1117,3
DA:1129,2
DA:1139,3
DA:1145,5
LF:18
LH:18
end_of_record
TN:
SF:/usr/include/c++/14/bits/stl_vector.h
FNL:0,1283,1295
FNA:0,4,_ZNSt6vectorIxSaIxEE9push_backERKx
FNL:1,1906,1913
FNA:1,3,_ZNKSt6vectorIxSaIxEE12_M_check_lenEmPKc
FNL:2,366,370
FNA:2,1,_ZNSt12_Vector_baseI9ChallengeSaIS0_EED2Ev
FNA:2,1,_ZNSt12_Vector_baseIxSaIxEED2Ev
FNL:3,396,401
FNA:3,1,_ZNSt12_Vector_baseI9ChallengeSaIS0_EE17_M_create_storageEm
FNL:4,556,558
FNA:4,1,_ZNSt6vectorI9ChallengeSaIS0_EEC2EmRKS1_
FNF:5
FNH:5
DA:98,2
DA:99,2
DA:132,2
DA:136,1
DA:141,1
DA:145,1
DA:146,1
DA:300,2
DA:301,3
DA:314,1
DA:332,1
DA:333,1
DA:334,1
DA:366,2
DA:368,4
DA:369,2
DA:370,2
DA:377,4
DA:380,4
DA:385,2
DA:388,2
DA:389,2
DA:396,1
DA:398,1
DA:399,1
DA:400,1
DA:401,1
DA:504,3
DA:509,3
DA:531,1
DA:556,1
DA:557,1
DA:558,1
DA:733,2
DA:735,2
DA:736,1
DA:738,1
DA:873,12
DA:874,12
DA:883,8
DA:884,8
DA:893,12
DA:894,12
DA:903,4
DA:904,4
DA:992,3
DA:993,3
DA:1090,4
DA:1091,4
DA:1128,18
DA:1131,18
DA:1223,4
DA:1226,4
DA:1283,4
DA:1285,4
DA:1288,1
DA:1290,1
DA:1294,3
DA:1295,4
DA:1324,4
DA:1327,4
DA:1328,4
DA:1717,1
DA:1719,1
DA:1720,2
DA:1721,1
DA:1906,3
DA:1908,3
DA:1909,0
DA:1911,3
DA:1912,3
DA:1917,1
DA:1919,1
DA:1920,0
LF:74
LH:72
end_of_record
TN:
SF:/usr/include/c++/14/bits/vector.tcc
FNL:0,581,695
FNA:0,3,_ZNSt6vectorIxSaIxEE17_M_realloc_appendIJRKxEEEvDpOT_
FNL:1,612,617
FNA:1,3,_ZZNSt6vectorIxSaIxEE17_M_realloc_appendIJRKxEEEvDpOT_EN6_GuardD2Ev
FNF:2
FNH:2
DA:581,3
DA:590,3
DA:591,3
DA:592,0
DA:593,3
DA:594,3
DA:595,3
DA:596,3
DA:597,3
DA:607,3
DA:608,3
DA:612,3
DA:614,3
DA:616,2
DA:617,3
DA:624,3
DA:634,3
DA:635,3
DA:647,3
DA:648,3
DA:649,3
DA:686,3
DA:687,3
DA:688,3
DA:692,3
DA:693,3
DA:694,3
DA:695,3
LF:28
LH:27
end_of_record
TN:
SF:/usr/include/c++/14/compare
FNF:0
FNH:0
DA:1224,0
DA:1233,0
LF:2
LH:0
end_of_record
TN:
SF:/usr/include/c++/14/istream
FNF:0
FNH:0
DA:197,1
DA:198,1
LF:2
LH:2
end_of_record
TN:
SF:/usr/include/c++/14/ostream
FNF:0
FNH:0
DA:209,1
DA:210,1
LF:2
LH:2
end_of_record
