TN:
SF:/home/monika/Documents/problems/14713번： 앵무새/main.cpp
FNL:0,9,65
FNA:0,1,main
FNF:1
FNH:1
DA:9,1
DA:11,1
DA:12,1
DA:13,1
DA:15,1
DA:16,1
DA:17,4
DA:19,3
DA:20,3
DA:21,3
DA:22,15
DA:24,12
DA:26,3
DA:28,1
DA:29,1
DA:31,1
DA:32,10
DA:34,9
DA:36,15
DA:38,15
DA:40,9
DA:41,9
DA:42,9
DA:46,9
DA:48,0
DA:53,4
DA:55,3
DA:57,0
DA:58,1
DA:62,1
DA:65,1
LF:31
LH:29
end_of_record
TN:
SF:/usr/include/c++/14/bits/alloc_traits.h
FNF:0
FNH:0
DA:514,8
DA:515,7
DA:549,9
DA:550,9
DA:566,9
DA:577,9
DA:581,0
DA:593,9
DA:599,9
DA:626,9
DA:627,9
DA:990,4
DA:993,1
LF:13
LH:12
end_of_record
TN:
SF:/usr/include/c++/14/bits/allocator.h
FNF:0
FNH:0
DA:161,5
DA:165,9
DA:176,6
DA:182,34
DA:187,3
DA:196,8
DA:201,9
DA:208,9
LF:8
LH:8
end_of_record
TN:
SF:/usr/include/c++/14/bits/basic_ios.h
FNF:0
FNH:0
DA:121,22
DA:122,22
DA:141,22
DA:142,22
DA:205,22
DA:206,22
LF:6
LH:6
end_of_record
TN:
SF:/usr/include/c++/14/bits/basic_string.h
FNL:0,285,289
FNA:0,17,_ZNSt7__cxx1112basic_stringIcSt11char_traitsIcESaIcEE10_M_disposeEv
FNL:1,3755,3761
FNA:1,15,_ZSteqIcSt11char_traitsIcESaIcEEbRKNSt7__cxx1112basic_stringIT_T0_T1_EESA_
FNL:2,430,436
FNA:2,12,_ZNSt7__cxx1112basic_stringIcSt11char_traitsIcESaIcEE7_S_copyEPcPKcm
FNL:3,552,558
FNA:3,9,_ZNSt7__cxx1112basic_stringIcSt11char_traitsIcESaIcEEC2ERKS4_
FNL:4,624,633
FNA:4,3,_ZNSt7__cxx1112basic_stringIcSt11char_traitsIcESaIcEEC2EPKcmRKS3_
FNF:5
FNH:5
DA:129,1
DA:131,1
DA:186,14
DA:193,3
DA:194,3
DA:197,14
DA:198,14
DA:217,1
DA:218,1
DA:222,17
DA:223,17
DA:227,61
DA:228,12
DA:232,17
DA:235,9
DA:243,17
DA:246,17
DA:254,1
DA:255,1
DA:259,17
DA:261,17
DA:262,17
DA:267,17
DA:269,17
DA:271,15
DA:272,0
DA:285,17
DA:287,19
DA:288,2
DA:289,17
DA:293,2
DA:294,2
DA:342,3
DA:346,9
DA:347,9
DA:353,5
DA:430,12
DA:432,12
DA:433,1
DA:435,12
DA:436,12
DA:482,9
DA:483,9
DA:487,3
DA:489,3
DA:527,5
DA:529,4
DA:531,5
DA:532,5
DA:533,4
DA:552,9
DA:553,9
DA:554,9
DA:556,9
DA:558,9
DA:624,3
DA:626,3
DA:629,3
DA:630,0
DA:632,3
DA:633,3
DA:808,14
DA:809,13
DA:1076,15
DA:1077,15
DA:1083,9
DA:1084,9
DA:2653,11
DA:2654,11
DA:3755,15
DA:3759,15
DA:3760,15
LF:72
LH:70
end_of_record
TN:
SF:/usr/include/c++/14/bits/basic_string.tcc
FNL:0,138,160
FNA:0,1,_ZNSt7__cxx1112basic_stringIcSt11char_traitsIcESaIcEE9_M_createERmm
FNL:1,221,252
FNA:1,3,_ZNSt7__cxx1112basic_stringIcSt11char_traitsIcESaIcEE12_M_constructIPKcEEvT_S8_St20forward_iterator_tag
FNA:1,9,_ZNSt7__cxx1112basic_stringIcSt11char_traitsIcESaIcEE12_M_constructIPcEEvT_S7_St20forward_iterator_tag
FNF:2
FNH:2
DA:138,1
DA:143,1
DA:144,0
DA:149,1
DA:151,0
DA:153,0
DA:154,0
DA:159,1
DA:221,12
DA:225,12
DA:227,12
DA:229,1
DA:230,1
DA:239,12
DA:242,12
DA:245,12
DA:247,12
DA:249,12
DA:251,12
DA:252,12
LF:20
LH:16
end_of_record
TN:
SF:/usr/include/c++/14/bits/char_traits.h
FNF:0
FNH:0
DA:343,18
DA:346,18
DA:350,6
DA:351,1
DA:366,11
DA:368,11
DA:371,11
DA:381,11
DA:419,11
DA:421,11
DA:424,11
DA:427,11
LF:12
LH:12
end_of_record
TN:
SF:/usr/include/c++/14/bits/deque.tcc
FNL:0,484,516
FNA:0,0,_ZNSt5dequeINSt7__cxx1112basic_stringIcSt11char_traitsIcESaIcEEESaIS5_EE16_M_push_back_auxIJRKS5_EEEvDpOT_
FNL:1,576,584
FNA:1,0,_ZNSt5dequeINSt7__cxx1112basic_stringIcSt11char_traitsIcESaIcEEESaIS5_EE16_M_pop_front_auxEv
FNL:2,862,880
FNA:2,3,_ZNSt5dequeINSt7__cxx1112basic_stringIcSt11char_traitsIcESaIcEEESaIS5_EE19_M_destroy_data_auxESt15_Deque_iteratorIS5_RS5_PS5_ESB_
FNL:3,934,976
FNA:3,0,_ZNSt5dequeINSt7__cxx1112basic_stringIcSt11char_traitsIcESaIcEEESaIS5_EE17_M_reallocate_mapEmb
FNF:4
FNH:1
DA:484,0
DA:492,0
DA:493,0
DA:496,0
DA:497,0
DA:501,0
DA:507,0
DA:509,0
DA:511,0
DA:513,0
DA:514,0
DA:516,0
DA:576,0
DA:579,0
DA:581,0
DA:582,0
DA:583,0
DA:584,0
DA:862,3
DA:865,3
DA:866,3
DA:867,0
DA:868,0
DA:870,3
DA:872,0
DA:873,0
DA:874,3
DA:875,0
DA:878,6
DA:879,3
DA:880,3
DA:934,0
DA:937,0
DA:938,0
DA:939,0
DA:942,0
DA:944,0
DA:945,0
DA:946,0
DA:947,0
DA:948,0
DA:952,0
DA:958,0
DA:959,0
DA:962,0
DA:963,0
DA:964,0
DA:965,0
DA:966,0
DA:968,0
DA:970,0
DA:971,0
DA:974,0
DA:975,0
DA:976,0
LF:55
LH:8
end_of_record
TN:
SF:/usr/include/c++/14/bits/ios_base.h
FNF:0
FNH:0
DA:181,22
DA:182,22
LF:2
LH:2
end_of_record
TN:
SF:/usr/include/c++/14/bits/locale_facets.h
FNL:0,1092,1093
FNA:0,1,_ZNKSt5ctypeIcE8do_widenEc
FNL:1,880,886
FNA:1,4,_ZNKSt5ctypeIcE5widenEc
FNF:2
FNH:2
DA:880,4
DA:882,4
DA:883,3
DA:884,1
DA:885,1
DA:1092,1
DA:1093,1
LF:7
LH:7
end_of_record
TN:
SF:/usr/include/c++/14/bits/new_allocator.h
FNL:0,126,152
FNA:0,3,_ZNSt15__new_allocatorIPNSt7__cxx1112basic_stringIcSt11char_traitsIcESaIcEEEE8allocateEmPKv
FNA:0,1,_ZNSt15__new_allocatorISt5queueINSt7__cxx1112basic_stringIcSt11char_traitsIcESaIcEEESt5dequeIS6_SaIS6_EEEE8allocateEmPKv
FNF:1
FNH:1
DA:126,8
DA:134,5
DA:138,0
DA:139,0
DA:140,0
DA:151,8
DA:156,9
DA:172,9
LF:8
LH:5
end_of_record
TN:
SF:/usr/include/c++/14/bits/stl_algobase.h
FNL:0,448,457
FNA:0,0,_ZNSt11__copy_moveILb0ELb1ESt26random_access_iterator_tagE8__copy_mIPNSt7__cxx1112basic_stringIcSt11char_traitsIcESaIcEEES9_EEPT0_PT_SD_SB_
FNL:1,762,771
FNA:1,0,_ZNSt20__copy_move_backwardILb0ELb1ESt26random_access_iterator_tagE13__copy_move_bIPNSt7__cxx1112basic_stringIcSt11char_traitsIcESaIcEEES9_EEPT0_PT_SD_SB_
FNF:2
FNH:0
DA:257,3
DA:262,3
DA:412,0
DA:413,0
DA:448,0
DA:450,0
DA:451,0
DA:452,0
DA:453,0
DA:455,0
DA:456,0
DA:512,0
DA:521,0
DA:547,0
DA:548,0
DA:553,0
DA:555,0
DA:642,0
DA:651,0
DA:762,0
DA:764,0
DA:765,0
DA:766,0
DA:767,0
DA:769,0
DA:770,0
DA:777,0
DA:787,0
DA:795,0
DA:796,0
DA:823,0
DA:825,0
DA:878,0
DA:888,0
LF:34
LH:2
end_of_record
TN:
SF:/usr/include/c++/14/bits/stl_construct.h
FNF:0
FNH:0
DA:80,9
DA:88,9
DA:94,9
DA:97,9
DA:109,3
DA:119,3
DA:146,3
DA:149,3
DA:160,4
DA:162,7
DA:163,3
DA:182,4
DA:196,1
LF:13
LH:13
end_of_record
TN:
SF:/usr/include/c++/14/bits/stl_deque.h
FNL:0,1027,1028
FNA:0,3,_ZNSt5dequeINSt7__cxx1112basic_stringIcSt11char_traitsIcESaIcEEESaIS5_EED2Ev
FNL:1,1538,1549
FNA:1,9,_ZNSt5dequeINSt7__cxx1112basic_stringIcSt11char_traitsIcESaIcEEESaIS5_EE9push_backERKS5_
FNL:2,1574,1586
FNA:2,9,_ZNSt5dequeINSt7__cxx1112basic_stringIcSt11char_traitsIcESaIcEEESaIS5_EE9pop_frontEv
FNL:3,2087,2092
FNA:3,3,_ZNSt5dequeINSt7__cxx1112basic_stringIcSt11char_traitsIcESaIcEEESaIS5_EE15_M_destroy_dataESt15_Deque_iteratorIS5_RS5_PS5_ESB_RKS6_
FNL:4,2168,2173
FNA:4,0,_ZNSt5dequeINSt7__cxx1112basic_stringIcSt11char_traitsIcESaIcEEESaIS5_EE22_M_reserve_map_at_backEm
FNL:5,370,376
FNA:5,0,_ZStmiRKSt15_Deque_iteratorINSt7__cxx1112basic_stringIcSt11char_traitsIcESaIcEEERS5_PS5_ESA_
FNL:6,458,460
FNA:6,3,_ZNSt11_Deque_baseINSt7__cxx1112basic_stringIcSt11char_traitsIcESaIcEEESaIS5_EEC2Ev
FNL:7,617,626
FNA:7,3,_ZNSt11_Deque_baseINSt7__cxx1112basic_stringIcSt11char_traitsIcESaIcEEESaIS5_EED2Ev
FNL:8,638,673
FNA:8,3,_ZNSt11_Deque_baseINSt7__cxx1112basic_stringIcSt11char_traitsIcESaIcEEESaIS5_EE17_M_initialize_mapEm
FNL:9,677,691
FNA:9,3,_ZNSt11_Deque_baseINSt7__cxx1112basic_stringIcSt11char_traitsIcESaIcEEESaIS5_EE15_M_create_nodesEPPS5_S9_
FNF:10
FNH:8
DA:151,3
DA:152,3
DA:168,21
DA:169,21
DA:170,21
DA:263,3
DA:265,3
DA:266,3
DA:267,0
DA:272,18
DA:273,18
DA:370,0
DA:373,0
DA:374,0
DA:375,0
DA:458,3
DA:459,3
DA:460,6
DA:516,3
DA:517,3
DA:542,3
DA:545,3
DA:547,3
DA:568,3
DA:569,3
DA:576,6
DA:577,6
DA:580,3
DA:583,3
DA:587,3
DA:590,0
DA:594,0
DA:596,3
DA:597,3
DA:601,0
DA:603,3
DA:604,3
DA:605,3
DA:617,3
DA:620,3
DA:622,6
DA:623,3
DA:624,3
DA:626,3
DA:638,3
DA:641,3
DA:644,3
DA:645,3
DA:646,3
DA:653,3
DA:654,3
DA:655,3
DA:658,3
DA:659,0
DA:661,0
DA:662,0
DA:663,0
DA:664,0
DA:667,3
DA:668,3
DA:669,3
DA:670,3
DA:671,3
DA:672,3
DA:673,3
DA:677,3
DA:683,6
DA:684,3
DA:686,0
DA:688,0
DA:689,0
DA:691,3
DA:695,3
DA:699,6
DA:700,3
DA:855,3
DA:1027,3
DA:1028,3
DA:1151,18
DA:1152,18
DA:1170,3
DA:1171,3
DA:1268,0
DA:1269,0
DA:1275,0
DA:1347,18
DA:1348,18
DA:1444,15
DA:1447,15
DA:1538,9
DA:1540,9
DA:1541,9
DA:1543,9
DA:1545,9
DA:1548,0
DA:1549,9
DA:1574,9
DA:1577,9
DA:1578,9
DA:1580,9
DA:1582,9
DA:1585,0
DA:1586,9
DA:2087,3
DA:2091,3
DA:2092,3
DA:2168,0
DA:2170,0
DA:2171,0
DA:2172,0
DA:2173,0
LF:111
LH:85
end_of_record
TN:
SF:/usr/include/c++/14/bits/stl_iterator.h
FNF:0
FNH:0
DA:1067,10
DA:1068,10
DA:1100,9
DA:1102,9
DA:1103,9
LF:5
LH:5
end_of_record
TN:
SF:/usr/include/c++/14/bits/stl_iterator_base_funcs.h
FNF:0
FNH:0
DA:100,12
DA:106,12
DA:148,12
DA:151,12
LF:4
LH:4
end_of_record
TN:
SF:/usr/include/c++/14/bits/stl_queue.h
FNL:0,166,167
FNA:0,3,_ZNSt5queueINSt7__cxx1112basic_stringIcSt11char_traitsIcESaIcEEESt5dequeIS5_SaIS5_EEEC2IS8_vEEv
FNF:1
FNH:1
DA:96,3
DA:166,3
DA:167,3
DA:216,18
DA:217,18
DA:231,15
DA:234,15
DA:283,9
DA:284,9
DA:316,9
DA:319,9
LF:11
LH:11
end_of_record
TN:
SF:/usr/include/c++/14/bits/stl_uninitialized.h
FNL:0,637,651
FNA:0,1,_ZNSt27__uninitialized_default_n_1ILb0EE18__uninit_default_nIPSt5queueINSt7__cxx1112basic_stringIcSt11char_traitsIcESaIcEEESt5dequeIS8_SaIS8_EEEmEET_SE_T0_
FNF:1
FNH:1
DA:637,1
DA:639,1
DA:642,4
DA:643,3
DA:644,1
DA:646,0
DA:648,0
DA:649,0
DA:696,1
DA:707,1
DA:712,1
DA:777,1
DA:779,1
LF:13
LH:10
end_of_record
TN:
SF:/usr/include/c++/14/bits/stl_vector.h
FNL:0,366,370
FNA:0,1,_ZNSt12_Vector_baseISt5queueINSt7__cxx1112basic_stringIcSt11char_traitsIcESaIcEEESt5dequeIS6_SaIS6_EEESaISA_EED2Ev
FNL:1,396,401
FNA:1,1,_ZNSt12_Vector_baseISt5queueINSt7__cxx1112basic_stringIcSt11char_traitsIcESaIcEEESt5dequeIS6_SaIS6_EEESaISA_EE17_M_create_storageEm
FNL:2,556,558
FNA:2,1,_ZNSt6vectorISt5queueINSt7__cxx1112basic_stringIcSt11char_traitsIcESaIcEEESt5dequeIS6_SaIS6_EEESaISA_EEC2EmRKSB_
FNL:3,733,738
FNA:3,1,_ZNSt6vectorISt5queueINSt7__cxx1112basic_stringIcSt11char_traitsIcESaIcEEESt5dequeIS6_SaIS6_EEESaISA_EED2Ev
FNF:4
FNH:4
DA:98,1
DA:99,1
DA:132,1
DA:145,1
DA:146,1
DA:300,1
DA:332,1
DA:333,1
DA:334,1
DA:366,1
DA:368,2
DA:369,1
DA:370,1
DA:377,1
DA:380,1
DA:385,1
DA:388,1
DA:389,1
DA:396,1
DA:398,1
DA:399,1
DA:400,1
DA:401,1
DA:556,1
DA:557,1
DA:558,0
DA:733,1
DA:735,2
DA:736,1
DA:738,1
DA:873,10
DA:874,10
DA:893,10
DA:894,10
DA:1128,9
DA:1131,9
DA:1717,1
DA:1719,1
DA:1720,1
DA:1721,1
DA:1917,1
DA:1919,1
DA:1920,0
LF:43
LH:41
end_of_record
TN:
SF:/usr/include/c++/14/ext/alloc_traits.h
FNF:0
FNH:0
DA:97,9
DA:98,9
LF:2
LH:2
end_of_record
TN:
SF:/usr/include/c++/14/sstream
FNF:0
FNH:0
LF:0
LH:0
end_of_record
TN:
SF:/usr/include/c++/14/streambuf
FNF:0
FNH:0
LF:0
LH:0
end_of_record
