TN:
SF:/home/monika/Documents/problems/16021번： Choose your own path/main.cpp
FNL:0,8,72
FNA:0,1,main
FNF:1
FNH:1
DA:8,1
DA:10,1
DA:11,1
DA:14,1
DA:16,1
DA:17,4
DA:20,3
DA:22,3
DA:23,5
DA:25,2
DA:26,2
DA:30,1
DA:31,1
DA:32,1
DA:34,1
DA:35,1
DA:36,1
DA:38,1
DA:40,4
DA:42,3
DA:43,3
DA:45,3
DA:47,2
DA:48,1
DA:51,5
DA:53,2
DA:55,2
DA:56,2
DA:57,2
DA:62,1
DA:63,4
DA:64,3
DA:66,0
DA:67,0
DA:69,1
DA:70,1
DA:71,1
DA:72,1
LF:38
LH:36
end_of_record
TN:
SF:/usr/include/c++/14/bits/alloc_traits.h
FNF:0
FNH:0
DA:515,6
DA:550,6
DA:577,3
DA:581,3
DA:599,3
DA:601,3
DA:993,5
DA:994,5
LF:8
LH:8
end_of_record
TN:
SF:/usr/include/c++/14/bits/allocator.h
FNF:0
FNH:0
DA:161,7
DA:166,5
DA:176,3
DA:182,8
DA:189,6
DA:191,0
DA:192,0
DA:193,0
DA:196,6
DA:203,6
DA:205,0
DA:206,0
DA:208,6
LF:13
LH:8
end_of_record
TN:
SF:/usr/include/c++/14/bits/cpp_type_traits.h
FNL:0,608,609
FNA:0,0,_ZSt12__miter_baseIPPiET_S2_
FNF:1
FNH:0
DA:608,0
DA:609,0
LF:2
LH:0
end_of_record
TN:
SF:/usr/include/c++/14/bits/deque.tcc
FNL:0,164,180
FNA:0,1,_ZNSt5dequeIiSaIiEE12emplace_backIJiEEERiDpOT_
FNL:1,484,516
FNA:1,0,_ZNSt5dequeIiSaIiEE16_M_push_back_auxIJRKiEEEvDpOT_
FNA:1,0,_ZNSt5dequeIiSaIiEE16_M_push_back_auxIJiEEEvDpOT_
FNL:2,576,584
FNA:2,0,_ZNSt5dequeIiSaIiEE16_M_pop_front_auxEv
FNL:3,934,976
FNA:3,0,_ZNSt5dequeIiSaIiEE17_M_reallocate_mapEmb
FNF:4
FNH:1
DA:164,1
DA:167,1
DA:168,1
DA:170,1
DA:173,1
DA:176,0
DA:178,1
DA:484,0
DA:492,0
DA:493,0
DA:496,0
DA:497,0
DA:501,0
DA:507,0
DA:509,0
DA:516,0
DA:576,0
DA:579,0
DA:581,0
DA:582,0
DA:583,0
DA:584,0
DA:934,0
DA:937,0
DA:938,0
DA:939,0
DA:942,0
DA:944,0
DA:945,0
DA:946,0
DA:947,0
DA:948,0
DA:949,0
DA:952,0
DA:953,0
DA:954,0
DA:958,0
DA:959,0
DA:962,0
DA:963,0
DA:964,0
DA:965,0
DA:966,0
DA:968,0
DA:970,0
DA:971,0
DA:974,0
DA:975,0
DA:976,0
LF:49
LH:6
end_of_record
TN:
SF:/usr/include/c++/14/bits/move.h
FNL:0,137,138
FNA:0,2,_ZSt4moveIRiEONSt16remove_referenceIT_E4typeEOS2_
FNL:1,51,52
FNA:1,6,_ZSt11__addressofISt6vectorIiSaIiEEEPT_RS3_
FNA:1,1,_ZSt11__addressofIiEPT_RS0_
FNA:1,3,_ZSt11__addressofImEPT_RS0_
FNL:2,71,72
FNA:2,4,_ZSt7forwardIRKiEOT_RNSt16remove_referenceIS2_E4typeE
FNA:2,3,_ZSt7forwardIiEOT_RNSt16remove_referenceIS0_E4typeE
FNF:3
FNH:3
DA:51,10
DA:52,10
DA:71,7
DA:72,7
DA:137,2
DA:138,2
LF:6
LH:6
end_of_record
TN:
SF:/usr/include/c++/14/bits/new_allocator.h
FNL:0,126,152
FNA:0,1,_ZNSt15__new_allocatorIPiE8allocateEmPKv
FNA:0,1,_ZNSt15__new_allocatorISt6vectorIiSaIiEEE8allocateEmPKv
FNA:0,3,_ZNSt15__new_allocatorIiE8allocateEmPKv
FNA:0,1,_ZNSt15__new_allocatorImE8allocateEmPKv
FNL:1,156,173
FNA:1,1,_ZNSt15__new_allocatorIPiE10deallocateEPS0_m
FNA:1,1,_ZNSt15__new_allocatorISt6vectorIiSaIiEEE10deallocateEPS2_m
FNA:1,3,_ZNSt15__new_allocatorIiE10deallocateEPim
FNA:1,1,_ZNSt15__new_allocatorImE10deallocateEPmm
FNF:2
FNH:2
DA:88,10
DA:92,5
DA:126,6
DA:134,6
DA:138,0
DA:139,0
DA:140,0
DA:151,6
DA:156,6
DA:172,6
DA:233,6
LF:11
LH:8
end_of_record
TN:
SF:/usr/include/c++/14/bits/ptr_traits.h
FNL:0,205,209
FNA:0,0,_ZSt12__to_addressImEPT_S1_
FNL:1,241,242
FNA:1,0,_ZSt10to_addressImEPT_S1_
FNF:2
FNH:0
DA:205,0
DA:208,0
DA:241,0
DA:242,0
LF:4
LH:0
end_of_record
TN:
SF:/usr/include/c++/14/bits/stl_algobase.h
FNL:0,1040,1040
FNA:0,2,_ZSt17__size_to_integerm
FNL:1,1140,1153
FNA:1,2,_ZSt10__fill_n_aIPimiET_S1_T0_RKT1_St26random_access_iterator_tag
FNL:2,1175,1182
FNA:2,2,_ZSt6fill_nIPimiET_S1_T0_RKT1_
FNL:3,233,241
FNA:3,6,_ZSt3minImERKT_S2_S2_
FNL:4,257,265
FNA:4,2,_ZSt3maxImERKT_S2_S2_
FNL:5,316,318
FNA:5,0,_ZSt12__niter_baseIPPiET_S2_
FNA:5,3,_ZSt12__niter_baseIPiET_S1_
FNL:6,353,354
FNA:6,0,_ZSt12__niter_wrapIPPiET_RKS2_S2_
FNL:7,398,408
FNA:7,0,_ZNSt11__copy_moveILb0ELb0ESt26random_access_iterator_tagE8__copy_mIPPiS4_EET0_T_S6_S5_
FNL:8,412,413
FNA:8,0,_ZNSt11__copy_moveILb0ELb0ESt26random_access_iterator_tagE12__assign_oneIPiS3_EEvPT_PT0_
FNL:9,448,457
FNA:9,0,_ZNSt11__copy_moveILb0ELb1ESt26random_access_iterator_tagE8__copy_mIPiS3_EEPT0_PT_S7_S5_
FNL:10,512,522
FNA:10,0,_ZSt14__copy_move_a2ILb0EPPiS1_ET1_T0_S3_S2_
FNL:11,547,548
FNA:11,0,_ZSt14__copy_move_a1ILb0EPPiS1_ET1_T0_S3_S2_
FNL:12,553,559
FNA:12,0,_ZSt13__copy_move_aILb0EPPiS1_ET1_T0_S3_S2_
FNL:13,642,652
FNA:13,0,_ZSt4copyIPPiS1_ET0_T_S3_S2_
FNL:14,728,735
FNA:14,0,_ZNSt20__copy_move_backwardILb0ELb0ESt26random_access_iterator_tagE13__copy_move_bIPPiS4_EET0_T_S6_S5_
FNL:15,762,771
FNA:15,0,_ZNSt20__copy_move_backwardILb0ELb1ESt26random_access_iterator_tagE13__copy_move_bIPiS3_EEPT0_PT_S7_S5_
FNL:16,777,790
FNA:16,0,_ZSt23__copy_move_backward_a2ILb0EPPiS1_ET1_T0_S3_S2_
FNL:17,795,796
FNA:17,0,_ZSt23__copy_move_backward_a1ILb0EPPiS1_ET1_T0_S3_S2_
FNL:18,823,829
FNA:18,0,_ZSt22__copy_move_backward_aILb0EPPiS1_ET1_T0_S3_S2_
FNL:19,878,889
FNA:19,0,_ZSt13copy_backwardIPPiS1_ET0_T_S3_S2_
FNL:20,947,953
FNA:20,2,_ZSt9__fill_a1IPiiEN9__gnu_cxx11__enable_ifIXsrSt11__is_scalarIT0_E7__valueEvE6__typeET_S8_RKS4_
FNL:21,997,998
FNA:21,2,_ZSt8__fill_aIPiiEvT_S1_RKT0_
FNF:22
FNH:8
DA:233,6
DA:238,6
DA:239,0
DA:240,6
DA:257,2
DA:262,2
DA:263,1
DA:264,1
DA:316,3
DA:318,3
DA:353,0
DA:354,0
DA:398,0
DA:401,0
DA:403,0
DA:404,0
DA:405,0
DA:407,0
DA:412,0
DA:413,0
DA:448,0
DA:450,0
DA:451,0
DA:452,0
DA:453,0
DA:455,0
DA:456,0
DA:512,0
DA:516,0
DA:518,0
DA:521,0
DA:547,0
DA:548,0
DA:553,0
DA:555,0
DA:558,0
DA:642,0
DA:651,0
DA:728,0
DA:731,0
DA:732,0
DA:733,0
DA:734,0
DA:762,0
DA:764,0
DA:765,0
DA:766,0
DA:767,0
DA:769,0
DA:770,0
DA:777,0
DA:781,0
DA:783,0
DA:787,0
DA:789,0
DA:795,0
DA:796,0
DA:823,0
DA:825,0
DA:828,0
DA:878,0
DA:888,0
DA:947,2
DA:950,2
DA:951,6
DA:952,4
DA:953,2
DA:997,2
DA:998,2
DA:1040,2
DA:1140,2
DA:1146,2
DA:1147,0
DA:1151,2
DA:1152,2
DA:1175,2
DA:1180,2
DA:1181,4
LF:78
LH:24
end_of_record
TN:
SF:/usr/include/c++/14/bits/stl_bvector.h
FNL:0,1005,1006
FNA:0,1,_ZNSt6vectorIbSaIbEE3endEv
FNL:1,104,111
FNA:1,3,_ZNSt14_Bit_referenceaSEb
FNL:2,1086,1087
FNA:2,5,_ZNSt6vectorIbSaIbEEixEm
FNL:3,1349,1359
FNA:3,1,_ZNSt6vectorIbSaIbEE13_M_initializeEm
FNL:4,1363,1367
FNA:4,1,_ZNSt6vectorIbSaIbEE19_M_initialize_valueEb
FNL:5,1587,1598
FNA:5,1,_ZSt16__fill_bvector_nPmmb
FNL:6,195,196
FNA:6,11,_ZNSt18_Bit_iterator_baseC2EPmj
FNL:7,200,208
FNA:7,3,_ZNSt18_Bit_iterator_base10_M_bump_upEv
FNL:8,224,236
FNA:8,6,_ZNSt18_Bit_iterator_base7_M_incrEl
FNL:9,240,245
FNA:9,4,_ZSteqRKSt18_Bit_iterator_baseS1_
FNL:10,313,313
FNA:10,4,_ZNSt13_Bit_iteratorC2Ev
FNL:11,316,317
FNA:11,7,_ZNSt13_Bit_iteratorC2EPmj
FNL:12,326,330
FNA:12,8,_ZNKSt13_Bit_iteratordeEv
FNL:13,334,338
FNA:13,3,_ZNSt13_Bit_iteratorppEv
FNL:14,368,372
FNA:14,6,_ZNSt13_Bit_iteratorpLEl
FNL:15,384,385
FNA:15,5,_ZNKSt13_Bit_iteratorixEl
FNL:16,389,394
FNA:16,6,_ZStplRKSt13_Bit_iteratorl
FNL:17,551,553
FNA:17,2,_ZNSt13_Bvector_baseISaIbEE18_Bvector_impl_dataC2Ev
FNL:18,577,578
FNA:18,1,_ZNSt13_Bvector_baseISaIbEE18_Bvector_impl_data8_M_resetEv
FNL:19,603,605
FNA:19,1,_ZNSt13_Bvector_baseISaIbEE13_Bvector_implC2ERKSaImE
FNL:20,623,628
FNA:20,2,_ZNKSt13_Bvector_baseISaIbEE13_Bvector_impl11_M_end_addrEv
FNL:21,656,657
FNA:21,1,_ZNSt13_Bvector_baseISaIbEEC2ERKS0_
FNL:22,669,670
FNA:22,1,_ZNSt13_Bvector_baseISaIbEED2Ev
FNL:23,677,689
FNA:23,1,_ZNSt13_Bvector_baseISaIbEE11_M_allocateEm
FNL:24,693,703
FNA:24,1,_ZNSt13_Bvector_baseISaIbEE13_M_deallocateEv
FNL:25,714,715
FNA:25,2,_ZNSt13_Bvector_baseISaIbEE8_S_nwordEm
FNL:26,795,806
FNA:26,1,_ZNSt6vectorIbSaIbEEC2EmRKbRKS0_
FNL:27,88,89
FNA:27,8,_ZNSt14_Bit_referenceC2EPmm
FNL:28,890,890
FNA:28,1,_ZNSt6vectorIbSaIbEED2Ev
FNL:29,99,100
FNA:29,5,_ZNKSt14_Bit_referencecvbEv
FNL:30,995,996
FNA:30,6,_ZNSt6vectorIbSaIbEE5beginEv
FNF:31
FNH:31
DA:88,8
DA:89,8
DA:99,5
DA:100,5
DA:104,3
DA:106,3
DA:107,3
DA:109,0
DA:110,3
DA:189,25
DA:190,4
DA:192,25
DA:195,11
DA:196,11
DA:200,3
DA:203,3
DA:205,0
DA:206,0
DA:208,3
DA:224,6
DA:227,6
DA:228,6
DA:229,6
DA:230,6
DA:232,0
DA:233,0
DA:235,6
DA:236,6
DA:240,4
DA:244,4
DA:313,4
DA:316,7
DA:317,7
DA:326,8
DA:328,8
DA:329,8
DA:334,3
DA:336,3
DA:337,3
DA:368,6
DA:370,6
DA:371,6
DA:384,5
DA:385,5
DA:389,6
DA:391,6
DA:392,6
DA:393,6
DA:551,2
DA:552,2
DA:553,2
DA:577,1
DA:578,1
DA:603,1
DA:604,1
DA:605,1
DA:623,2
DA:625,2
DA:626,2
DA:627,0
DA:656,1
DA:657,2
DA:669,1
DA:670,1
DA:677,1
DA:679,1
DA:681,1
DA:683,0
DA:684,0
DA:685,0
DA:688,1
DA:693,1
DA:695,1
DA:697,1
DA:698,1
DA:699,1
DA:701,1
DA:703,1
DA:714,2
DA:715,2
DA:795,1
DA:802,1
DA:804,1
DA:805,1
DA:806,1
DA:890,1
DA:995,6
DA:996,6
DA:1005,1
DA:1006,1
DA:1086,5
DA:1087,5
DA:1349,1
DA:1351,1
DA:1353,1
DA:1354,1
DA:1355,1
DA:1356,1
DA:1357,1
DA:1359,1
DA:1363,1
DA:1365,1
DA:1366,1
DA:1367,1
DA:1587,1
DA:1590,1
DA:1592,0
DA:1593,0
DA:1594,0
DA:1597,1
LF:110
LH:98
end_of_record
TN:
SF:/usr/include/c++/14/bits/stl_construct.h
FNL:0,109,120
FNA:0,3,_ZSt10_ConstructISt6vectorIiSaIiEEJEEvPT_DpOT0_
FNA:0,1,_ZSt10_ConstructIiJEEvPT_DpOT0_
FNA:0,0,_ZSt10_ConstructIiJRKiEEvPT_DpOT0_
FNL:1,146,153
FNA:1,3,_ZSt8_DestroyISt6vectorIiSaIiEEEvPT_
FNA:1,0,_ZSt8_DestroyIiEvPT_
FNL:2,160,164
FNA:2,1,_ZNSt12_Destroy_auxILb0EE9__destroyIPSt6vectorIiSaIiEEEEvT_S6_
FNA:2,0,_ZNSt12_Destroy_auxILb0EE9__destroyIPiEEvT_S3_
FNL:3,172,172
FNA:3,4,_ZNSt12_Destroy_auxILb1EE9__destroyIPiEEvT_S3_
FNL:4,182,197
FNA:4,1,_ZSt8_DestroyIPSt6vectorIiSaIiEEEvT_S4_
FNA:4,4,_ZSt8_DestroyIPiEvT_S1_
FNL:5,80,89
FNA:5,3,_ZSt10destroy_atISt6vectorIiSaIiEEEvPT_
FNA:5,3,_ZSt10destroy_atIiEvPT_
FNL:6,94,97
FNA:6,0,_ZSt12construct_atISt6vectorIiSaIiEEJEEDTgsnwcvPvLi0E_T_pispcl7declvalIT0_EEEEPS4_DpOS5_
FNA:6,0,_ZSt12construct_atIiJEEDTgsnwcvPvLi0E_T_pispcl7declvalIT0_EEEEPS1_DpOS2_
FNA:6,2,_ZSt12construct_atIiJRKiEEDTgsnwcvPvLi0E_T_pispcl7declvalIT0_EEEEPS3_DpOS4_
FNA:6,1,_ZSt12construct_atIiJiEEDTgsnwcvPvLi0E_T_pispcl7declvalIT0_EEEEPS1_DpOS2_
FNA:6,0,_ZSt12construct_atImJEEDTgsnwcvPvLi0E_T_pispcl7declvalIT0_EEEEPS1_DpOS2_
FNF:7
FNH:7
DA:80,6
DA:88,6
DA:89,6
DA:94,3
DA:97,3
DA:109,4
DA:112,4
DA:115,0
DA:116,0
DA:119,4
DA:146,3
DA:149,3
DA:153,3
DA:160,1
DA:162,4
DA:163,3
DA:164,1
DA:172,4
DA:182,5
DA:192,5
DA:193,0
DA:196,5
LF:22
LH:19
end_of_record
TN:
SF:/usr/include/c++/14/bits/stl_deque.h
FNL:0,1027,1028
FNA:0,1,_ZNSt5dequeIiSaIiEED2Ev
FNL:1,1151,1152
FNA:1,4,_ZNSt5dequeIiSaIiEE5beginEv
FNL:2,1170,1171
FNA:2,2,_ZNSt5dequeIiSaIiEE3endEv
FNL:3,1268,1269
FNA:3,0,_ZNKSt5dequeIiSaIiEE4sizeEv
FNL:4,1274,1275
FNA:4,0,_ZNKSt5dequeIiSaIiEE8max_sizeEv
FNL:5,131,132
FNA:5,2,_ZNSt15_Deque_iteratorIiRiPiE14_S_buffer_sizeEv
FNL:6,1347,1348
FNA:6,4,_ZNKSt5dequeIiSaIiEE5emptyEv
FNL:7,1444,1448
FNA:7,3,_ZNSt5dequeIiSaIiEE5frontEv
FNL:8,1468,1474
FNA:8,1,_ZNSt5dequeIiSaIiEE4backEv
FNL:9,151,152
FNA:9,2,_ZNSt15_Deque_iteratorIiRiPiEC2Ev
FNL:10,1538,1549
FNA:10,2,_ZNSt5dequeIiSaIiEE9push_backERKi
FNL:11,1553,1554
FNA:11,1,_ZNSt5dequeIiSaIiEE9push_backEOi
FNL:12,1574,1586
FNA:12,3,_ZNSt5dequeIiSaIiEE9pop_frontEv
FNL:13,168,170
FNA:13,6,_ZNSt15_Deque_iteratorIiRiPiEC2ERKS2_
FNL:14,181,182
FNA:14,4,_ZNKSt15_Deque_iteratorIiRiPiEdeEv
FNL:15,1876,1881
FNA:15,0,_ZNSt5dequeIiSaIiEE11_S_max_sizeERKS0_
FNL:16,2087,2092
FNA:16,1,_ZNSt5dequeIiSaIiEE15_M_destroy_dataESt15_Deque_iteratorIiRiPiES5_RKS0_
FNL:17,210,219
FNA:17,1,_ZNSt15_Deque_iteratorIiRiPiEmmEv
FNL:18,2168,2173
FNA:18,0,_ZNSt5dequeIiSaIiEE22_M_reserve_map_at_backEm
FNL:19,263,268
FNA:19,2,_ZNSt15_Deque_iteratorIiRiPiE11_M_set_nodeEPS1_
FNL:20,272,273
FNA:20,4,_ZSteqRKSt15_Deque_iteratorIiRiPiES4_
FNL:21,370,376
FNA:21,0,_ZStmiRKSt15_Deque_iteratorIiRiPiES4_
FNL:22,458,460
FNA:22,1,_ZNSt11_Deque_baseIiSaIiEEC2Ev
FNL:23,516,518
FNA:23,1,_ZNSt11_Deque_baseIiSaIiEE16_Deque_impl_dataC2Ev
FNL:24,545,548
FNA:24,1,_ZNSt11_Deque_baseIiSaIiEE11_Deque_implC2Ev
FNL:25,568,569
FNA:25,4,_ZNSt11_Deque_baseIiSaIiEE19_M_get_Tp_allocatorEv
FNL:26,572,573
FNA:26,2,_ZNKSt11_Deque_baseIiSaIiEE19_M_get_Tp_allocatorEv
FNL:27,576,577
FNA:27,2,_ZNKSt11_Deque_baseIiSaIiEE20_M_get_map_allocatorEv
FNL:28,580,584
FNA:28,1,_ZNSt11_Deque_baseIiSaIiEE16_M_allocate_nodeEv
FNL:29,587,591
FNA:29,1,_ZNSt11_Deque_baseIiSaIiEE18_M_deallocate_nodeEPi
FNL:30,594,598
FNA:30,1,_ZNSt11_Deque_baseIiSaIiEE15_M_allocate_mapEm
FNL:31,601,605
FNA:31,1,_ZNSt11_Deque_baseIiSaIiEE17_M_deallocate_mapEPPim
FNL:32,617,626
FNA:32,1,_ZNSt11_Deque_baseIiSaIiEED2Ev
FNL:33,638,673
FNA:33,1,_ZNSt11_Deque_baseIiSaIiEE17_M_initialize_mapEm
FNL:34,677,691
FNA:34,1,_ZNSt11_Deque_baseIiSaIiEE15_M_create_nodesEPPiS3_
FNL:35,695,701
FNA:35,1,_ZNSt11_Deque_baseIiSaIiEE16_M_destroy_nodesEPPiS3_
FNL:36,855,855
FNA:36,1,_ZNSt5dequeIiSaIiEEC2Ev
FNL:37,96,98
FNA:37,6,_ZSt16__deque_buf_sizem
FNF:38
FNH:33
DA:96,6
DA:98,6
DA:131,2
DA:132,2
DA:151,2
DA:152,2
DA:168,6
DA:169,6
DA:170,6
DA:181,4
DA:182,4
DA:210,1
DA:212,1
DA:214,0
DA:215,0
DA:217,1
DA:218,1
DA:263,2
DA:265,2
DA:266,2
DA:267,2
DA:268,2
DA:272,4
DA:273,4
DA:370,0
DA:372,0
DA:373,0
DA:374,0
DA:375,0
DA:458,1
DA:459,1
DA:460,1
DA:516,1
DA:517,1
DA:518,1
DA:545,1
DA:547,1
DA:548,1
DA:568,4
DA:569,4
DA:572,2
DA:573,2
DA:576,2
DA:577,4
DA:580,1
DA:583,2
DA:587,1
DA:590,1
DA:591,1
DA:594,1
DA:596,1
DA:597,2
DA:601,1
DA:603,1
DA:605,1
DA:617,1
DA:620,1
DA:622,1
DA:623,1
DA:624,1
DA:626,1
DA:638,1
DA:641,1
DA:644,2
DA:645,1
DA:646,1
DA:653,1
DA:654,1
DA:655,1
DA:658,1
DA:659,0
DA:661,0
DA:662,0
DA:663,0
DA:664,0
DA:667,1
DA:668,1
DA:669,1
DA:670,2
DA:671,1
DA:672,1
DA:673,1
DA:677,1
DA:683,2
DA:684,1
DA:686,0
DA:688,0
DA:689,0
DA:691,1
DA:695,1
DA:699,2
DA:700,1
DA:701,1
DA:855,1
DA:1027,1
DA:1028,1
DA:1151,4
DA:1152,4
DA:1170,2
DA:1171,2
DA:1268,0
DA:1269,0
DA:1274,0
DA:1275,0
DA:1347,4
DA:1348,4
DA:1444,3
DA:1447,3
DA:1468,1
DA:1471,1
DA:1472,1
DA:1473,1
DA:1538,2
DA:1540,2
DA:1541,2
DA:1543,2
DA:1545,2
DA:1548,0
DA:1549,2
DA:1553,1
DA:1554,1
DA:1574,3
DA:1577,3
DA:1578,3
DA:1580,3
DA:1582,3
DA:1585,0
DA:1586,3
DA:1876,0
DA:1878,0
DA:1879,0
DA:1880,0
DA:2087,1
DA:2092,1
DA:2168,0
DA:2170,0
DA:2171,0
DA:2172,0
DA:2173,0
LF:139
LH:109
end_of_record
TN:
SF:/usr/include/c++/14/bits/stl_iterator.h
FNL:0,1067,1068
FNA:0,6,_ZN9__gnu_cxx17__normal_iteratorIPKiSt6vectorIiSaIiEEEC2ERKS2_
FNA:0,6,_ZN9__gnu_cxx17__normal_iteratorIPiSt6vectorIiSaIiEEEC2ERKS1_
FNA:0,0,_ZN9__gnu_cxx17__normal_iteratorIPivEC2ERKS1_
FNL:1,1090,1091
FNA:1,2,_ZNK9__gnu_cxx17__normal_iteratorIPiSt6vectorIiSaIiEEEdeEv
FNA:1,0,_ZNK9__gnu_cxx17__normal_iteratorIPivEdeEv
FNL:2,1100,1104
FNA:2,2,_ZN9__gnu_cxx17__normal_iteratorIPiSt6vectorIiSaIiEEEppEv
FNA:2,0,_ZN9__gnu_cxx17__normal_iteratorIPivEppEv
FNL:3,1153,1154
FNA:3,6,_ZNK9__gnu_cxx17__normal_iteratorIPKiSt6vectorIiSaIiEEE4baseEv
FNA:3,10,_ZNK9__gnu_cxx17__normal_iteratorIPiSt6vectorIiSaIiEEE4baseEv
FNA:3,0,_ZNK9__gnu_cxx17__normal_iteratorIPivE4baseEv
FNL:4,1188,1194
FNA:4,3,_ZN9__gnu_cxxeqIPKiSt6vectorIiSaIiEEEEbRKNS_17__normal_iteratorIT_T0_EESB_QrqXeqcldtfL0p_4baseEcldtfL0p0_4baseERSt14convertible_toIbEE
FNA:4,5,_ZN9__gnu_cxxeqIPiSt6vectorIiSaIiEEEEbRKNS_17__normal_iteratorIT_T0_EESA_QrqXeqcldtfL0p_4baseEcldtfL0p0_4baseERSt14convertible_toIbEE
FNF:5
FNH:5
DA:1067,12
DA:1068,12
DA:1090,2
DA:1091,2
DA:1100,2
DA:1102,2
DA:1103,2
DA:1153,16
DA:1154,16
DA:1188,8
DA:1194,8
LF:11
LH:11
end_of_record
TN:
SF:/usr/include/c++/14/bits/stl_iterator_base_types.h
FNF:0
FNH:0
DA:240,2
LF:1
LH:1
end_of_record
TN:
SF:/usr/include/c++/14/bits/stl_queue.h
FNL:0,166,167
FNA:0,1,_ZNSt5queueIiSt5dequeIiSaIiEEEC2IS2_vEEv
FNL:1,216,217
FNA:1,4,_ZNKSt5queueIiSt5dequeIiSaIiEEE5emptyEv
FNL:2,231,235
FNA:2,3,_ZNSt5queueIiSt5dequeIiSaIiEEE5frontEv
FNL:3,283,284
FNA:3,2,_ZNSt5queueIiSt5dequeIiSaIiEEE4pushERKi
FNL:4,288,289
FNA:4,1,_ZNSt5queueIiSt5dequeIiSaIiEEE4pushEOi
FNL:5,316,320
FNA:5,3,_ZNSt5queueIiSt5dequeIiSaIiEEE3popEv
FNF:6
FNH:6
DA:166,1
DA:167,1
DA:216,4
DA:217,4
DA:231,3
DA:234,3
DA:283,2
DA:284,2
DA:288,1
DA:289,1
DA:316,3
DA:319,3
DA:320,3
LF:13
LH:13
end_of_record
TN:
SF:/usr/include/c++/14/bits/stl_uninitialized.h
FNL:0,1067,1077
FNA:0,0,_ZSt19__relocate_object_aIiiSaIiEEvPT_PT0_RT1_
FNL:1,1089,1106
FNA:1,0,_ZSt14__relocate_a_1IPiN9__gnu_cxx17__normal_iteratorIS0_vEESaIiEET0_T_S6_S5_RT1_
FNL:2,1112,1132
FNA:2,1,_ZSt14__relocate_a_1IiiENSt9enable_ifIXsrSt24__is_bitwise_relocatableIT_vE5valueEPS2_E4typeES4_S4_S4_RSaIT0_E
FNL:3,1139,1148
FNA:3,1,_ZSt12__relocate_aIPiS0_SaIiEET0_T_S3_S2_RT1_
FNL:4,261,275
FNA:4,0,_ZSt18__do_uninit_fill_nIPimiET_S1_T0_RKT1_
FNL:5,292,294
FNA:5,1,_ZNSt22__uninitialized_fill_nILb1EE15__uninit_fill_nIPimiEET_S3_T0_RKT1_
FNL:6,312,328
FNA:6,1,_ZSt20uninitialized_fill_nIPimiET_S1_T0_RKT1_
FNL:7,465,473
FNA:7,1,_ZSt24__uninitialized_fill_n_aIPimiiET_S1_T0_RKT1_RSaIT2_E
FNL:8,637,651
FNA:8,1,_ZNSt27__uninitialized_default_n_1ILb0EE18__uninit_default_nIPSt6vectorIiSaIiEEmEET_S6_T0_
FNA:8,0,_ZNSt27__uninitialized_default_n_1ILb0EE18__uninit_default_nIPimEET_S3_T0_
FNL:9,660,671
FNA:9,1,_ZNSt27__uninitialized_default_n_1ILb1EE18__uninit_default_nIPimEET_S3_T0_
FNL:10,696,713
FNA:10,1,_ZSt25__uninitialized_default_nIPSt6vectorIiSaIiEEmET_S4_T0_
FNA:10,1,_ZSt25__uninitialized_default_nIPimET_S1_T0_
FNL:11,777,779
FNA:11,1,_ZSt27__uninitialized_default_n_aIPSt6vectorIiSaIiEEmS2_ET_S4_T0_RSaIT1_E
FNA:11,1,_ZSt27__uninitialized_default_n_aIPimiET_S1_T0_RSaIT1_E
FNF:12
FNH:9
DA:261,0
DA:263,0
DA:266,0
DA:267,0
DA:268,0
DA:292,1
DA:294,1
DA:312,1
DA:319,1
DA:327,1
DA:465,1
DA:469,1
DA:470,0
DA:472,1
DA:637,1
DA:639,1
DA:642,4
DA:643,3
DA:644,1
DA:660,1
DA:662,1
DA:665,1
DA:666,1
DA:667,1
DA:668,1
DA:670,1
DA:696,2
DA:699,2
DA:701,0
DA:707,2
DA:712,2
DA:777,2
DA:779,2
DA:1067,0
DA:1075,0
DA:1076,0
DA:1077,0
DA:1089,0
DA:1101,0
DA:1102,0
DA:1103,0
DA:1105,0
DA:1112,1
DA:1116,1
DA:1117,1
DA:1120,0
DA:1124,0
DA:1125,0
DA:1126,0
DA:1129,0
DA:1131,1
DA:1139,1
DA:1145,1
DA:1147,1
LF:54
LH:33
end_of_record
TN:
SF:/usr/include/c++/14/bits/stl_vector.h
FNL:0,1013,1019
FNA:0,3,_ZNSt6vectorIiSaIiEE6resizeEm
FNL:1,1090,1091
FNA:1,3,_ZNKSt6vectorIiSaIiEE5emptyEv
FNL:2,1128,1132
FNA:2,13,_ZNSt6vectorIS_IiSaIiEESaIS1_EEixEm
FNA:2,12,_ZNSt6vectorIiSaIiEEixEm
FNL:3,136,142
FNA:3,3,_ZNSt12_Vector_baseIiSaIiEE12_Vector_implC2EvQ26is_default_constructible_vIN9__gnu_cxx14__alloc_traitsIT0_NS5_10value_typeEE6rebindIT_E5otherEE
FNL:4,145,147
FNA:4,1,_ZNSt12_Vector_baseISt6vectorIiSaIiEESaIS2_EE12_Vector_implC2ERKS3_
FNA:4,1,_ZNSt12_Vector_baseIiSaIiEE12_Vector_implC2ERKS0_
FNL:5,1706,1711
FNA:5,1,_ZNSt6vectorIiSaIiEE18_M_fill_initializeEmRKi
FNL:6,1717,1722
FNA:6,1,_ZNSt6vectorIS_IiSaIiEESaIS1_EE21_M_default_initializeEm
FNL:7,1906,1913
FNA:7,1,_ZNKSt6vectorIiSaIiEE12_M_check_lenEmPKc
FNL:8,1917,1923
FNA:8,1,_ZNSt6vectorIS_IiSaIiEESaIS1_EE17_S_check_init_lenEmRKS2_
FNA:8,1,_ZNSt6vectorIiSaIiEE17_S_check_init_lenEmRKS0_
FNL:9,1926,1935
FNA:9,1,_ZNSt6vectorIS_IiSaIiEESaIS1_EE11_S_max_sizeERKS2_
FNA:9,5,_ZNSt6vectorIiSaIiEE11_S_max_sizeERKS0_
FNL:10,1943,1952
FNA:10,0,_ZNSt6vectorIiSaIiEE15_M_erase_at_endEPi
FNL:11,300,301
FNA:11,2,_ZNSt12_Vector_baseISt6vectorIiSaIiEESaIS2_EE19_M_get_Tp_allocatorEv
FNA:11,7,_ZNSt12_Vector_baseIiSaIiEE19_M_get_Tp_allocatorEv
FNL:12,305,306
FNA:12,4,_ZNKSt12_Vector_baseIiSaIiEE19_M_get_Tp_allocatorEv
FNL:13,314,314
FNA:13,3,_ZNSt12_Vector_baseIiSaIiEEC2Ev
FNL:14,332,334
FNA:14,1,_ZNSt12_Vector_baseISt6vectorIiSaIiEESaIS2_EEC2EmRKS3_
FNA:14,1,_ZNSt12_Vector_baseIiSaIiEEC2EmRKS0_
FNL:15,366,370
FNA:15,1,_ZNSt12_Vector_baseISt6vectorIiSaIiEESaIS2_EED2Ev
FNA:15,4,_ZNSt12_Vector_baseIiSaIiEED2Ev
FNL:16,377,381
FNA:16,1,_ZNSt12_Vector_baseISt6vectorIiSaIiEESaIS2_EE11_M_allocateEm
FNA:16,2,_ZNSt12_Vector_baseIiSaIiEE11_M_allocateEm
FNL:17,385,390
FNA:17,1,_ZNSt12_Vector_baseISt6vectorIiSaIiEESaIS2_EE13_M_deallocateEPS2_m
FNA:17,4,_ZNSt12_Vector_baseIiSaIiEE13_M_deallocateEPim
FNL:18,396,401
FNA:18,1,_ZNSt12_Vector_baseISt6vectorIiSaIiEESaIS2_EE17_M_create_storageEm
FNA:18,1,_ZNSt12_Vector_baseIiSaIiEE17_M_create_storageEm
FNL:19,504,514
FNA:19,1,_ZNSt6vectorIiSaIiEE11_S_relocateEPiS2_S2_RS0_
FNL:20,531,531
FNA:20,3,_ZNSt6vectorIiSaIiEEC2Ev
FNL:21,556,558
FNA:21,1,_ZNSt6vectorIS_IiSaIiEESaIS1_EEC2EmRKS2_
FNL:22,569,572
FNA:22,1,_ZNSt6vectorIiSaIiEEC2EmRKiRKS0_
FNL:23,733,738
FNA:23,1,_ZNSt6vectorIS_IiSaIiEESaIS1_EED2Ev
FNA:23,4,_ZNSt6vectorIiSaIiEED2Ev
FNL:24,873,874
FNA:24,3,_ZNSt6vectorIiSaIiEE5beginEv
FNL:25,883,884
FNA:25,3,_ZNKSt6vectorIiSaIiEE5beginEv
FNL:26,893,894
FNA:26,3,_ZNSt6vectorIiSaIiEE3endEv
FNL:27,903,904
FNA:27,3,_ZNKSt6vectorIiSaIiEE3endEv
FNL:28,98,100
FNA:28,1,_ZNSt12_Vector_baseISt6vectorIiSaIiEESaIS2_EE17_Vector_impl_dataC2Ev
FNA:28,4,_ZNSt12_Vector_baseIiSaIiEE17_Vector_impl_dataC2Ev
FNL:29,992,993
FNA:29,11,_ZNKSt6vectorIiSaIiEE4sizeEv
FNL:30,998,999
FNA:30,4,_ZNKSt6vectorIiSaIiEE8max_sizeEv
FNF:31
FNH:30
DA:98,5
DA:99,5
DA:100,5
DA:136,3
DA:141,3
DA:142,3
DA:145,2
DA:146,2
DA:147,2
DA:300,9
DA:301,9
DA:305,4
DA:306,4
DA:314,3
DA:332,2
DA:333,2
DA:334,2
DA:366,5
DA:368,5
DA:369,5
DA:370,5
DA:377,3
DA:380,6
DA:385,5
DA:388,5
DA:389,3
DA:390,5
DA:396,2
DA:398,2
DA:399,2
DA:400,2
DA:401,2
DA:504,1
DA:509,1
DA:531,3
DA:556,1
DA:557,1
DA:558,1
DA:569,1
DA:571,1
DA:572,1
DA:733,5
DA:735,5
DA:736,5
DA:738,5
DA:873,3
DA:874,3
DA:883,3
DA:884,3
DA:893,3
DA:894,3
DA:903,3
DA:904,3
DA:992,11
DA:993,11
DA:998,4
DA:999,4
DA:1013,3
DA:1015,3
DA:1016,1
DA:1017,2
DA:1018,0
DA:1019,3
DA:1090,3
DA:1091,3
DA:1128,25
DA:1131,25
DA:1706,1
DA:1708,1
DA:1709,1
DA:1710,1
DA:1711,1
DA:1717,1
DA:1719,1
DA:1720,1
DA:1721,1
DA:1722,1
DA:1906,1
DA:1908,1
DA:1909,0
DA:1911,1
DA:1912,1
DA:1917,2
DA:1919,2
DA:1920,0
DA:1922,2
DA:1926,6
DA:1931,6
DA:1933,6
DA:1934,6
DA:1943,0
DA:1945,0
DA:1947,0
DA:1948,0
DA:1949,0
DA:1952,0
LF:96
LH:87
end_of_record
TN:
SF:/usr/include/c++/14/bits/vector.tcc
FNL:0,805,913
FNA:0,1,_ZNSt6vectorIiSaIiEE17_M_default_appendEm
FNL:1,844,846
FNA:1,1,_ZZNSt6vectorIiSaIiEE17_M_default_appendEmEN6_GuardC2EPimRS0_
FNL:2,849,854
FNA:2,1,_ZZNSt6vectorIiSaIiEE17_M_default_appendEmEN6_GuardD2Ev
FNF:3
FNH:3
DA:805,1
DA:808,1
DA:810,1
DA:811,1
DA:812,1
DA:814,1
DA:815,0
DA:817,1
DA:820,0
DA:821,0
DA:822,0
DA:829,1
DA:830,1
DA:833,1
DA:834,1
DA:844,1
DA:845,1
DA:846,1
DA:849,1
DA:851,1
DA:853,0
DA:854,1
DA:861,1
DA:863,1
DA:864,1
DA:868,1
DA:869,1
DA:902,1
DA:903,1
DA:904,1
DA:908,1
DA:909,1
DA:910,1
DA:913,1
LF:34
LH:29
end_of_record
TN:
SF:/usr/include/c++/14/limits
FNL:0,1068,1068
FNA:0,1,_ZNSt14numeric_limitsIiE3maxEv
FNF:1
FNH:1
DA:1068,1
LF:1
LH:1
end_of_record
TN:
SF:/usr/include/c++/14/new
FNL:0,179,180
FNA:0,7,_ZnwmPv
FNF:1
FNH:1
DA:179,7
DA:180,7
LF:2
LH:2
end_of_record
TN:
SF:/usr/include/c++/14/type_traits
FNL:0,3832,3839
FNA:0,5,_ZSt21is_constant_evaluatedv
FNF:1
FNH:1
DA:3832,5
DA:3835,5
LF:2
LH:2
end_of_record
TN:
SF:/usr/include/c++/14/x86_64-redhat-linux/bits/c++config.h
FNF:0
FNH:0
DA:2394,21
LF:1
LH:1
end_of_record
