TN:
SF:/home/monika/Documents/problems/16096번： Life on a Torus/main.cpp
FNL:0,27,36
FNA:0,6,_ZZ4mainENKUlRKSt6vectorINSt7__cxx1112basic_stringIcSt11char_traitsIcESaIcEEESaIS5_EEE_clES9_
FNL:1,8,79
FNA:1,1,main
FNF:2
FNH:2
DA:8,1
DA:11,1
DA:13,3
DA:16,2
DA:18,2
DA:20,11
DA:22,9
DA:25,2
DA:27,6
DA:29,6
DA:30,33
DA:32,27
DA:35,6
DA:36,0
DA:38,2
DA:39,2
DA:40,6
DA:42,4
DA:44,4
DA:45,22
DA:47,114
DA:49,96
DA:50,384
DA:52,1152
DA:54,864
DA:55,96
DA:56,768
DA:57,768
DA:58,768
DA:59,120
DA:62,96
DA:63,60
DA:64,36
DA:65,8
DA:67,28
DA:71,4
DA:72,4
DA:73,4
DA:74,4
DA:75,2
DA:76,2
DA:78,1
LF:42
LH:41
end_of_record
TN:
SF:/usr/include/c++/14/bits/alloc_traits.h
FNF:0
FNH:0
DA:515,20
DA:550,20
DA:577,4
DA:581,4
DA:599,4
DA:601,4
DA:615,41
DA:627,26
DA:767,0
DA:800,4
DA:804,4
DA:993,10
DA:994,10
LF:13
LH:12
end_of_record
TN:
SF:/usr/include/c++/14/bits/allocator.h
FNF:0
FNH:0
DA:161,19
DA:166,71
DA:176,4
DA:182,49
DA:189,20
DA:191,0
DA:192,0
DA:193,0
DA:196,20
DA:203,20
DA:205,0
DA:206,0
DA:208,20
DA:215,0
LF:14
LH:8
end_of_record
TN:
SF:/usr/include/c++/14/bits/basic_string.h
FNL:0,1076,1077
FNA:0,135,_ZNKSt7__cxx1112basic_stringIcSt11char_traitsIcESaIcEE4sizeEv
FNL:1,1083,1084
FNA:1,60,_ZNKSt7__cxx1112basic_stringIcSt11char_traitsIcESaIcEE6lengthEv
FNL:2,1089,1090
FNA:2,41,_ZNKSt7__cxx1112basic_stringIcSt11char_traitsIcESaIcEE8max_sizeEv
FNL:3,1180,1184
FNA:3,51,_ZNKSt7__cxx1112basic_stringIcSt11char_traitsIcESaIcEE8capacityEv
FNL:4,1222,1223
FNA:4,4,_ZNSt7__cxx1112basic_stringIcSt11char_traitsIcESaIcEE5clearEv
FNL:5,1265,1273
FNA:5,892,_ZNSt7__cxx1112basic_stringIcSt11char_traitsIcESaIcEEixEm
FNL:6,129,142
FNA:6,8,_ZNSt7__cxx1112basic_stringIcSt11char_traitsIcESaIcEE11_S_allocateERS3_m
FNL:7,1377,1378
FNA:7,27,_ZNSt7__cxx1112basic_stringIcSt11char_traitsIcESaIcEEpLERKS4_
FNL:8,1435,1436
FNA:8,27,_ZNSt7__cxx1112basic_stringIcSt11char_traitsIcESaIcEE6appendERKS4_
FNL:9,1466,1471
FNA:9,27,_ZNSt7__cxx1112basic_stringIcSt11char_traitsIcESaIcEE6appendEPKcm
FNL:10,1588,1621
FNA:10,18,_ZNSt7__cxx1112basic_stringIcSt11char_traitsIcESaIcEE6assignERKS4_
FNL:11,197,198
FNA:11,37,_ZNSt7__cxx1112basic_stringIcSt11char_traitsIcESaIcEE12_Alloc_hiderC2EPcOS3_
FNL:12,217,218
FNA:12,12,_ZNSt7__cxx1112basic_stringIcSt11char_traitsIcESaIcEE7_M_dataEPc
FNL:13,222,223
FNA:13,90,_ZNSt7__cxx1112basic_stringIcSt11char_traitsIcESaIcEE9_M_lengthEm
FNL:14,227,228
FNA:14,1276,_ZNKSt7__cxx1112basic_stringIcSt11char_traitsIcESaIcEE7_M_dataEv
FNL:15,232,239
FNA:15,37,_ZNSt7__cxx1112basic_stringIcSt11char_traitsIcESaIcEE13_M_local_dataEv
FNL:16,243,250
FNA:16,104,_ZNKSt7__cxx1112basic_stringIcSt11char_traitsIcESaIcEE13_M_local_dataEv
FNL:17,254,255
FNA:17,12,_ZNSt7__cxx1112basic_stringIcSt11char_traitsIcESaIcEE11_M_capacityEm
FNL:18,259,263
FNA:18,88,_ZNSt7__cxx1112basic_stringIcSt11char_traitsIcESaIcEE13_M_set_lengthEm
FNL:19,2653,2654
FNA:19,20,_ZNKSt7__cxx1112basic_stringIcSt11char_traitsIcESaIcEE4dataEv
FNL:20,267,276
FNA:20,104,_ZNKSt7__cxx1112basic_stringIcSt11char_traitsIcESaIcEE11_M_is_localEv
FNL:21,285,289
FNA:21,43,_ZNSt7__cxx1112basic_stringIcSt11char_traitsIcESaIcEE10_M_disposeEv
FNL:22,293,294
FNA:22,8,_ZNSt7__cxx1112basic_stringIcSt11char_traitsIcESaIcEE10_M_destroyEm
FNL:23,341,342
FNA:23,24,_ZNSt7__cxx1112basic_stringIcSt11char_traitsIcESaIcEE16_M_get_allocatorEv
FNL:24,346,347
FNA:24,63,_ZNKSt7__cxx1112basic_stringIcSt11char_traitsIcESaIcEE16_M_get_allocatorEv
FNL:25,3755,3761
FNA:25,7,_ZSteqIcSt11char_traitsIcESaIcEEbRKNSt7__cxx1112basic_stringIT_T0_T1_EESA_
FNL:26,402,406
FNA:26,27,_ZNKSt7__cxx1112basic_stringIcSt11char_traitsIcESaIcEE15_M_check_lengthEmmPKc
FNL:27,430,436
FNA:27,75,_ZNSt7__cxx1112basic_stringIcSt11char_traitsIcESaIcEE7_S_copyEPcPKcm
FNL:28,4616,4617
FNA:28,6,_ZNKSt15__str_hash_baseIcSaIcENSt7__cxx1112basic_stringIcSt11char_traitsIcES0_EEEclERKS5_
FNL:29,482,483
FNA:29,22,_ZNSt7__cxx1112basic_stringIcSt11char_traitsIcESaIcEE13_S_copy_charsEPcS5_S5_
FNL:30,527,533
FNA:30,15,_ZNSt7__cxx1112basic_stringIcSt11char_traitsIcESaIcEEC2Ev
FNL:31,552,558
FNA:31,22,_ZNSt7__cxx1112basic_stringIcSt11char_traitsIcESaIcEEC2ERKS4_
FNL:32,808,809
FNA:32,37,_ZNSt7__cxx1112basic_stringIcSt11char_traitsIcESaIcEED2Ev
FNL:33,817,820
FNA:33,18,_ZNSt7__cxx1112basic_stringIcSt11char_traitsIcESaIcEEaSERKS4_
FNL:34,858,918
FNA:34,4,_ZNSt7__cxx1112basic_stringIcSt11char_traitsIcESaIcEEaSEOS4_
FNF:35
FNH:35
DA:129,8
DA:131,8
DA:141,8
DA:197,37
DA:198,37
DA:217,12
DA:218,12
DA:222,90
DA:223,90
DA:227,1276
DA:228,1276
DA:232,37
DA:235,37
DA:243,104
DA:246,104
DA:254,12
DA:255,12
DA:259,88
DA:261,88
DA:262,88
DA:263,88
DA:267,104
DA:269,104
DA:271,78
DA:272,0
DA:273,78
DA:275,26
DA:285,43
DA:287,43
DA:288,8
DA:289,43
DA:293,8
DA:294,8
DA:341,24
DA:342,24
DA:346,63
DA:347,63
DA:356,35
DA:357,0
DA:358,0
DA:360,35
DA:370,0
DA:402,27
DA:404,27
DA:405,0
DA:406,27
DA:430,75
DA:432,75
DA:433,0
DA:435,75
DA:436,75
DA:482,22
DA:483,22
DA:527,15
DA:529,45
DA:532,15
DA:533,15
DA:552,22
DA:553,22
DA:554,22
DA:556,22
DA:558,22
DA:808,37
DA:809,37
DA:817,18
DA:819,18
DA:858,4
DA:861,4
DA:863,6
DA:864,4
DA:867,0
DA:868,0
DA:869,0
DA:872,4
DA:874,4
DA:879,2
DA:881,2
DA:882,2
DA:883,2
DA:886,2
DA:889,2
DA:891,2
DA:896,2
DA:897,2
DA:903,2
DA:904,2
DA:905,2
DA:906,2
DA:908,2
DA:909,2
DA:912,0
DA:915,0
DA:916,4
DA:917,4
DA:1076,135
DA:1077,135
DA:1083,60
DA:1084,60
DA:1089,41
DA:1090,82
DA:1180,51
DA:1182,51
DA:1183,51
DA:1222,4
DA:1223,4
DA:1265,892
DA:1269,892
DA:1272,892
DA:1377,27
DA:1378,27
DA:1435,27
DA:1436,27
DA:1466,27
DA:1469,27
DA:1470,27
DA:1588,18
DA:1591,18
DA:1593,0
DA:1594,0
DA:1598,0
DA:1600,0
DA:1601,0
DA:1602,0
DA:1606,0
DA:1607,0
DA:1609,0
DA:1610,0
DA:1611,0
DA:1612,0
DA:1613,0
DA:1616,0
DA:1619,18
DA:1620,18
DA:2653,20
DA:2654,20
DA:3755,7
DA:3759,7
DA:3760,7
DA:4616,6
DA:4617,6
LF:140
LH:115
end_of_record
TN:
SF:/usr/include/c++/14/bits/basic_string.tcc
FNL:0,138,160
FNA:0,8,_ZNSt7__cxx1112basic_stringIcSt11char_traitsIcESaIcEE9_M_createERmm
FNL:1,221,252
FNA:1,22,_ZNSt7__cxx1112basic_stringIcSt11char_traitsIcESaIcEE12_M_constructIPcEEvT_S7_St20forward_iterator_tag
FNL:2,239,239
FNA:2,22,_ZZNSt7__cxx1112basic_stringIcSt11char_traitsIcESaIcEE12_M_constructIPcEEvT_S7_St20forward_iterator_tagEN6_GuardC2EPS4_
FNL:3,242,242
FNA:3,22,_ZZNSt7__cxx1112basic_stringIcSt11char_traitsIcESaIcEE12_M_constructIPcEEvT_S7_St20forward_iterator_tagEN6_GuardD2Ev
FNL:4,277,299
FNA:4,18,_ZNSt7__cxx1112basic_stringIcSt11char_traitsIcESaIcEE9_M_assignERKS4_
FNL:5,325,345
FNA:5,6,_ZNSt7__cxx1112basic_stringIcSt11char_traitsIcESaIcEE9_M_mutateEmmPKcm
FNL:6,413,428
FNA:6,27,_ZNSt7__cxx1112basic_stringIcSt11char_traitsIcESaIcEE9_M_appendEPKcm
FNF:7
FNH:7
DA:138,8
DA:143,8
DA:144,0
DA:149,8
DA:151,6
DA:153,6
DA:154,0
DA:159,8
DA:221,22
DA:225,22
DA:227,22
DA:229,2
DA:230,2
DA:239,22
DA:242,22
DA:245,22
DA:247,22
DA:249,22
DA:251,22
DA:252,22
DA:277,18
DA:280,18
DA:282,18
DA:283,18
DA:285,18
DA:287,0
DA:288,0
DA:289,0
DA:290,0
DA:291,0
DA:294,18
DA:295,18
DA:297,18
DA:299,18
DA:325,6
DA:329,6
DA:331,6
DA:332,6
DA:334,6
DA:335,6
DA:336,6
DA:337,6
DA:338,6
DA:339,0
DA:340,0
DA:342,6
DA:343,6
DA:344,6
DA:345,6
DA:413,27
DA:416,27
DA:418,27
DA:420,21
DA:421,21
DA:424,6
DA:426,27
DA:427,27
LF:57
LH:48
end_of_record
TN:
SF:/usr/include/c++/14/bits/char_traits.h
FNL:0,253,268
FNA:0,0,_ZN9__gnu_cxx11char_traitsIcE4copyEPcPKcm
FNL:1,343,351
FNA:1,88,_ZNSt11char_traitsIcE6assignERcRKc
FNL:2,358,363
FNA:2,0,_ZNSt11char_traitsIcE2ltERKcS2_
FNL:3,366,382
FNA:3,7,_ZNSt11char_traitsIcE7compareEPKcS2_m
FNL:4,419,428
FNA:4,75,_ZNSt11char_traitsIcE4copyEPcPKcm
FNF:5
FNH:3
DA:253,0
DA:256,0
DA:257,0
DA:259,0
DA:261,0
DA:262,0
DA:263,0
DA:266,0
DA:267,0
DA:343,88
DA:346,88
DA:347,0
DA:350,88
DA:351,88
DA:358,0
DA:361,0
DA:362,0
DA:366,7
DA:368,7
DA:369,0
DA:371,7
DA:373,0
DA:374,0
DA:375,0
DA:376,0
DA:377,0
DA:378,0
DA:381,7
DA:419,75
DA:421,75
DA:422,0
DA:424,75
DA:425,0
DA:427,75
LF:34
LH:12
end_of_record
TN:
SF:/usr/include/c++/14/bits/cpp_type_traits.h
FNL:0,608,609
FNA:0,8,_ZSt12__miter_baseIN9__gnu_cxx17__normal_iteratorIPKNSt7__cxx1112basic_stringIcSt11char_traitsIcESaIcEEESt6vectorIS7_SaIS7_EEEEET_SE_
FNA:0,0,_ZSt12__miter_baseIPNSt7__cxx1112basic_stringIcSt11char_traitsIcESaIcEEEET_S7_
FNF:1
FNH:1
DA:608,8
DA:609,8
LF:2
LH:2
end_of_record
TN:
SF:/usr/include/c++/14/bits/functional_hash.h
FNL:0,204,206
FNA:0,6,_ZNSt10_Hash_impl4hashEPKvmm
FNF:1
FNH:1
DA:204,6
DA:206,6
LF:2
LH:2
end_of_record
TN:
SF:/usr/include/c++/14/bits/hashtable.h
FNL:0,1658,1673
FNA:0,2,_ZNSt10_HashtableINSt7__cxx1112basic_stringIcSt11char_traitsIcESaIcEEESt4pairIKS5_iESaIS8_ENSt8__detail10_Select1stESt8equal_toIS5_ESt4hashIS5_ENSA_18_Mod_range_hashingENSA_20_Default_ranged_hashENSA_20_Prime_rehash_policyENSA_17_Hashtable_traitsILb1ELb0ELb1EEEED2Ev
FNL:1,1727,1743
FNA:1,6,_ZNSt10_HashtableINSt7__cxx1112basic_stringIcSt11char_traitsIcESaIcEEESt4pairIKS5_iESaIS8_ENSt8__detail10_Select1stESt8equal_toIS5_ESt4hashIS5_ENSA_18_Mod_range_hashingENSA_20_Default_ranged_hashENSA_20_Prime_rehash_policyENSA_17_Hashtable_traitsILb1ELb0ELb1EEEE4findERS7_
FNL:2,2065,2087
FNA:2,6,_ZNKSt10_HashtableINSt7__cxx1112basic_stringIcSt11char_traitsIcESaIcEEESt4pairIKS5_iESaIS8_ENSt8__detail10_Select1stESt8equal_toIS5_ESt4hashIS5_ENSA_18_Mod_range_hashingENSA_20_Default_ranged_hashENSA_20_Prime_rehash_policyENSA_17_Hashtable_traitsILb1ELb0ELb1EEEE19_M_find_before_nodeEmRS7_m
FNL:3,2228,2252
FNA:3,4,_ZNSt10_HashtableINSt7__cxx1112basic_stringIcSt11char_traitsIcESaIcEEESt4pairIKS5_iESaIS8_ENSt8__detail10_Select1stESt8equal_toIS5_ESt4hashIS5_ENSA_18_Mod_range_hashingENSA_20_Default_ranged_hashENSA_20_Prime_rehash_policyENSA_17_Hashtable_traitsILb1ELb0ELb1EEEE21_M_insert_unique_nodeEmmPNSA_10_Hash_nodeIS8_Lb1EEEm
FNL:4,2584,2593
FNA:4,2,_ZNSt10_HashtableINSt7__cxx1112basic_stringIcSt11char_traitsIcESaIcEEESt4pairIKS5_iESaIS8_ENSt8__detail10_Select1stESt8equal_toIS5_ESt4hashIS5_ENSA_18_Mod_range_hashingENSA_20_Default_ranged_hashENSA_20_Prime_rehash_policyENSA_17_Hashtable_traitsILb1ELb0ELb1EEEE5clearEv
FNL:5,2623,2657
FNA:5,2,_ZNSt10_HashtableINSt7__cxx1112basic_stringIcSt11char_traitsIcESaIcEEESt4pairIKS5_iESaIS8_ENSt8__detail10_Select1stESt8equal_toIS5_ESt4hashIS5_ENSA_18_Mod_range_hashingENSA_20_Default_ranged_hashENSA_20_Prime_rehash_policyENSA_17_Hashtable_traitsILb1ELb0ELb1EEEE9_M_rehashEmSt17integral_constantIbLb1EE
FNL:6,310,313
FNA:6,4,_ZNSt10_HashtableINSt7__cxx1112basic_stringIcSt11char_traitsIcESaIcEEESt4pairIKS5_iESaIS8_ENSt8__detail10_Select1stESt8equal_toIS5_ESt4hashIS5_ENSA_18_Mod_range_hashingENSA_20_Default_ranged_hashENSA_20_Prime_rehash_policyENSA_17_Hashtable_traitsILb1ELb0ELb1EEEE12_Scoped_nodeC2IJRKSt21piecewise_construct_tSt5tupleIJRS7_EESR_IJEEEEEPNSA_16_Hashtable_allocISaINSA_10_Hash_nodeIS8_Lb1EEEEEEDpOT_
FNL:7,316,316
FNA:7,4,_ZNSt10_HashtableINSt7__cxx1112basic_stringIcSt11char_traitsIcESaIcEEESt4pairIKS5_iESaIS8_ENSt8__detail10_Select1stESt8equal_toIS5_ESt4hashIS5_ENSA_18_Mod_range_hashingENSA_20_Default_ranged_hashENSA_20_Prime_rehash_policyENSA_17_Hashtable_traitsILb1ELb0ELb1EEEE12_Scoped_nodeD2Ev
FNL:8,421,422
FNA:8,4,_ZNKSt10_HashtableINSt7__cxx1112basic_stringIcSt11char_traitsIcESaIcEEESt4pairIKS5_iESaIS8_ENSt8__detail10_Select1stESt8equal_toIS5_ESt4hashIS5_ENSA_18_Mod_range_hashingENSA_20_Default_ranged_hashENSA_20_Prime_rehash_policyENSA_17_Hashtable_traitsILb1ELb0ELb1EEEE21_M_uses_single_bucketEPPNSA_15_Hash_node_baseE
FNL:9,429,433
FNA:9,6,_ZNSt10_HashtableINSt7__cxx1112basic_stringIcSt11char_traitsIcESaIcEEESt4pairIKS5_iESaIS8_ENSt8__detail10_Select1stESt8equal_toIS5_ESt4hashIS5_ENSA_18_Mod_range_hashingENSA_20_Default_ranged_hashENSA_20_Prime_rehash_policyENSA_17_Hashtable_traitsILb1ELb0ELb1EEEE22__small_size_thresholdEv
FNL:10,439,448
FNA:10,2,_ZNSt10_HashtableINSt7__cxx1112basic_stringIcSt11char_traitsIcESaIcEEESt4pairIKS5_iESaIS8_ENSt8__detail10_Select1stESt8equal_toIS5_ESt4hashIS5_ENSA_18_Mod_range_hashingENSA_20_Default_ranged_hashENSA_20_Prime_rehash_policyENSA_17_Hashtable_traitsILb1ELb0ELb1EEEE19_M_allocate_bucketsEm
FNL:11,451,457
FNA:11,4,_ZNSt10_HashtableINSt7__cxx1112basic_stringIcSt11char_traitsIcESaIcEEESt4pairIKS5_iESaIS8_ENSt8__detail10_Select1stESt8equal_toIS5_ESt4hashIS5_ENSA_18_Mod_range_hashingENSA_20_Default_ranged_hashENSA_20_Prime_rehash_policyENSA_17_Hashtable_traitsILb1ELb0ELb1EEEE21_M_deallocate_bucketsEPPNSA_15_Hash_node_baseEm
FNL:12,460,461
FNA:12,4,_ZNSt10_HashtableINSt7__cxx1112basic_stringIcSt11char_traitsIcESaIcEEESt4pairIKS5_iESaIS8_ENSt8__detail10_Select1stESt8equal_toIS5_ESt4hashIS5_ENSA_18_Mod_range_hashingENSA_20_Default_ranged_hashENSA_20_Prime_rehash_policyENSA_17_Hashtable_traitsILb1ELb0ELb1EEEE21_M_deallocate_bucketsEv
FNL:13,473,474
FNA:13,10,_ZNKSt10_HashtableINSt7__cxx1112basic_stringIcSt11char_traitsIcESaIcEEESt4pairIKS5_iESaIS8_ENSt8__detail10_Select1stESt8equal_toIS5_ESt4hashIS5_ENSA_18_Mod_range_hashingENSA_20_Default_ranged_hashENSA_20_Prime_rehash_policyENSA_17_Hashtable_traitsILb1ELb0ELb1EEEE8_M_beginEv
FNL:14,539,539
FNA:14,2,_ZNSt10_HashtableINSt7__cxx1112basic_stringIcSt11char_traitsIcESaIcEEESt4pairIKS5_iESaIS8_ENSt8__detail10_Select1stESt8equal_toIS5_ESt4hashIS5_ENSA_18_Mod_range_hashingENSA_20_Default_ranged_hashENSA_20_Prime_rehash_policyENSA_17_Hashtable_traitsILb1ELb0ELb1EEEEC2Ev
FNL:15,640,641
FNA:15,10,_ZNSt10_HashtableINSt7__cxx1112basic_stringIcSt11char_traitsIcESaIcEEESt4pairIKS5_iESaIS8_ENSt8__detail10_Select1stESt8equal_toIS5_ESt4hashIS5_ENSA_18_Mod_range_hashingENSA_20_Default_ranged_hashENSA_20_Prime_rehash_policyENSA_17_Hashtable_traitsILb1ELb0ELb1EEEE3endEv
FNL:16,656,657
FNA:16,6,_ZNKSt10_HashtableINSt7__cxx1112basic_stringIcSt11char_traitsIcESaIcEEESt4pairIKS5_iESaIS8_ENSt8__detail10_Select1stESt8equal_toIS5_ESt4hashIS5_ENSA_18_Mod_range_hashingENSA_20_Default_ranged_hashENSA_20_Prime_rehash_policyENSA_17_Hashtable_traitsILb1ELb0ELb1EEEE4sizeEv
FNL:17,799,800
FNA:17,2,_ZNKSt10_HashtableINSt7__cxx1112basic_stringIcSt11char_traitsIcESaIcEEESt4pairIKS5_iESaIS8_ENSt8__detail10_Select1stESt8equal_toIS5_ESt4hashIS5_ENSA_18_Mod_range_hashingENSA_20_Default_ranged_hashENSA_20_Prime_rehash_policyENSA_17_Hashtable_traitsILb1ELb0ELb1EEEE15_M_bucket_indexERKNSA_16_Hash_node_valueIS8_Lb1EEE
FNL:18,803,804
FNA:18,8,_ZNKSt10_HashtableINSt7__cxx1112basic_stringIcSt11char_traitsIcESaIcEEESt4pairIKS5_iESaIS8_ENSt8__detail10_Select1stESt8equal_toIS5_ESt4hashIS5_ENSA_18_Mod_range_hashingENSA_20_Default_ranged_hashENSA_20_Prime_rehash_policyENSA_17_Hashtable_traitsILb1ELb0ELb1EEEE15_M_bucket_indexEm
FNL:19,819,826
FNA:19,6,_ZNKSt10_HashtableINSt7__cxx1112basic_stringIcSt11char_traitsIcESaIcEEESt4pairIKS5_iESaIS8_ENSt8__detail10_Select1stESt8equal_toIS5_ESt4hashIS5_ENSA_18_Mod_range_hashingENSA_20_Default_ranged_hashENSA_20_Prime_rehash_policyENSA_17_Hashtable_traitsILb1ELb0ELb1EEEE12_M_find_nodeEmRS7_m
FNL:20,841,865
FNA:20,4,_ZNSt10_HashtableINSt7__cxx1112basic_stringIcSt11char_traitsIcESaIcEEESt4pairIKS5_iESaIS8_ENSt8__detail10_Select1stESt8equal_toIS5_ESt4hashIS5_ENSA_18_Mod_range_hashingENSA_20_Default_ranged_hashENSA_20_Prime_rehash_policyENSA_17_Hashtable_traitsILb1ELb0ELb1EEEE22_M_insert_bucket_beginEmPNSA_10_Hash_nodeIS8_Lb1EEE
FNF:21
FNH:21
DA:310,4
DA:311,4
DA:312,4
DA:313,4
DA:316,4
DA:421,4
DA:422,4
DA:429,6
DA:432,6
DA:439,2
DA:441,2
DA:443,0
DA:444,0
DA:447,2
DA:451,4
DA:453,4
DA:454,2
DA:456,2
DA:460,4
DA:461,4
DA:473,10
DA:474,10
DA:539,2
DA:640,10
DA:641,10
DA:656,6
DA:657,6
DA:799,2
DA:800,2
DA:803,8
DA:804,8
DA:819,6
DA:822,6
DA:823,6
DA:824,2
DA:825,4
DA:841,4
DA:843,4
DA:847,0
DA:848,0
DA:855,4
DA:856,4
DA:858,4
DA:861,2
DA:863,4
DA:865,4
DA:1658,2
DA:1671,2
DA:1672,2
DA:1673,2
DA:1727,6
DA:1732,6
DA:1734,9
DA:1735,5
DA:1736,2
DA:1737,4
DA:1740,0
DA:1741,0
DA:1742,0
DA:2065,6
DA:2071,6
DA:2072,6
DA:2073,4
DA:2075,2
DA:2076,0
DA:2078,2
DA:2079,2
DA:2081,0
DA:2082,0
DA:2083,0
DA:2086,0
DA:2228,4
DA:2234,4
DA:2236,4
DA:2239,4
DA:2241,2
DA:2242,2
DA:2245,4
DA:2246,4
DA:2249,4
DA:2250,4
DA:2251,8
DA:2252,4
DA:2584,2
DA:2588,2
DA:2589,2
DA:2590,2
DA:2591,2
DA:2592,2
DA:2593,2
DA:2623,2
DA:2627,2
DA:2628,2
DA:2629,2
DA:2630,2
DA:2631,2
DA:2633,0
DA:2635,0
DA:2636,0
DA:2638,0
DA:2639,0
DA:2640,0
DA:2641,0
DA:2642,0
DA:2643,0
DA:2647,0
DA:2648,0
DA:2651,0
DA:2654,2
DA:2655,2
DA:2656,2
DA:2657,2
LF:112
LH:88
end_of_record
TN:
SF:/usr/include/c++/14/bits/hashtable_policy.h
FNL:0,112,113
FNA:0,7,_ZNKSt8__detail10_Select1stclIRKSt4pairIKNSt7__cxx1112basic_stringIcSt11char_traitsIcESaIcEEEiEEEONS0_10__1st_typeIT_E4typeEOSE_
FNL:1,1245,1245
FNA:1,2,_ZNSt8__detail21_Hashtable_ebo_helperILi0ESaINS_10_Hash_nodeISt4pairIKNSt7__cxx1112basic_stringIcSt11char_traitsIcESaIcEEEiELb1EEEELb1EEC2Ev
FNA:1,2,_ZNSt8__detail21_Hashtable_ebo_helperILi0ESt8equal_toINSt7__cxx1112basic_stringIcSt11char_traitsIcESaIcEEEELb1EEC2Ev
FNA:1,2,_ZNSt8__detail21_Hashtable_ebo_helperILi1ESt4hashINSt7__cxx1112basic_stringIcSt11char_traitsIcESaIcEEEELb1EEC2Ev
FNL:2,1252,1252
FNA:2,7,_ZNKSt8__detail21_Hashtable_ebo_helperILi0ESt8equal_toINSt7__cxx1112basic_stringIcSt11char_traitsIcESaIcEEEELb1EE7_M_cgetEv
FNA:2,6,_ZNKSt8__detail21_Hashtable_ebo_helperILi1ESt4hashINSt7__cxx1112basic_stringIcSt11char_traitsIcESaIcEEEELb1EE7_M_cgetEv
FNL:3,1253,1253
FNA:3,16,_ZNSt8__detail21_Hashtable_ebo_helperILi0ESaINS_10_Hash_nodeISt4pairIKNSt7__cxx1112basic_stringIcSt11char_traitsIcESaIcEEEiELb1EEEELb1EE6_M_getEv
FNL:4,1328,1328
FNA:4,2,_ZNSt8__detail15_Hash_code_baseINSt7__cxx1112basic_stringIcSt11char_traitsIcESaIcEEESt4pairIKS6_iENS_10_Select1stESt4hashIS6_ENS_18_Mod_range_hashingENS_20_Default_ranged_hashELb1EEC2Ev
FNL:5,1333,1338
FNA:5,6,_ZNKSt8__detail15_Hash_code_baseINSt7__cxx1112basic_stringIcSt11char_traitsIcESaIcEEESt4pairIKS6_iENS_10_Select1stESt4hashIS6_ENS_18_Mod_range_hashingENS_20_Default_ranged_hashELb1EE12_M_hash_codeERS8_
FNL:6,1358,1359
FNA:6,8,_ZNKSt8__detail15_Hash_code_baseINSt7__cxx1112basic_stringIcSt11char_traitsIcESaIcEEESt4pairIKS6_iENS_10_Select1stESt4hashIS6_ENS_18_Mod_range_hashingENS_20_Default_ranged_hashELb1EE15_M_bucket_indexEmm
FNL:7,1373,1377
FNA:7,2,_ZNKSt8__detail15_Hash_code_baseINSt7__cxx1112basic_stringIcSt11char_traitsIcESaIcEEESt4pairIKS6_iENS_10_Select1stESt4hashIS6_ENS_18_Mod_range_hashingENS_20_Default_ranged_hashELb1EE15_M_bucket_indexERKNS_16_Hash_node_valueIS9_Lb1EEEm
FNL:8,1389,1390
FNA:8,4,_ZNKSt8__detail15_Hash_code_baseINSt7__cxx1112basic_stringIcSt11char_traitsIcESaIcEEESt4pairIKS6_iENS_10_Select1stESt4hashIS6_ENS_18_Mod_range_hashingENS_20_Default_ranged_hashELb1EE13_M_store_codeERNS_21_Hash_node_code_cacheILb1EEEm
FNL:9,1402,1402
FNA:9,6,_ZNKSt8__detail15_Hash_code_baseINSt7__cxx1112basic_stringIcSt11char_traitsIcESaIcEEESt4pairIKS6_iENS_10_Select1stESt4hashIS6_ENS_18_Mod_range_hashingENS_20_Default_ranged_hashELb1EE7_M_hashEv
FNL:10,1719,1720
FNA:10,2,_ZNSt8__detail15_Hashtable_baseINSt7__cxx1112basic_stringIcSt11char_traitsIcESaIcEEESt4pairIKS6_iENS_10_Select1stESt8equal_toIS6_ESt4hashIS6_ENS_18_Mod_range_hashingENS_20_Default_ranged_hashENS_17_Hashtable_traitsILb1ELb0ELb1EEEE9_S_equalsEmRKNS_21_Hash_node_code_cacheILb1EEE
FNL:11,1728,1728
FNA:11,2,_ZNSt8__detail15_Hashtable_baseINSt7__cxx1112basic_stringIcSt11char_traitsIcESaIcEEESt4pairIKS6_iENS_10_Select1stESt8equal_toIS6_ESt4hashIS6_ENS_18_Mod_range_hashingENS_20_Default_ranged_hashENS_17_Hashtable_traitsILb1ELb0ELb1EEEEC2Ev
FNL:12,1735,1743
FNA:12,7,_ZNKSt8__detail15_Hashtable_baseINSt7__cxx1112basic_stringIcSt11char_traitsIcESaIcEEESt4pairIKS6_iENS_10_Select1stESt8equal_toIS6_ESt4hashIS6_ENS_18_Mod_range_hashingENS_20_Default_ranged_hashENS_17_Hashtable_traitsILb1ELb0ELb1EEEE13_M_key_equalsERS8_RKNS_16_Hash_node_valueIS9_Lb1EEE
FNL:13,1759,1761
FNA:13,2,_ZNKSt8__detail15_Hashtable_baseINSt7__cxx1112basic_stringIcSt11char_traitsIcESaIcEEESt4pairIKS6_iENS_10_Select1stESt8equal_toIS6_ESt4hashIS6_ENS_18_Mod_range_hashingENS_20_Default_ranged_hashENS_17_Hashtable_traitsILb1ELb0ELb1EEEE9_M_equalsERS8_mRKNS_16_Hash_node_valueIS9_Lb1EEE
FNL:14,1787,1787
FNA:14,7,_ZNKSt8__detail15_Hashtable_baseINSt7__cxx1112basic_stringIcSt11char_traitsIcESaIcEEESt4pairIKS6_iENS_10_Select1stESt8equal_toIS6_ESt4hashIS6_ENS_18_Mod_range_hashingENS_20_Default_ranged_hashENS_17_Hashtable_traitsILb1ELb0ELb1EEEE5_M_eqEv
FNL:15,1970,1970
FNA:15,2,_ZNSt8__detail16_Hashtable_allocISaINS_10_Hash_nodeISt4pairIKNSt7__cxx1112basic_stringIcSt11char_traitsIcESaIcEEEiELb1EEEEEC2Ev
FNL:16,1980,1981
FNA:16,16,_ZNSt8__detail16_Hashtable_allocISaINS_10_Hash_nodeISt4pairIKNSt7__cxx1112basic_stringIcSt11char_traitsIcESaIcEEEiELb1EEEEE17_M_node_allocatorEv
FNL:17,2017,2036
FNA:17,4,_ZNSt8__detail16_Hashtable_allocISaINS_10_Hash_nodeISt4pairIKNSt7__cxx1112basic_stringIcSt11char_traitsIcESaIcEEEiELb1EEEEE16_M_allocate_nodeIJRKSt21piecewise_construct_tSt5tupleIJRS9_EESI_IJEEEEEPSB_DpOT_
FNL:18,2040,2044
FNA:18,4,_ZNSt8__detail16_Hashtable_allocISaINS_10_Hash_nodeISt4pairIKNSt7__cxx1112basic_stringIcSt11char_traitsIcESaIcEEEiELb1EEEEE18_M_deallocate_nodeEPSB_
FNL:19,2048,2054
FNA:19,4,_ZNSt8__detail16_Hashtable_allocISaINS_10_Hash_nodeISt4pairIKNSt7__cxx1112basic_stringIcSt11char_traitsIcESaIcEEEiELb1EEEEE22_M_deallocate_node_ptrEPSB_
FNL:20,2058,2066
FNA:20,2,_ZNSt8__detail16_Hashtable_allocISaINS_10_Hash_nodeISt4pairIKNSt7__cxx1112basic_stringIcSt11char_traitsIcESaIcEEEiELb1EEEEE19_M_deallocate_nodesEPSB_
FNL:21,2070,2079
FNA:21,2,_ZNSt8__detail16_Hashtable_allocISaINS_10_Hash_nodeISt4pairIKNSt7__cxx1112basic_stringIcSt11char_traitsIcESaIcEEEiELb1EEEEE19_M_allocate_bucketsEm
FNL:22,2083,2091
FNA:22,2,_ZNSt8__detail16_Hashtable_allocISaINS_10_Hash_nodeISt4pairIKNSt7__cxx1112basic_stringIcSt11char_traitsIcESaIcEEEiELb1EEEEE21_M_deallocate_bucketsEPPNS_15_Hash_node_baseEm
FNL:23,303,304
FNA:23,6,_ZNSt8__detail22_Hashtable_hash_traitsISt4hashINSt7__cxx1112basic_stringIcSt11char_traitsIcESaIcEEEEE22__small_size_thresholdEv
FNL:24,319,319
FNA:24,6,_ZNSt8__detail15_Hash_node_baseC2Ev
FNL:25,386,387
FNA:25,9,_ZNKSt8__detail10_Hash_nodeISt4pairIKNSt7__cxx1112basic_stringIcSt11char_traitsIcESaIcEEEiELb1EE7_M_nextEv
FNL:26,399,400
FNA:26,16,_ZNSt8__detail19_Node_iterator_baseISt4pairIKNSt7__cxx1112basic_stringIcSt11char_traitsIcESaIcEEEiELb1EEC2EPNS_10_Hash_nodeIS9_Lb1EEE
FNL:27,407,409
FNA:27,6,_ZNSt8__detaileqERKNS_19_Node_iterator_baseISt4pairIKNSt7__cxx1112basic_stringIcSt11char_traitsIcESaIcEEEiELb1EEESC_
FNL:28,442,443
FNA:28,16,_ZNSt8__detail14_Node_iteratorISt4pairIKNSt7__cxx1112basic_stringIcSt11char_traitsIcESaIcEEEiELb0ELb1EEC2EPNS_10_Hash_nodeIS9_Lb1EEE
FNL:29,450,451
FNA:29,4,_ZNKSt8__detail14_Node_iteratorISt4pairIKNSt7__cxx1112basic_stringIcSt11char_traitsIcESaIcEEEiELb0ELb1EEptEv
FNL:30,532,534
FNA:30,10,_ZNKSt8__detail18_Mod_range_hashingclEmm
FNL:31,550,551
FNA:31,2,_ZNSt8__detail20_Prime_rehash_policyC2Ef
FNL:32,577,578
FNA:32,4,_ZNKSt8__detail20_Prime_rehash_policy8_M_stateEv
FNL:33,585,586
FNA:33,0,_ZNSt8__detail20_Prime_rehash_policy8_M_resetEm
FNL:34,730,733
FNA:34,4,_ZNSt8__detail17_RehashStateGuardINS_20_Prime_rehash_policyEEC2ERS1_
FNL:35,736,740
FNA:35,4,_ZNSt8__detail17_RehashStateGuardINS_20_Prime_rehash_policyEED2Ev
FNL:36,832,853
FNA:36,6,_ZNSt8__detail9_Map_baseINSt7__cxx1112basic_stringIcSt11char_traitsIcESaIcEEESt4pairIKS6_iESaIS9_ENS_10_Select1stESt8equal_toIS6_ESt4hashIS6_ENS_18_Mod_range_hashingENS_20_Default_ranged_hashENS_20_Prime_rehash_policyENS_17_Hashtable_traitsILb1ELb0ELb1EEELb1EEixERS8_
FNF:37
FNH:36
DA:112,7
DA:113,7
DA:303,6
DA:304,6
DA:319,6
DA:339,14
DA:344,7
DA:349,2
DA:354,7
DA:386,9
DA:387,9
DA:399,16
DA:400,16
DA:407,6
DA:409,6
DA:442,16
DA:443,16
DA:450,4
DA:451,8
DA:532,10
DA:534,10
DA:550,2
DA:551,2
DA:577,4
DA:578,4
DA:585,0
DA:586,0
DA:730,4
DA:731,4
DA:732,4
DA:733,4
DA:736,4
DA:738,4
DA:739,0
DA:740,4
DA:832,6
DA:837,6
DA:838,6
DA:839,6
DA:840,6
DA:841,4
DA:843,4
DA:846,4
DA:847,0
DA:850,4
DA:851,4
DA:852,4
DA:853,4
DA:1245,6
DA:1252,13
DA:1253,16
DA:1328,2
DA:1333,6
DA:1337,6
DA:1358,8
DA:1359,8
DA:1373,2
DA:1377,2
DA:1389,4
DA:1390,4
DA:1402,6
DA:1719,2
DA:1720,2
DA:1728,2
DA:1735,7
DA:1742,14
DA:1759,2
DA:1761,2
DA:1787,7
DA:1970,2
DA:1980,16
DA:1981,16
DA:2017,4
DA:2020,4
DA:2021,4
DA:2022,4
DA:2025,4
DA:2026,8
DA:2028,4
DA:2030,0
DA:2032,0
DA:2034,0
DA:2040,4
DA:2042,8
DA:2043,4
DA:2044,4
DA:2048,4
DA:2051,4
DA:2052,4
DA:2053,4
DA:2054,4
DA:2058,2
DA:2060,6
DA:2062,4
DA:2063,4
DA:2064,4
DA:2066,2
DA:2070,2
DA:2073,2
DA:2075,2
DA:2076,2
DA:2077,2
DA:2078,4
DA:2083,2
DA:2088,2
DA:2089,2
DA:2091,2
LF:107
LH:100
end_of_record
TN:
SF:/usr/include/c++/14/bits/move.h
FNL:0,137,138
FNA:0,41,_ZSt4moveIRSaIcEEONSt16remove_referenceIT_E4typeEOS3_
FNL:1,175,176
FNA:1,104,_ZSt9addressofIKcEPT_RS1_
FNA:1,4,_ZSt9addressofINSt8__detail10_Hash_nodeISt4pairIKNSt7__cxx1112basic_stringIcSt11char_traitsIcESaIcEEEiELb1EEEEPT_RSC_
FNA:1,2,_ZSt9addressofIPNSt8__detail15_Hash_node_baseEEPT_RS3_
FNA:1,37,_ZSt9addressofIcEPT_RS0_
FNL:2,51,52
FNA:2,18,_ZSt11__addressofIKNSt7__cxx1112basic_stringIcSt11char_traitsIcESaIcEEEEPT_RS7_
FNA:2,4,_ZSt11__addressofIKSt6vectorINSt7__cxx1112basic_stringIcSt11char_traitsIcESaIcEEESaIS6_EEEPT_RSA_
FNA:2,104,_ZSt11__addressofIKcEPT_RS1_
FNA:2,56,_ZSt11__addressofINSt7__cxx1112basic_stringIcSt11char_traitsIcESaIcEEEEPT_RS6_
FNA:2,4,_ZSt11__addressofINSt8__detail10_Hash_nodeISt4pairIKNSt7__cxx1112basic_stringIcSt11char_traitsIcESaIcEEEiELb1EEEEPT_RSC_
FNA:2,4,_ZSt11__addressofINSt8__detail20_Prime_rehash_policyEEPT_RS2_
FNA:2,2,_ZSt11__addressofIPNSt8__detail15_Hash_node_baseEEPT_RS3_
FNA:2,37,_ZSt11__addressofIcEPT_RS0_
FNL:3,71,72
FNA:3,22,_ZSt7forwardIRKNSt7__cxx1112basic_stringIcSt11char_traitsIcESaIcEEEEOT_RNSt16remove_referenceIS8_E4typeE
FNA:3,16,_ZSt7forwardIRKSt21piecewise_construct_tEOT_RNSt16remove_referenceIS3_E4typeE
FNA:3,7,_ZSt7forwardIRKSt4pairIKNSt7__cxx1112basic_stringIcSt11char_traitsIcESaIcEEEiEEOT_RNSt16remove_referenceISB_E4typeE
FNA:3,0,_ZSt7forwardIRKcEOT_RNSt16remove_referenceIS2_E4typeE
FNA:3,0,_ZSt7forwardIRNSt7__cxx1112basic_stringIcSt11char_traitsIcESaIcEEEEOT_RNSt16remove_referenceIS7_E4typeE
FNA:3,16,_ZSt7forwardISt5tupleIJEEEOT_RNSt16remove_referenceIS2_E4typeE
FNA:3,16,_ZSt7forwardISt5tupleIJRKNSt7__cxx1112basic_stringIcSt11char_traitsIcESaIcEEEEEEOT_RNSt16remove_referenceISA_E4typeE
FNF:4
FNH:4
DA:51,229
DA:52,229
DA:71,77
DA:72,77
DA:137,41
DA:138,41
DA:175,147
DA:176,147
LF:8
LH:8
end_of_record
TN:
SF:/usr/include/c++/14/bits/new_allocator.h
FNL:0,126,152
FNA:0,6,_ZNSt15__new_allocatorINSt7__cxx1112basic_stringIcSt11char_traitsIcESaIcEEEE8allocateEmPKv
FNA:0,4,_ZNSt15__new_allocatorINSt8__detail10_Hash_nodeISt4pairIKNSt7__cxx1112basic_stringIcSt11char_traitsIcESaIcEEEiELb1EEEE8allocateEmPKv
FNA:0,2,_ZNSt15__new_allocatorIPNSt8__detail15_Hash_node_baseEE8allocateEmPKv
FNA:0,8,_ZNSt15__new_allocatorIcE8allocateEmPKv
FNL:1,156,173
FNA:1,6,_ZNSt15__new_allocatorINSt7__cxx1112basic_stringIcSt11char_traitsIcESaIcEEEE10deallocateEPS5_m
FNA:1,4,_ZNSt15__new_allocatorINSt8__detail10_Hash_nodeISt4pairIKNSt7__cxx1112basic_stringIcSt11char_traitsIcESaIcEEEiELb1EEEE10deallocateEPSB_m
FNA:1,2,_ZNSt15__new_allocatorIPNSt8__detail15_Hash_node_baseEE10deallocateEPS2_m
FNA:1,8,_ZNSt15__new_allocatorIcE10deallocateEPcm
FNF:2
FNH:2
DA:88,23
DA:92,71
DA:126,20
DA:134,20
DA:138,0
DA:139,0
DA:140,0
DA:151,20
DA:156,20
DA:172,20
DA:233,20
LF:11
LH:8
end_of_record
TN:
SF:/usr/include/c++/14/bits/ptr_traits.h
FNL:0,134,135
FNA:0,104,_ZNSt19__ptr_traits_ptr_toIPKcS0_Lb0EE10pointer_toERS0_
FNA:0,4,_ZNSt19__ptr_traits_ptr_toIPNSt8__detail10_Hash_nodeISt4pairIKNSt7__cxx1112basic_stringIcSt11char_traitsIcESaIcEEEiELb1EEESB_Lb0EE10pointer_toERSB_
FNA:0,2,_ZNSt19__ptr_traits_ptr_toIPPNSt8__detail15_Hash_node_baseES2_Lb0EE10pointer_toERS2_
FNA:0,37,_ZNSt19__ptr_traits_ptr_toIPccLb0EE10pointer_toERc
FNL:1,205,209
FNA:1,4,_ZSt12__to_addressINSt8__detail10_Hash_nodeISt4pairIKNSt7__cxx1112basic_stringIcSt11char_traitsIcESaIcEEEiELb1EEEEPT_SD_
FNA:1,2,_ZSt12__to_addressIPNSt8__detail15_Hash_node_baseEEPT_S4_
FNF:2
FNH:2
DA:134,147
DA:135,147
DA:205,6
DA:208,6
LF:4
LH:4
end_of_record
TN:
SF:/usr/include/c++/14/bits/stl_algobase.h
FNL:0,233,241
FNA:0,2,_ZSt3minImERKT_S2_S2_
FNL:1,316,318
FNA:1,4,_ZSt12__niter_baseIPNSt7__cxx1112basic_stringIcSt11char_traitsIcESaIcEEEET_S7_
FNL:2,346,347
FNA:2,4,_ZSt12__niter_wrapIN9__gnu_cxx17__normal_iteratorIPNSt7__cxx1112basic_stringIcSt11char_traitsIcESaIcEEESt6vectorIS7_SaIS7_EEEES8_ET_SD_T0_
FNL:3,353,354
FNA:3,0,_ZSt12__niter_wrapIPNSt7__cxx1112basic_stringIcSt11char_traitsIcESaIcEEEET_RKS7_S7_
FNL:4,398,408
FNA:4,4,_ZNSt11__copy_moveILb0ELb0ESt26random_access_iterator_tagE8__copy_mIPKNSt7__cxx1112basic_stringIcSt11char_traitsIcESaIcEEEPS8_EET0_T_SD_SC_
FNA:4,0,_ZNSt11__copy_moveILb0ELb0ESt26random_access_iterator_tagE8__copy_mIPNSt7__cxx1112basic_stringIcSt11char_traitsIcESaIcEEES9_EET0_T_SB_SA_
FNL:5,512,522
FNA:5,4,_ZSt14__copy_move_a2ILb0EPKNSt7__cxx1112basic_stringIcSt11char_traitsIcESaIcEEEPS5_ET1_T0_SA_S9_
FNA:5,0,_ZSt14__copy_move_a2ILb0EPNSt7__cxx1112basic_stringIcSt11char_traitsIcESaIcEEES6_ET1_T0_S8_S7_
FNL:6,547,548
FNA:6,4,_ZSt14__copy_move_a1ILb0EPKNSt7__cxx1112basic_stringIcSt11char_traitsIcESaIcEEEPS5_ET1_T0_SA_S9_
FNA:6,0,_ZSt14__copy_move_a1ILb0EPNSt7__cxx1112basic_stringIcSt11char_traitsIcESaIcEEES6_ET1_T0_S8_S7_
FNL:7,553,559
FNA:7,4,_ZSt13__copy_move_aILb0EN9__gnu_cxx17__normal_iteratorIPKNSt7__cxx1112basic_stringIcSt11char_traitsIcESaIcEEESt6vectorIS7_SaIS7_EEEENS1_IPS7_SC_EEET1_T0_SH_SG_
FNA:7,0,_ZSt13__copy_move_aILb0EPNSt7__cxx1112basic_stringIcSt11char_traitsIcESaIcEEES6_ET1_T0_S8_S7_
FNL:8,642,652
FNA:8,4,_ZSt4copyIN9__gnu_cxx17__normal_iteratorIPKNSt7__cxx1112basic_stringIcSt11char_traitsIcESaIcEEESt6vectorIS7_SaIS7_EEEENS1_IPS7_SC_EEET0_T_SH_SG_
FNA:8,0,_ZSt4copyIPNSt7__cxx1112basic_stringIcSt11char_traitsIcESaIcEEES6_ET0_T_S8_S7_
FNF:9
FNH:8
DA:233,2
DA:238,2
DA:239,0
DA:240,2
DA:316,4
DA:318,4
DA:346,4
DA:347,4
DA:353,0
DA:354,0
DA:398,4
DA:401,22
DA:403,18
DA:404,18
DA:405,18
DA:407,4
DA:512,4
DA:516,4
DA:518,0
DA:521,4
DA:547,4
DA:548,4
DA:553,4
DA:555,4
DA:558,4
DA:642,4
DA:651,4
LF:27
LH:23
end_of_record
TN:
SF:/usr/include/c++/14/bits/stl_construct.h
FNL:0,109,120
FNA:0,9,_ZSt10_ConstructINSt7__cxx1112basic_stringIcSt11char_traitsIcESaIcEEEJEEvPT_DpOT0_
FNA:0,18,_ZSt10_ConstructINSt7__cxx1112basic_stringIcSt11char_traitsIcESaIcEEEJRKS5_EEvPT_DpOT0_
FNA:0,0,_ZSt10_ConstructINSt7__cxx1112basic_stringIcSt11char_traitsIcESaIcEEEJRS5_EEvPT_DpOT0_
FNL:1,146,153
FNA:1,27,_ZSt8_DestroyINSt7__cxx1112basic_stringIcSt11char_traitsIcESaIcEEEEvPT_
FNL:2,160,164
FNA:2,4,_ZNSt12_Destroy_auxILb0EE9__destroyIN9__gnu_cxx17__normal_iteratorIPNSt7__cxx1112basic_stringIcSt11char_traitsIcESaIcEEESt6vectorIS9_SaIS9_EEEEEEvT_SF_
FNA:2,6,_ZNSt12_Destroy_auxILb0EE9__destroyIPNSt7__cxx1112basic_stringIcSt11char_traitsIcESaIcEEEEEvT_S9_
FNL:3,182,197
FNA:3,4,_ZSt8_DestroyIN9__gnu_cxx17__normal_iteratorIPNSt7__cxx1112basic_stringIcSt11char_traitsIcESaIcEEESt6vectorIS7_SaIS7_EEEEEvT_SD_
FNA:3,6,_ZSt8_DestroyIPNSt7__cxx1112basic_stringIcSt11char_traitsIcESaIcEEEEvT_S7_
FNL:4,80,89
FNA:4,27,_ZSt10destroy_atINSt7__cxx1112basic_stringIcSt11char_traitsIcESaIcEEEEvPT_
FNA:4,4,_ZSt10destroy_atISt4pairIKNSt7__cxx1112basic_stringIcSt11char_traitsIcESaIcEEEiEEvPT_
FNL:5,94,97
FNA:5,0,_ZSt12construct_atINSt7__cxx1112basic_stringIcSt11char_traitsIcESaIcEEEJEEDTgsnwcvPvLi0E_T_pispcl7declvalIT0_EEEEPS7_DpOS8_
FNA:5,0,_ZSt12construct_atINSt7__cxx1112basic_stringIcSt11char_traitsIcESaIcEEEJRKS5_EEDTgsnwcvPvLi0E_T_pispcl7declvalIT0_EEEEPS9_DpOSA_
FNA:5,0,_ZSt12construct_atINSt7__cxx1112basic_stringIcSt11char_traitsIcESaIcEEEJRS5_EEDTgsnwcvPvLi0E_T_pispcl7declvalIT0_EEEEPS8_DpOS9_
FNA:5,4,_ZSt12construct_atISt4pairIKNSt7__cxx1112basic_stringIcSt11char_traitsIcESaIcEEEiEJRKSt21piecewise_construct_tSt5tupleIJRS7_EESC_IJEEEEDTgsnwcvPvLi0E_T_pispcl7declvalIT0_EEEEPSH_DpOSI_
FNA:5,0,_ZSt12construct_atIcJRKcEEDTgsnwcvPvLi0E_T_pispcl7declvalIT0_EEEEPS3_DpOS4_
FNF:6
FNH:6
DA:80,31
DA:88,31
DA:89,31
DA:94,4
DA:97,4
DA:109,27
DA:112,27
DA:115,0
DA:116,0
DA:119,27
DA:146,27
DA:149,27
DA:153,27
DA:160,10
DA:162,37
DA:163,27
DA:164,10
DA:182,10
DA:192,10
DA:193,0
DA:196,10
LF:21
LH:18
end_of_record
TN:
SF:/usr/include/c++/14/bits/stl_function.h
FNL:0,374,375
FNA:0,7,_ZNKSt8equal_toINSt7__cxx1112basic_stringIcSt11char_traitsIcESaIcEEEEclERKS5_S8_
FNF:1
FNH:1
DA:374,7
DA:375,7
LF:2
LH:2
end_of_record
TN:
SF:/usr/include/c++/14/bits/stl_iterator.h
FNL:0,1067,1068
FNA:0,28,_ZN9__gnu_cxx17__normal_iteratorIPKNSt7__cxx1112basic_stringIcSt11char_traitsIcESaIcEEESt6vectorIS6_SaIS6_EEEC2ERKS8_
FNA:0,12,_ZN9__gnu_cxx17__normal_iteratorIPNSt7__cxx1112basic_stringIcSt11char_traitsIcESaIcEEESt6vectorIS6_SaIS6_EEEC2ERKS7_
FNL:1,1090,1091
FNA:1,45,_ZNK9__gnu_cxx17__normal_iteratorIPKNSt7__cxx1112basic_stringIcSt11char_traitsIcESaIcEEESt6vectorIS6_SaIS6_EEEdeEv
FNA:1,0,_ZNK9__gnu_cxx17__normal_iteratorIPNSt7__cxx1112basic_stringIcSt11char_traitsIcESaIcEEESt6vectorIS6_SaIS6_EEEdeEv
FNL:2,1100,1104
FNA:2,45,_ZN9__gnu_cxx17__normal_iteratorIPKNSt7__cxx1112basic_stringIcSt11char_traitsIcESaIcEEESt6vectorIS6_SaIS6_EEEppEv
FNA:2,0,_ZN9__gnu_cxx17__normal_iteratorIPNSt7__cxx1112basic_stringIcSt11char_traitsIcESaIcEEESt6vectorIS6_SaIS6_EEEppEv
FNL:3,1138,1139
FNA:3,4,_ZNK9__gnu_cxx17__normal_iteratorIPNSt7__cxx1112basic_stringIcSt11char_traitsIcESaIcEEESt6vectorIS6_SaIS6_EEEplEl
FNL:4,1153,1154
FNA:4,118,_ZNK9__gnu_cxx17__normal_iteratorIPKNSt7__cxx1112basic_stringIcSt11char_traitsIcESaIcEEESt6vectorIS6_SaIS6_EEE4baseEv
FNA:4,16,_ZNK9__gnu_cxx17__normal_iteratorIPNSt7__cxx1112basic_stringIcSt11char_traitsIcESaIcEEESt6vectorIS6_SaIS6_EEE4baseEv
FNL:5,1188,1194
FNA:5,55,_ZN9__gnu_cxxeqIPKNSt7__cxx1112basic_stringIcSt11char_traitsIcESaIcEEESt6vectorIS6_SaIS6_EEEEbRKNS_17__normal_iteratorIT_T0_EESH_QrqXeqcldtfL0p_4baseEcldtfL0p0_4baseERSt14convertible_toIbEE
FNA:5,4,_ZN9__gnu_cxxeqIPNSt7__cxx1112basic_stringIcSt11char_traitsIcESaIcEEESt6vectorIS6_SaIS6_EEEEbRKNS_17__normal_iteratorIT_T0_EESG_QrqXeqcldtfL0p_4baseEcldtfL0p0_4baseERSt14convertible_toIbEE
FNL:6,1348,1350
FNA:6,8,_ZSt12__niter_baseIPKNSt7__cxx1112basic_stringIcSt11char_traitsIcESaIcEEESt6vectorIS5_SaIS5_EEET_N9__gnu_cxx17__normal_iteratorISB_T0_EE
FNA:6,8,_ZSt12__niter_baseIPNSt7__cxx1112basic_stringIcSt11char_traitsIcESaIcEEESt6vectorIS5_SaIS5_EEET_N9__gnu_cxx17__normal_iteratorISA_T0_EE
FNF:7
FNH:7
DA:1067,40
DA:1068,40
DA:1090,45
DA:1091,45
DA:1100,45
DA:1102,45
DA:1103,45
DA:1138,4
DA:1139,4
DA:1153,134
DA:1154,134
DA:1188,59
DA:1194,59
DA:1348,16
DA:1350,16
LF:15
LH:15
end_of_record
TN:
SF:/usr/include/c++/14/bits/stl_iterator_base_funcs.h
FNF:0
FNH:0
DA:106,22
DA:151,44
DA:152,44
LF:3
LH:3
end_of_record
TN:
SF:/usr/include/c++/14/bits/stl_iterator_base_types.h
FNF:0
FNH:0
DA:240,22
LF:1
LH:1
end_of_record
TN:
SF:/usr/include/c++/14/bits/stl_uninitialized.h
FNL:0,113,128
FNA:0,4,_ZSt16__do_uninit_copyIN9__gnu_cxx17__normal_iteratorIPKNSt7__cxx1112basic_stringIcSt11char_traitsIcESaIcEEESt6vectorIS7_SaIS7_EEEEPS7_ET0_T_SG_SF_
FNA:0,0,_ZSt16__do_uninit_copyIPNSt7__cxx1112basic_stringIcSt11char_traitsIcESaIcEEES6_ET0_T_S8_S7_
FNL:1,135,137
FNA:1,4,_ZNSt20__uninitialized_copyILb0EE13__uninit_copyIN9__gnu_cxx17__normal_iteratorIPKNSt7__cxx1112basic_stringIcSt11char_traitsIcESaIcEEESt6vectorIS9_SaIS9_EEEEPS9_EET0_T_SI_SH_
FNA:1,0,_ZNSt20__uninitialized_copyILb0EE13__uninit_copyIPNSt7__cxx1112basic_stringIcSt11char_traitsIcESaIcEEES8_EET0_T_SA_S9_
FNL:2,163,186
FNA:2,4,_ZSt18uninitialized_copyIN9__gnu_cxx17__normal_iteratorIPKNSt7__cxx1112basic_stringIcSt11char_traitsIcESaIcEEESt6vectorIS7_SaIS7_EEEEPS7_ET0_T_SG_SF_
FNA:2,0,_ZSt18uninitialized_copyIPNSt7__cxx1112basic_stringIcSt11char_traitsIcESaIcEEES6_ET0_T_S8_S7_
FNL:3,366,374
FNA:3,4,_ZSt22__uninitialized_copy_aIN9__gnu_cxx17__normal_iteratorIPKNSt7__cxx1112basic_stringIcSt11char_traitsIcESaIcEEESt6vectorIS7_SaIS7_EEEEPS7_S7_ET0_T_SG_SF_RSaIT1_E
FNA:3,0,_ZSt22__uninitialized_copy_aIPNSt7__cxx1112basic_stringIcSt11char_traitsIcESaIcEEES6_S5_ET0_T_S8_S7_RSaIT1_E
FNL:4,637,651
FNA:4,2,_ZNSt27__uninitialized_default_n_1ILb0EE18__uninit_default_nIPNSt7__cxx1112basic_stringIcSt11char_traitsIcESaIcEEEmEET_S9_T0_
FNL:5,696,713
FNA:5,2,_ZSt25__uninitialized_default_nIPNSt7__cxx1112basic_stringIcSt11char_traitsIcESaIcEEEmET_S7_T0_
FNL:6,777,779
FNA:6,2,_ZSt27__uninitialized_default_n_aIPNSt7__cxx1112basic_stringIcSt11char_traitsIcESaIcEEEmS5_ET_S7_T0_RSaIT1_E
FNF:7
FNH:7
DA:113,4
DA:116,4
DA:119,22
DA:120,18
DA:121,4
DA:123,0
DA:125,0
DA:126,0
DA:135,4
DA:137,4
DA:163,4
DA:174,4
DA:181,4
DA:185,4
DA:366,4
DA:370,4
DA:371,0
DA:373,4
DA:637,2
DA:639,2
DA:642,11
DA:643,9
DA:644,2
DA:696,2
DA:699,2
DA:701,0
DA:707,2
DA:712,2
DA:777,2
DA:779,2
LF:30
LH:25
end_of_record
TN:
SF:/usr/include/c++/14/bits/stl_vector.h
FNL:0,1078,1082
FNA:0,4,_ZNKSt6vectorINSt7__cxx1112basic_stringIcSt11char_traitsIcESaIcEEESaIS5_EE8capacityEv
FNL:1,1128,1132
FNA:1,901,_ZNSt6vectorINSt7__cxx1112basic_stringIcSt11char_traitsIcESaIcEEESaIS5_EEixEm
FNL:2,145,147
FNA:2,6,_ZNSt12_Vector_baseINSt7__cxx1112basic_stringIcSt11char_traitsIcESaIcEEESaIS5_EE12_Vector_implC2ERKS6_
FNL:3,1607,1608
FNA:3,0,_ZNSt6vectorINSt7__cxx1112basic_stringIcSt11char_traitsIcESaIcEEESaIS5_EE5clearEv
FNL:4,1618,1633
FNA:4,0,_ZNSt6vectorINSt7__cxx1112basic_stringIcSt11char_traitsIcESaIcEEESaIS5_EE20_M_allocate_and_copyIN9__gnu_cxx17__normal_iteratorIPKS5_S7_EEEEPS5_mT_SF_
FNL:5,1717,1722
FNA:5,2,_ZNSt6vectorINSt7__cxx1112basic_stringIcSt11char_traitsIcESaIcEEESaIS5_EE21_M_default_initializeEm
FNL:6,1917,1923
FNA:6,2,_ZNSt6vectorINSt7__cxx1112basic_stringIcSt11char_traitsIcESaIcEEESaIS5_EE17_S_check_init_lenEmRKS6_
FNL:7,1926,1935
FNA:7,2,_ZNSt6vectorINSt7__cxx1112basic_stringIcSt11char_traitsIcESaIcEEESaIS5_EE11_S_max_sizeERKS6_
FNL:8,1943,1952
FNA:8,0,_ZNSt6vectorINSt7__cxx1112basic_stringIcSt11char_traitsIcESaIcEEESaIS5_EE15_M_erase_at_endEPS5_
FNL:9,300,301
FNA:9,16,_ZNSt12_Vector_baseINSt7__cxx1112basic_stringIcSt11char_traitsIcESaIcEEESaIS5_EE19_M_get_Tp_allocatorEv
FNL:10,305,306
FNA:10,4,_ZNKSt12_Vector_baseINSt7__cxx1112basic_stringIcSt11char_traitsIcESaIcEEESaIS5_EE19_M_get_Tp_allocatorEv
FNL:11,332,334
FNA:11,6,_ZNSt12_Vector_baseINSt7__cxx1112basic_stringIcSt11char_traitsIcESaIcEEESaIS5_EEC2EmRKS6_
FNL:12,366,370
FNA:12,6,_ZNSt12_Vector_baseINSt7__cxx1112basic_stringIcSt11char_traitsIcESaIcEEESaIS5_EED2Ev
FNL:13,377,381
FNA:13,6,_ZNSt12_Vector_baseINSt7__cxx1112basic_stringIcSt11char_traitsIcESaIcEEESaIS5_EE11_M_allocateEm
FNL:14,385,390
FNA:14,6,_ZNSt12_Vector_baseINSt7__cxx1112basic_stringIcSt11char_traitsIcESaIcEEESaIS5_EE13_M_deallocateEPS5_m
FNL:15,396,401
FNA:15,6,_ZNSt12_Vector_baseINSt7__cxx1112basic_stringIcSt11char_traitsIcESaIcEEESaIS5_EE17_M_create_storageEm
FNL:16,556,558
FNA:16,2,_ZNSt6vectorINSt7__cxx1112basic_stringIcSt11char_traitsIcESaIcEEESaIS5_EEC2EmRKS6_
FNL:17,601,609
FNA:17,4,_ZNSt6vectorINSt7__cxx1112basic_stringIcSt11char_traitsIcESaIcEEESaIS5_EEC2ERKS7_
FNL:18,733,738
FNA:18,6,_ZNSt6vectorINSt7__cxx1112basic_stringIcSt11char_traitsIcESaIcEEESaIS5_EED2Ev
FNL:19,873,874
FNA:19,4,_ZNSt6vectorINSt7__cxx1112basic_stringIcSt11char_traitsIcESaIcEEESaIS5_EE5beginEv
FNL:20,883,884
FNA:20,14,_ZNKSt6vectorINSt7__cxx1112basic_stringIcSt11char_traitsIcESaIcEEESaIS5_EE5beginEv
FNL:21,893,894
FNA:21,4,_ZNSt6vectorINSt7__cxx1112basic_stringIcSt11char_traitsIcESaIcEEESaIS5_EE3endEv
FNL:22,903,904
FNA:22,14,_ZNKSt6vectorINSt7__cxx1112basic_stringIcSt11char_traitsIcESaIcEEESaIS5_EE3endEv
FNL:23,98,100
FNA:23,6,_ZNSt12_Vector_baseINSt7__cxx1112basic_stringIcSt11char_traitsIcESaIcEEESaIS5_EE17_Vector_impl_dataC2Ev
FNL:24,992,993
FNA:24,12,_ZNKSt6vectorINSt7__cxx1112basic_stringIcSt11char_traitsIcESaIcEEESaIS5_EE4sizeEv
FNF:25
FNH:22
DA:98,6
DA:99,6
DA:100,6
DA:145,6
DA:146,6
DA:147,6
DA:300,16
DA:301,16
DA:305,4
DA:306,4
DA:332,6
DA:333,6
DA:334,6
DA:366,6
DA:368,6
DA:369,6
DA:370,6
DA:377,6
DA:380,12
DA:385,6
DA:388,6
DA:389,6
DA:390,6
DA:396,6
DA:398,6
DA:399,6
DA:400,6
DA:401,6
DA:556,2
DA:557,2
DA:558,2
DA:601,4
DA:603,8
DA:605,4
DA:606,4
DA:608,4
DA:609,4
DA:733,6
DA:735,6
DA:736,6
DA:738,6
DA:873,4
DA:874,4
DA:883,14
DA:884,14
DA:893,4
DA:894,4
DA:903,14
DA:904,14
DA:992,12
DA:993,12
DA:1078,4
DA:1080,4
DA:1081,4
DA:1128,901
DA:1131,901
DA:1607,0
DA:1608,0
DA:1618,0
DA:1621,0
DA:1624,0
DA:1625,0
DA:1626,0
DA:1628,0
DA:1630,0
DA:1631,0
DA:1717,2
DA:1719,2
DA:1720,2
DA:1721,2
DA:1722,2
DA:1917,2
DA:1919,2
DA:1920,0
DA:1922,2
DA:1926,2
DA:1931,2
DA:1933,2
DA:1934,2
DA:1943,0
DA:1945,0
DA:1947,0
DA:1948,0
DA:1949,0
DA:1952,0
LF:85
LH:68
end_of_record
TN:
SF:/usr/include/c++/14/bits/unordered_map.h
FNL:0,148,148
FNA:0,2,_ZNSt13unordered_mapINSt7__cxx1112basic_stringIcSt11char_traitsIcESaIcEEEiSt4hashIS5_ESt8equal_toIS5_ESaISt4pairIKS5_iEEEC2Ev
FNL:1,354,355
FNA:1,6,_ZNSt13unordered_mapINSt7__cxx1112basic_stringIcSt11char_traitsIcESaIcEEEiSt4hashIS5_ESt8equal_toIS5_ESaISt4pairIKS5_iEEE3endEv
FNL:2,876,877
FNA:2,6,_ZNSt13unordered_mapINSt7__cxx1112basic_stringIcSt11char_traitsIcESaIcEEEiSt4hashIS5_ESt8equal_toIS5_ESaISt4pairIKS5_iEEE4findERSB_
FNL:3,987,988
FNA:3,6,_ZNSt13unordered_mapINSt7__cxx1112basic_stringIcSt11char_traitsIcESaIcEEEiSt4hashIS5_ESt8equal_toIS5_ESaISt4pairIKS5_iEEEixERSB_
FNF:4
FNH:4
DA:148,2
DA:354,6
DA:355,6
DA:876,6
DA:877,6
DA:987,6
DA:988,6
LF:7
LH:7
end_of_record
TN:
SF:/usr/include/c++/14/bits/vector.tcc
FNL:0,210,265
FNA:0,4,_ZNSt6vectorINSt7__cxx1112basic_stringIcSt11char_traitsIcESaIcEEESaIS5_EEaSERKS7_
FNF:1
FNH:1
DA:210,4
DA:213,4
DA:217,4
DA:219,0
DA:220,0
DA:223,0
DA:224,0
DA:225,0
DA:226,0
DA:227,0
DA:228,0
DA:229,0
DA:231,0
DA:232,0
DA:235,4
DA:236,4
DA:238,0
DA:240,0
DA:241,0
DA:242,0
DA:243,0
DA:244,0
DA:245,0
DA:246,0
DA:248,4
DA:250,8
DA:251,4
DA:255,0
DA:257,0
DA:258,0
DA:260,0
DA:262,4
DA:264,4
LF:33
LH:10
end_of_record
TN:
SF:/usr/include/c++/14/ext/aligned_buffer.h
FNL:0,104,107
FNA:0,14,_ZN9__gnu_cxx16__aligned_bufferISt4pairIKNSt7__cxx1112basic_stringIcSt11char_traitsIcESaIcEEEiEE7_M_addrEv
FNL:1,110,113
FNA:1,7,_ZNK9__gnu_cxx16__aligned_bufferISt4pairIKNSt7__cxx1112basic_stringIcSt11char_traitsIcESaIcEEEiEE7_M_addrEv
FNL:2,116,117
FNA:2,14,_ZN9__gnu_cxx16__aligned_bufferISt4pairIKNSt7__cxx1112basic_stringIcSt11char_traitsIcESaIcEEEiEE6_M_ptrEv
FNL:3,120,121
FNA:3,7,_ZNK9__gnu_cxx16__aligned_bufferISt4pairIKNSt7__cxx1112basic_stringIcSt11char_traitsIcESaIcEEEiEE6_M_ptrEv
FNF:4
FNH:4
DA:104,14
DA:106,14
DA:110,7
DA:112,7
DA:116,14
DA:117,14
DA:120,7
DA:121,7
LF:8
LH:8
end_of_record
TN:
SF:/usr/include/c++/14/ext/alloc_traits.h
FNF:0
FNH:0
DA:98,26
DA:106,22
DA:110,4
DA:118,0
LF:4
LH:3
end_of_record
TN:
SF:/usr/include/c++/14/new
FNL:0,179,180
FNA:0,35,_ZnwmPv
FNL:1,185,185
FNA:1,0,_ZdlPvS_
FNF:2
FNH:1
DA:179,35
DA:180,35
DA:185,0
LF:3
LH:2
end_of_record
TN:
SF:/usr/include/c++/14/tuple
FNL:0,201,202
FNA:0,4,_ZNSt10_Head_baseILm0ERKNSt7__cxx1112basic_stringIcSt11char_traitsIcESaIcEEELb0EEC2ES7_
FNL:1,242,242
FNA:1,4,_ZNSt10_Head_baseILm0ERKNSt7__cxx1112basic_stringIcSt11char_traitsIcESaIcEEELb0EE7_M_headERS8_
FNL:2,2427,2428
FNA:2,4,_ZSt12__get_helperILm0ERKNSt7__cxx1112basic_stringIcSt11char_traitsIcESaIcEEEJEERT0_RSt11_Tuple_implIXT_EJS8_DpT1_EE
FNL:3,2443,2444
FNA:3,4,_ZSt3getILm0EJRKNSt7__cxx1112basic_stringIcSt11char_traitsIcESaIcEEEEERNSt13tuple_elementIXT_ESt5tupleIJDpT0_EEE4typeERSC_
FNL:4,2872,2878
FNA:4,4,_ZNSt4pairIKNSt7__cxx1112basic_stringIcSt11char_traitsIcESaIcEEEiEC2IJRS6_EJEEESt21piecewise_construct_tSt5tupleIJDpT_EESB_IJDpT0_EE
FNL:5,2884,2889
FNA:5,4,_ZNSt4pairIKNSt7__cxx1112basic_stringIcSt11char_traitsIcESaIcEEEiEC2IJRS6_EJLm0EEJEJEEERSt5tupleIJDpT_EERSA_IJDpT1_EESt12_Index_tupleIJXspT0_EEESJ_IJXspT2_EEE
FNL:6,556,556
FNA:6,4,_ZNSt11_Tuple_implILm0EJRKNSt7__cxx1112basic_stringIcSt11char_traitsIcESaIcEEEEE7_M_headERS8_
FNL:7,566,568
FNA:7,4,_ZNSt11_Tuple_implILm0EJRKNSt7__cxx1112basic_stringIcSt11char_traitsIcESaIcEEEEEC2ES7_
FNL:8,586,589
FNA:8,4,_ZNSt11_Tuple_implILm0EJRKNSt7__cxx1112basic_stringIcSt11char_traitsIcESaIcEEEEEC2EOS8_
FNL:9,971,975
FNA:9,4,_ZNSt5tupleIJRKNSt7__cxx1112basic_stringIcSt11char_traitsIcESaIcEEEEEC2ES7_Qcl15__constructibleIDpRKT_EE
FNL:10,995,995
FNA:10,4,_ZNSt5tupleIJRKNSt7__cxx1112basic_stringIcSt11char_traitsIcESaIcEEEEEC2EOS8_
FNF:11
FNH:11
DA:201,4
DA:202,4
DA:242,4
DA:556,4
DA:566,4
DA:567,4
DA:568,4
DA:586,4
DA:588,4
DA:589,4
DA:971,4
DA:974,4
DA:975,4
DA:995,4
DA:2427,4
DA:2428,4
DA:2443,4
DA:2444,4
DA:2872,4
DA:2877,4
DA:2878,4
DA:2884,4
DA:2887,4
DA:2888,4
DA:2889,4
LF:25
LH:25
end_of_record
TN:
SF:/usr/include/c++/14/type_traits
FNL:0,3832,3839
FNA:0,45,_ZSt21is_constant_evaluatedv
FNF:1
FNH:1
DA:3832,45
DA:3835,45
LF:2
LH:2
end_of_record
TN:
SF:/usr/include/c++/14/x86_64-redhat-linux/bits/c++config.h
FNF:0
FNH:0
DA:2394,1139
DA:2456,0
LF:2
LH:1
end_of_record
