TN:
SF:/home/monika/Documents/problems/15787번： 기차가 어둠을 헤치고 은하수를/main.cpp
FNL:0,7,56
FNA:0,1,main
FNF:1
FNH:1
DA:7,1
DA:9,1
DA:10,1
DA:13,1
DA:15,1
DA:17,6
DA:20,5
DA:22,5
DA:25,4
DA:26,4
DA:28,1
DA:31,0
DA:32,0
DA:34,1
DA:37,1
DA:38,1
DA:40,0
DA:43,0
DA:44,0
DA:48,1
DA:49,6
DA:51,5
DA:54,1
DA:55,1
DA:56,1
LF:25
LH:20
end_of_record
TN:
SF:/usr/include/c++/14/bits/alloc_traits.h
FNF:0
FNH:0
DA:515,3
DA:550,3
DA:577,2
DA:581,2
DA:599,2
DA:601,2
DA:993,1
DA:994,1
LF:8
LH:8
end_of_record
TN:
SF:/usr/include/c++/14/bits/allocator.h
FNF:0
FNH:0
DA:161,2
DA:166,2
DA:182,2
DA:189,3
DA:191,0
DA:192,0
DA:193,0
DA:196,3
DA:203,3
DA:205,0
DA:206,0
DA:208,3
LF:12
LH:7
end_of_record
TN:
SF:/usr/include/c++/14/bits/move.h
FNL:0,51,52
FNA:0,0,_ZSt11__addressofIjEPT_RS0_
FNL:1,71,72
FNA:1,14,_ZSt7forwardIRKjEOT_RNSt16remove_referenceIS2_E4typeE
FNA:1,2,_ZSt7forwardIRPSt13_Rb_tree_nodeIjEEOT_RNSt16remove_referenceIS4_E4typeE
FNA:1,2,_ZSt7forwardIRPSt18_Rb_tree_node_baseEOT_RNSt16remove_referenceIS3_E4typeE
FNA:1,5,_ZSt7forwardIRSt17_Rb_tree_iteratorIjEEOT_RNSt16remove_referenceIS3_E4typeE
FNA:1,5,_ZSt7forwardIRbEOT_RNSt16remove_referenceIS1_E4typeE
FNA:1,5,_ZSt7forwardISt17_Rb_tree_iteratorIjEEOT_RNSt16remove_referenceIS2_E4typeE
FNA:1,5,_ZSt7forwardIbEOT_RNSt16remove_referenceIS0_E4typeE
FNF:2
FNH:1
DA:51,0
DA:52,0
DA:71,38
DA:72,38
LF:4
LH:2
end_of_record
TN:
SF:/usr/include/c++/14/bits/new_allocator.h
FNL:0,126,152
FNA:0,2,_ZNSt15__new_allocatorISt13_Rb_tree_nodeIjEE8allocateEmPKv
FNA:0,1,_ZNSt15__new_allocatorIjE8allocateEmPKv
FNL:1,156,173
FNA:1,2,_ZNSt15__new_allocatorISt13_Rb_tree_nodeIjEE10deallocateEPS1_m
FNA:1,1,_ZNSt15__new_allocatorIjE10deallocateEPjm
FNF:2
FNH:2
DA:88,2
DA:92,2
DA:126,3
DA:134,3
DA:138,0
DA:139,0
DA:140,0
DA:151,3
DA:156,3
DA:172,3
DA:233,3
LF:11
LH:8
end_of_record
TN:
SF:/usr/include/c++/14/bits/stl_algobase.h
FNL:0,1040,1040
FNA:0,1,_ZSt17__size_to_integerm
FNL:1,1140,1153
FNA:1,1,_ZSt10__fill_n_aIPjmjET_S1_T0_RKT1_St26random_access_iterator_tag
FNL:2,1175,1182
FNA:2,1,_ZSt6fill_nIPjmjET_S1_T0_RKT1_
FNL:3,233,241
FNA:3,1,_ZSt3minImERKT_S2_S2_
FNL:4,947,953
FNA:4,1,_ZSt9__fill_a1IPjjEN9__gnu_cxx11__enable_ifIXsrSt11__is_scalarIT0_E7__valueEvE6__typeET_S8_RKS4_
FNL:5,997,998
FNA:5,1,_ZSt8__fill_aIPjjEvT_S1_RKT0_
FNF:6
FNH:6
DA:233,1
DA:238,1
DA:239,0
DA:240,1
DA:947,1
DA:950,1
DA:951,7
DA:952,6
DA:953,1
DA:997,1
DA:998,1
DA:1040,1
DA:1140,1
DA:1146,1
DA:1147,0
DA:1151,1
DA:1152,1
DA:1175,1
DA:1180,1
DA:1181,2
LF:20
LH:18
end_of_record
TN:
SF:/usr/include/c++/14/bits/stl_construct.h
FNL:0,109,120
FNA:0,0,_ZSt10_ConstructIjJRKjEEvPT_DpOT0_
FNL:1,146,153
FNA:1,0,_ZSt8_DestroyIjEvPT_
FNL:2,160,164
FNA:2,0,_ZNSt12_Destroy_auxILb0EE9__destroyIPjEEvT_S3_
FNL:3,172,172
FNA:3,1,_ZNSt12_Destroy_auxILb1EE9__destroyIPjEEvT_S3_
FNL:4,182,197
FNA:4,1,_ZSt8_DestroyIPjEvT_S1_
FNL:5,80,89
FNA:5,2,_ZSt10destroy_atIjEvPT_
FNL:6,94,97
FNA:6,2,_ZSt12construct_atIjJRKjEEDTgsnwcvPvLi0E_T_pispcl7declvalIT0_EEEEPS3_DpOS4_
FNF:7
FNH:4
DA:80,2
DA:88,2
DA:89,2
DA:94,2
DA:97,2
DA:109,0
DA:112,0
DA:115,0
DA:116,0
DA:119,0
DA:146,0
DA:149,0
DA:153,0
DA:160,0
DA:162,0
DA:163,0
DA:164,0
DA:172,1
DA:182,1
DA:192,1
DA:193,0
DA:196,1
LF:22
LH:9
end_of_record
TN:
SF:/usr/include/c++/14/bits/stl_function.h
FNL:0,1163,1164
FNA:0,16,_ZNKSt9_IdentityIjEclERKj
FNL:1,404,405
FNA:1,10,_ZNKSt4lessIjEclERKjS2_
FNF:2
FNH:2
DA:404,10
DA:405,10
DA:1163,16
DA:1164,16
LF:4
LH:4
end_of_record
TN:
SF:/usr/include/c++/14/bits/stl_iterator_base_types.h
FNF:0
FNH:0
DA:240,1
LF:1
LH:1
end_of_record
TN:
SF:/usr/include/c++/14/bits/stl_pair.h
FNL:0,428,432
FNA:0,3,_ZNSt4pairIPSt18_Rb_tree_node_baseS1_EC2ERKS1_S4_Qcl16_S_constructibleIRKT_RKT0_EE
FNL:1,442,445
FNA:1,2,_ZNSt4pairIPSt18_Rb_tree_node_baseS1_EC2IRPSt13_Rb_tree_nodeIjERS1_EEOT_OT0_
FNA:1,5,_ZNSt4pairISt17_Rb_tree_iteratorIjEbEC2IS1_bEEOT_OT0_
FNA:1,5,_ZNSt4pairISt23_Rb_tree_const_iteratorIjEbEC2IRSt17_Rb_tree_iteratorIjERbEEOT_OT0_
FNF:2
FNH:2
DA:428,3
DA:431,3
DA:432,3
DA:442,12
DA:444,12
DA:445,12
LF:6
LH:6
end_of_record
TN:
SF:/usr/include/c++/14/bits/stl_set.h
FNL:0,169,169
FNA:0,1,_ZNSt3setIjSt4lessIjESaIjEEC2Ev
FNL:1,283,283
FNA:1,1,_ZNSt3setIjSt4lessIjESaIjEED2Ev
FNL:2,421,422
FNA:2,1,_ZNKSt3setIjSt4lessIjESaIjEE4sizeEv
FNL:3,511,516
FNA:3,5,_ZNSt3setIjSt4lessIjESaIjEE6insertERKj
FNF:4
FNH:4
DA:169,1
DA:283,1
DA:421,1
DA:422,1
DA:511,5
DA:514,5
DA:515,5
LF:7
LH:7
end_of_record
TN:
SF:/usr/include/c++/14/bits/stl_tree.h
FNL:0,1029,1030
FNA:0,1,_ZNKSt8_Rb_treeIjjSt9_IdentityIjESt4lessIjESaIjEE4sizeEv
FNL:1,142,146
FNA:1,1,_ZNSt20_Rb_tree_key_compareISt4lessIjEEC2Ev
FNL:2,169,173
FNA:2,1,_ZNSt15_Rb_tree_headerC2Ev
FNL:3,1814,1833
FNA:3,2,_ZNSt8_Rb_treeIjjSt9_IdentityIjESt4lessIjESaIjEE10_M_insert_IRKjNS5_11_Alloc_nodeEEESt17_Rb_tree_iteratorIjEPSt18_Rb_tree_node_baseSD_OT_RT0_
FNL:4,1926,1937
FNA:4,3,_ZNSt8_Rb_treeIjjSt9_IdentityIjESt4lessIjESaIjEE8_M_eraseEPSt13_Rb_tree_nodeIjE
FNL:5,202,208
FNA:5,1,_ZNSt15_Rb_tree_header8_M_resetEv
FNL:6,2104,2128
FNA:6,5,_ZNSt8_Rb_treeIjjSt9_IdentityIjESt4lessIjESaIjEE24_M_get_insert_unique_posERKj
FNL:7,2158,2178
FNA:7,5,_ZNSt8_Rb_treeIjjSt9_IdentityIjESt4lessIjESaIjEE16_M_insert_uniqueIRKjEESt4pairISt17_Rb_tree_iteratorIjEbEOT_
FNL:8,230,231
FNA:8,4,_ZNSt13_Rb_tree_nodeIjE9_M_valptrEv
FNL:9,234,235
FNA:9,10,_ZNKSt13_Rb_tree_nodeIjE9_M_valptrEv
FNL:10,269,270
FNA:10,12,_ZNSt17_Rb_tree_iteratorIjEC2EPSt18_Rb_tree_node_base
FNL:11,296,300
FNA:11,0,_ZNSt17_Rb_tree_iteratorIjEmmEv
FNL:12,311,312
FNA:12,2,_ZSteqRKSt17_Rb_tree_iteratorIjES2_
FNL:13,346,347
FNA:13,5,_ZNSt23_Rb_tree_const_iteratorIjEC2ERKSt17_Rb_tree_iteratorIjE
FNL:14,521,522
FNA:14,2,_ZNSt8_Rb_treeIjjSt9_IdentityIjESt4lessIjESaIjEE11_Alloc_nodeC2ERS5_
FNL:15,526,527
FNA:15,2,_ZNKSt8_Rb_treeIjjSt9_IdentityIjESt4lessIjESaIjEE11_Alloc_nodeclIRKjEEPSt13_Rb_tree_nodeIjEOT_
FNL:16,545,546
FNA:16,8,_ZNSt8_Rb_treeIjjSt9_IdentityIjESt4lessIjESaIjEE21_M_get_Node_allocatorEv
FNL:17,558,559
FNA:17,2,_ZNSt8_Rb_treeIjjSt9_IdentityIjESt4lessIjESaIjEE11_M_get_nodeEv
FNL:18,562,563
FNA:18,2,_ZNSt8_Rb_treeIjjSt9_IdentityIjESt4lessIjESaIjEE11_M_put_nodeEPSt13_Rb_tree_nodeIjE
FNL:19,588,603
FNA:19,2,_ZNSt8_Rb_treeIjjSt9_IdentityIjESt4lessIjESaIjEE17_M_construct_nodeIJRKjEEEvPSt13_Rb_tree_nodeIjEDpOT_
FNL:20,607,612
FNA:20,2,_ZNSt8_Rb_treeIjjSt9_IdentityIjESt4lessIjESaIjEE14_M_create_nodeIJRKjEEEPSt13_Rb_tree_nodeIjEDpOT_
FNL:21,616,624
FNA:21,2,_ZNSt8_Rb_treeIjjSt9_IdentityIjESt4lessIjESaIjEE15_M_destroy_nodeEPSt13_Rb_tree_nodeIjE
FNL:22,627,631
FNA:22,2,_ZNSt8_Rb_treeIjjSt9_IdentityIjESt4lessIjESaIjEE12_M_drop_nodeEPSt13_Rb_tree_nodeIjE
FNL:23,665,670
FNA:23,1,_ZNSt8_Rb_treeIjjSt9_IdentityIjESt4lessIjESaIjEE13_Rb_tree_implIS3_Lb1EEC2Ev
FNL:24,732,733
FNA:24,6,_ZNKSt8_Rb_treeIjjSt9_IdentityIjESt4lessIjESaIjEE9_M_mbeginEv
FNL:25,736,737
FNA:25,6,_ZNSt8_Rb_treeIjjSt9_IdentityIjESt4lessIjESaIjEE8_M_beginEv
FNL:26,747,748
FNA:26,7,_ZNSt8_Rb_treeIjjSt9_IdentityIjESt4lessIjESaIjEE6_M_endEv
FNL:27,755,774
FNA:27,10,_ZNSt8_Rb_treeIjjSt9_IdentityIjESt4lessIjESaIjEE6_S_keyEPKSt13_Rb_tree_nodeIjE
FNL:28,777,778
FNA:28,5,_ZNSt8_Rb_treeIjjSt9_IdentityIjESt4lessIjESaIjEE7_S_leftEPSt18_Rb_tree_node_base
FNL:29,785,786
FNA:29,5,_ZNSt8_Rb_treeIjjSt9_IdentityIjESt4lessIjESaIjEE8_S_rightEPSt18_Rb_tree_node_base
FNL:30,793,794
FNA:30,4,_ZNSt8_Rb_treeIjjSt9_IdentityIjESt4lessIjESaIjEE6_S_keyEPKSt18_Rb_tree_node_base
FNL:31,926,926
FNA:31,1,_ZNSt8_Rb_treeIjjSt9_IdentityIjESt4lessIjESaIjEEC2Ev
FNL:32,981,982
FNA:32,1,_ZNSt8_Rb_treeIjjSt9_IdentityIjESt4lessIjESaIjEED2Ev
FNL:33,993,994
FNA:33,2,_ZNSt8_Rb_treeIjjSt9_IdentityIjESt4lessIjESaIjEE5beginEv
FNF:34
FNH:33
DA:142,1
DA:146,1
DA:169,1
DA:170,1
DA:171,1
DA:172,1
DA:173,1
DA:202,1
DA:204,1
DA:205,1
DA:206,1
DA:207,1
DA:208,1
DA:230,4
DA:231,4
DA:234,10
DA:235,10
DA:269,12
DA:270,12
DA:296,0
DA:298,0
DA:299,0
DA:311,2
DA:312,2
DA:346,5
DA:347,5
DA:521,2
DA:522,2
DA:526,2
DA:527,2
DA:545,8
DA:546,8
DA:558,2
DA:559,4
DA:562,2
DA:563,2
DA:588,2
DA:592,2
DA:593,2
DA:603,2
DA:607,2
DA:609,2
DA:610,2
DA:611,2
DA:616,2
DA:621,2
DA:622,2
DA:624,2
DA:627,2
DA:629,2
DA:630,2
DA:631,2
DA:665,1
DA:669,1
DA:670,1
DA:732,6
DA:733,6
DA:736,6
DA:737,6
DA:747,7
DA:748,7
DA:755,10
DA:773,10
DA:777,5
DA:778,5
DA:785,5
DA:786,5
DA:793,4
DA:794,4
DA:926,1
DA:981,1
DA:982,1
DA:993,2
DA:994,2
DA:1029,1
DA:1030,1
DA:1814,2
DA:1823,2
DA:1824,4
DA:1827,2
DA:1829,2
DA:1830,2
DA:1831,2
DA:1832,2
DA:1926,3
DA:1930,5
DA:1932,2
DA:1933,2
DA:1934,2
DA:1935,2
DA:1937,3
DA:2104,5
DA:2108,5
DA:2109,5
DA:2110,5
DA:2111,11
DA:2113,6
DA:2114,6
DA:2115,6
DA:2117,5
DA:2118,5
DA:2120,2
DA:2121,2
DA:2123,0
DA:2125,3
DA:2126,0
DA:2127,3
DA:2158,5
DA:2167,5
DA:2169,5
DA:2171,2
DA:2172,2
DA:2174,2
DA:2177,3
LF:114
LH:109
end_of_record
TN:
SF:/usr/include/c++/14/bits/stl_uninitialized.h
FNL:0,261,275
FNA:0,0,_ZSt18__do_uninit_fill_nIPjmjET_S1_T0_RKT1_
FNL:1,292,294
FNA:1,1,_ZNSt22__uninitialized_fill_nILb1EE15__uninit_fill_nIPjmjEET_S3_T0_RKT1_
FNL:2,312,328
FNA:2,1,_ZSt20uninitialized_fill_nIPjmjET_S1_T0_RKT1_
FNL:3,465,473
FNA:3,1,_ZSt24__uninitialized_fill_n_aIPjmjjET_S1_T0_RKT1_RSaIT2_E
FNF:4
FNH:3
DA:261,0
DA:263,0
DA:266,0
DA:267,0
DA:268,0
DA:292,1
DA:294,1
DA:312,1
DA:319,1
DA:327,1
DA:465,1
DA:469,1
DA:470,0
DA:472,1
LF:14
LH:8
end_of_record
TN:
SF:/usr/include/c++/14/bits/stl_vector.h
FNL:0,1128,1132
FNA:0,11,_ZNSt6vectorIjSaIjEEixEm
FNL:1,145,147
FNA:1,1,_ZNSt12_Vector_baseIjSaIjEE12_Vector_implC2ERKS0_
FNL:2,1706,1711
FNA:2,1,_ZNSt6vectorIjSaIjEE18_M_fill_initializeEmRKj
FNL:3,1917,1923
FNA:3,1,_ZNSt6vectorIjSaIjEE17_S_check_init_lenEmRKS0_
FNL:4,1926,1935
FNA:4,1,_ZNSt6vectorIjSaIjEE11_S_max_sizeERKS0_
FNL:5,300,301
FNA:5,2,_ZNSt12_Vector_baseIjSaIjEE19_M_get_Tp_allocatorEv
FNL:6,332,334
FNA:6,1,_ZNSt12_Vector_baseIjSaIjEEC2EmRKS0_
FNL:7,366,370
FNA:7,1,_ZNSt12_Vector_baseIjSaIjEED2Ev
FNL:8,377,381
FNA:8,1,_ZNSt12_Vector_baseIjSaIjEE11_M_allocateEm
FNL:9,385,390
FNA:9,1,_ZNSt12_Vector_baseIjSaIjEE13_M_deallocateEPjm
FNL:10,396,401
FNA:10,1,_ZNSt12_Vector_baseIjSaIjEE17_M_create_storageEm
FNL:11,569,572
FNA:11,1,_ZNSt6vectorIjSaIjEEC2EmRKjRKS0_
FNL:12,733,738
FNA:12,1,_ZNSt6vectorIjSaIjEED2Ev
FNL:13,98,100
FNA:13,1,_ZNSt12_Vector_baseIjSaIjEE17_Vector_impl_dataC2Ev
FNF:14
FNH:14
DA:98,1
DA:99,1
DA:100,1
DA:145,1
DA:146,1
DA:147,1
DA:300,2
DA:301,2
DA:332,1
DA:333,1
DA:334,1
DA:366,1
DA:368,1
DA:369,1
DA:370,1
DA:377,1
DA:380,2
DA:385,1
DA:388,1
DA:389,1
DA:390,1
DA:396,1
DA:398,1
DA:399,1
DA:400,1
DA:401,1
DA:569,1
DA:571,1
DA:572,1
DA:733,1
DA:735,1
DA:736,1
DA:738,1
DA:1128,11
DA:1131,11
DA:1706,1
DA:1708,1
DA:1709,1
DA:1710,1
DA:1711,1
DA:1917,1
DA:1919,1
DA:1920,0
DA:1922,1
DA:1926,1
DA:1931,1
DA:1933,1
DA:1934,1
LF:48
LH:47
end_of_record
TN:
SF:/usr/include/c++/14/ext/aligned_buffer.h
FNL:0,64,65
FNA:0,4,_ZN9__gnu_cxx16__aligned_membufIjE7_M_addrEv
FNL:1,68,69
FNA:1,10,_ZNK9__gnu_cxx16__aligned_membufIjE7_M_addrEv
FNL:2,72,73
FNA:2,4,_ZN9__gnu_cxx16__aligned_membufIjE6_M_ptrEv
FNL:3,76,77
FNA:3,10,_ZNK9__gnu_cxx16__aligned_membufIjE6_M_ptrEv
FNF:4
FNH:4
DA:64,4
DA:65,4
DA:68,10
DA:69,10
DA:72,4
DA:73,4
DA:76,10
DA:77,10
LF:8
LH:8
end_of_record
TN:
SF:/usr/include/c++/14/new
FNL:0,179,180
FNA:0,4,_ZnwmPv
FNF:1
FNH:1
DA:179,4
DA:180,4
LF:2
LH:2
end_of_record
TN:
SF:/usr/include/c++/14/type_traits
FNL:0,3832,3839
FNA:0,1,_ZSt21is_constant_evaluatedv
FNF:1
FNH:1
DA:3832,1
DA:3835,1
LF:2
LH:2
end_of_record
TN:
SF:/usr/include/c++/14/x86_64-redhat-linux/bits/c++config.h
FNF:0
FNH:0
DA:2394,7
LF:1
LH:1
end_of_record
